ARM GAS  C:\Users\toesc\AppData\Local\Temp\ccZujPQb.s 			page 1


   1              		.cpu cortex-m7
   2              		.eabi_attribute 28, 1
   3              		.eabi_attribute 20, 1
   4              		.eabi_attribute 21, 1
   5              		.eabi_attribute 23, 3
   6              		.eabi_attribute 24, 1
   7              		.eabi_attribute 25, 1
   8              		.eabi_attribute 26, 1
   9              		.eabi_attribute 30, 2
  10              		.eabi_attribute 34, 1
  11              		.eabi_attribute 18, 4
  12              		.file	"dualpolysynth.cpp"
  13              		.text
  14              	.Ltext0:
  15              		.cfi_sections	.debug_frame
  16              		.section	.text._ZN7daisysp6ChorusD2Ev,"axG",%progbits,_ZN7daisysp6ChorusD5Ev,comdat
  17              		.align	1
  18              		.p2align 2,,3
  19              		.weak	_ZN7daisysp6ChorusD2Ev
  20              		.arch armv7e-m
  21              		.syntax unified
  22              		.thumb
  23              		.thumb_func
  24              		.fpu fpv5-d16
  26              	_ZN7daisysp6ChorusD2Ev:
  27              	.LVL0:
  28              	.LFB3003:
  29              		.file 1 "../../../DaisySP/Source/Effects/chorus.h"
   1:../../../DaisySP/Source/Effects/chorus.h **** #pragma once
   2:../../../DaisySP/Source/Effects/chorus.h **** #ifndef DSY_CHORUS_H
   3:../../../DaisySP/Source/Effects/chorus.h **** #define DSY_CHORUS_H
   4:../../../DaisySP/Source/Effects/chorus.h **** #ifdef __cplusplus
   5:../../../DaisySP/Source/Effects/chorus.h **** 
   6:../../../DaisySP/Source/Effects/chorus.h **** #include <stdint.h>
   7:../../../DaisySP/Source/Effects/chorus.h **** #include "Utility/delayline.h"
   8:../../../DaisySP/Source/Effects/chorus.h **** 
   9:../../../DaisySP/Source/Effects/chorus.h **** /** @file chorus.h */
  10:../../../DaisySP/Source/Effects/chorus.h **** 
  11:../../../DaisySP/Source/Effects/chorus.h **** namespace daisysp
  12:../../../DaisySP/Source/Effects/chorus.h **** {
  13:../../../DaisySP/Source/Effects/chorus.h **** /**  
  14:../../../DaisySP/Source/Effects/chorus.h ****     @brief Single Chorus engine. Used in Chorus.
  15:../../../DaisySP/Source/Effects/chorus.h ****     @author Ben Sergentanis
  16:../../../DaisySP/Source/Effects/chorus.h **** */
  17:../../../DaisySP/Source/Effects/chorus.h **** class ChorusEngine
  18:../../../DaisySP/Source/Effects/chorus.h **** {
  19:../../../DaisySP/Source/Effects/chorus.h ****   public:
  20:../../../DaisySP/Source/Effects/chorus.h ****     ChorusEngine() {}
  21:../../../DaisySP/Source/Effects/chorus.h ****     ~ChorusEngine() {}
  22:../../../DaisySP/Source/Effects/chorus.h **** 
  23:../../../DaisySP/Source/Effects/chorus.h ****     /** Initialize the module
  24:../../../DaisySP/Source/Effects/chorus.h ****         \param sample_rate Audio engine sample rate.
  25:../../../DaisySP/Source/Effects/chorus.h ****     */
  26:../../../DaisySP/Source/Effects/chorus.h ****     void Init(float sample_rate);
  27:../../../DaisySP/Source/Effects/chorus.h **** 
  28:../../../DaisySP/Source/Effects/chorus.h ****     /** Get the next sample
  29:../../../DaisySP/Source/Effects/chorus.h ****         \param in Sample to process
ARM GAS  C:\Users\toesc\AppData\Local\Temp\ccZujPQb.s 			page 2


  30:../../../DaisySP/Source/Effects/chorus.h ****     */
  31:../../../DaisySP/Source/Effects/chorus.h ****     float Process(float in);
  32:../../../DaisySP/Source/Effects/chorus.h **** 
  33:../../../DaisySP/Source/Effects/chorus.h ****     /** How much to modulate the delay by.
  34:../../../DaisySP/Source/Effects/chorus.h ****         \param depth Works 0-1.
  35:../../../DaisySP/Source/Effects/chorus.h ****     */
  36:../../../DaisySP/Source/Effects/chorus.h ****     void SetLfoDepth(float depth);
  37:../../../DaisySP/Source/Effects/chorus.h **** 
  38:../../../DaisySP/Source/Effects/chorus.h ****     /** Set lfo frequency.
  39:../../../DaisySP/Source/Effects/chorus.h ****         \param freq Frequency in Hz
  40:../../../DaisySP/Source/Effects/chorus.h ****     */
  41:../../../DaisySP/Source/Effects/chorus.h ****     void SetLfoFreq(float freq);
  42:../../../DaisySP/Source/Effects/chorus.h **** 
  43:../../../DaisySP/Source/Effects/chorus.h ****     /** Set the internal delay rate. 
  44:../../../DaisySP/Source/Effects/chorus.h ****         \param delay Tuned for 0-1. Maps to .1 to 50 ms.
  45:../../../DaisySP/Source/Effects/chorus.h ****     */
  46:../../../DaisySP/Source/Effects/chorus.h ****     void SetDelay(float delay);
  47:../../../DaisySP/Source/Effects/chorus.h **** 
  48:../../../DaisySP/Source/Effects/chorus.h ****     /** Set the delay time in ms.
  49:../../../DaisySP/Source/Effects/chorus.h ****         \param ms Delay time in ms, 0 to 50 ms.
  50:../../../DaisySP/Source/Effects/chorus.h ****     */
  51:../../../DaisySP/Source/Effects/chorus.h ****     void SetDelayMs(float ms);
  52:../../../DaisySP/Source/Effects/chorus.h **** 
  53:../../../DaisySP/Source/Effects/chorus.h ****     /** Set the feedback amount.
  54:../../../DaisySP/Source/Effects/chorus.h ****         \param feedback Amount from 0-1.
  55:../../../DaisySP/Source/Effects/chorus.h ****     */
  56:../../../DaisySP/Source/Effects/chorus.h ****     void SetFeedback(float feedback);
  57:../../../DaisySP/Source/Effects/chorus.h **** 
  58:../../../DaisySP/Source/Effects/chorus.h ****   private:
  59:../../../DaisySP/Source/Effects/chorus.h ****     float                    sample_rate_;
  60:../../../DaisySP/Source/Effects/chorus.h ****     static constexpr int32_t kDelayLength
  61:../../../DaisySP/Source/Effects/chorus.h ****         = 2400; // 50 ms at 48kHz = .05 * 48000
  62:../../../DaisySP/Source/Effects/chorus.h **** 
  63:../../../DaisySP/Source/Effects/chorus.h ****     //triangle lfos
  64:../../../DaisySP/Source/Effects/chorus.h ****     float lfo_phase_;
  65:../../../DaisySP/Source/Effects/chorus.h ****     float lfo_freq_;
  66:../../../DaisySP/Source/Effects/chorus.h ****     float lfo_amp_;
  67:../../../DaisySP/Source/Effects/chorus.h **** 
  68:../../../DaisySP/Source/Effects/chorus.h ****     float feedback_;
  69:../../../DaisySP/Source/Effects/chorus.h **** 
  70:../../../DaisySP/Source/Effects/chorus.h ****     float delay_;
  71:../../../DaisySP/Source/Effects/chorus.h **** 
  72:../../../DaisySP/Source/Effects/chorus.h ****     DelayLine<float, kDelayLength> del_;
  73:../../../DaisySP/Source/Effects/chorus.h **** 
  74:../../../DaisySP/Source/Effects/chorus.h ****     float ProcessLfo();
  75:../../../DaisySP/Source/Effects/chorus.h **** };
  76:../../../DaisySP/Source/Effects/chorus.h **** 
  77:../../../DaisySP/Source/Effects/chorus.h **** //wraps up all of the chorus engines
  78:../../../DaisySP/Source/Effects/chorus.h **** /**  
  79:../../../DaisySP/Source/Effects/chorus.h ****     @brief Chorus Effect.
  80:../../../DaisySP/Source/Effects/chorus.h ****     @author Ben Sergentanis
  81:../../../DaisySP/Source/Effects/chorus.h ****     @date Jan 2021
  82:../../../DaisySP/Source/Effects/chorus.h ****     Based on https://www.izotope.com/en/learn/understanding-chorus-flangers-and-phasers-in-audio-pr
  83:../../../DaisySP/Source/Effects/chorus.h ****     and https://www.researchgate.net/publication/236629475_Implementing_Professional_Audio_Effects_
  84:../../../DaisySP/Source/Effects/chorus.h **** */
  85:../../../DaisySP/Source/Effects/chorus.h **** class Chorus
  86:../../../DaisySP/Source/Effects/chorus.h **** {
ARM GAS  C:\Users\toesc\AppData\Local\Temp\ccZujPQb.s 			page 3


  87:../../../DaisySP/Source/Effects/chorus.h ****   public:
  88:../../../DaisySP/Source/Effects/chorus.h ****     Chorus() {}
  89:../../../DaisySP/Source/Effects/chorus.h ****     ~Chorus() {}
  30              		.loc 1 89 5 view -0
  31              		.cfi_startproc
  32              		@ args = 0, pretend = 0, frame = 0
  33              		@ frame_needed = 0, uses_anonymous_args = 0
  34              		@ link register save eliminated.
  35              		.loc 1 89 16 is_stmt 0 view .LVU1
  36 0000 7047     		bx	lr
  37              		.cfi_endproc
  38              	.LFE3003:
  40              		.weak	_ZN7daisysp6ChorusD1Ev
  41              		.thumb_set _ZN7daisysp6ChorusD1Ev,_ZN7daisysp6ChorusD2Ev
  42 0002 00BF     		.section	.text._ZN7daisysp8ReverbScD2Ev,"axG",%progbits,_ZN7daisysp8ReverbScD5Ev,comdat
  43              		.align	1
  44              		.p2align 2,,3
  45              		.weak	_ZN7daisysp8ReverbScD2Ev
  46              		.syntax unified
  47              		.thumb
  48              		.thumb_func
  49              		.fpu fpv5-d16
  51              	_ZN7daisysp8ReverbScD2Ev:
  52              	.LVL1:
  53              	.LFB3033:
  54              		.file 2 "../../../DaisySP/Source/Effects/reverbsc.h"
   1:../../../DaisySP/Source/Effects/reverbsc.h **** #pragma once
   2:../../../DaisySP/Source/Effects/reverbsc.h **** #ifndef DSYSP_REVERBSC_H
   3:../../../DaisySP/Source/Effects/reverbsc.h **** #define DSYSP_REVERBSC_H
   4:../../../DaisySP/Source/Effects/reverbsc.h **** 
   5:../../../DaisySP/Source/Effects/reverbsc.h **** #define DSY_REVERBSC_MAX_SIZE 98936
   6:../../../DaisySP/Source/Effects/reverbsc.h **** 
   7:../../../DaisySP/Source/Effects/reverbsc.h **** namespace daisysp
   8:../../../DaisySP/Source/Effects/reverbsc.h **** {
   9:../../../DaisySP/Source/Effects/reverbsc.h **** /**Delay line for internal reverb use
  10:../../../DaisySP/Source/Effects/reverbsc.h **** */
  11:../../../DaisySP/Source/Effects/reverbsc.h **** typedef struct
  12:../../../DaisySP/Source/Effects/reverbsc.h **** {
  13:../../../DaisySP/Source/Effects/reverbsc.h ****     int    write_pos;         /**< write position */
  14:../../../DaisySP/Source/Effects/reverbsc.h ****     int    buffer_size;       /**< buffer size */
  15:../../../DaisySP/Source/Effects/reverbsc.h ****     int    read_pos;          /**< read position */
  16:../../../DaisySP/Source/Effects/reverbsc.h ****     int    read_pos_frac;     /**< fractional component of read pos */
  17:../../../DaisySP/Source/Effects/reverbsc.h ****     int    read_pos_frac_inc; /**< increment for fractional */
  18:../../../DaisySP/Source/Effects/reverbsc.h ****     int    dummy;             /**<  dummy var */
  19:../../../DaisySP/Source/Effects/reverbsc.h ****     int    seed_val;          /**< randseed */
  20:../../../DaisySP/Source/Effects/reverbsc.h ****     int    rand_line_cnt;     /**< number of random lines */
  21:../../../DaisySP/Source/Effects/reverbsc.h ****     float  filter_state;      /**< state of filter */
  22:../../../DaisySP/Source/Effects/reverbsc.h ****     float *buf;               /**< buffer ptr */
  23:../../../DaisySP/Source/Effects/reverbsc.h **** } ReverbScDl;
  24:../../../DaisySP/Source/Effects/reverbsc.h **** 
  25:../../../DaisySP/Source/Effects/reverbsc.h **** /** Stereo Reverb
  26:../../../DaisySP/Source/Effects/reverbsc.h **** 
  27:../../../DaisySP/Source/Effects/reverbsc.h **** Reverb SC:               Ported from csound/soundpipe
  28:../../../DaisySP/Source/Effects/reverbsc.h **** 
  29:../../../DaisySP/Source/Effects/reverbsc.h **** Original author(s):        Sean Costello, Istvan Varga
  30:../../../DaisySP/Source/Effects/reverbsc.h **** 
  31:../../../DaisySP/Source/Effects/reverbsc.h **** Year:                    1999, 2005
ARM GAS  C:\Users\toesc\AppData\Local\Temp\ccZujPQb.s 			page 4


  32:../../../DaisySP/Source/Effects/reverbsc.h **** 
  33:../../../DaisySP/Source/Effects/reverbsc.h **** Ported to soundpipe by:  Paul Batchelor
  34:../../../DaisySP/Source/Effects/reverbsc.h **** 
  35:../../../DaisySP/Source/Effects/reverbsc.h **** Ported by:                Stephen Hensley
  36:../../../DaisySP/Source/Effects/reverbsc.h **** */
  37:../../../DaisySP/Source/Effects/reverbsc.h **** class ReverbSc
  38:../../../DaisySP/Source/Effects/reverbsc.h **** {
  39:../../../DaisySP/Source/Effects/reverbsc.h ****   public:
  40:../../../DaisySP/Source/Effects/reverbsc.h ****     ReverbSc() {}
  41:../../../DaisySP/Source/Effects/reverbsc.h ****     ~ReverbSc() {}
  55              		.loc 2 41 5 is_stmt 1 view -0
  56              		.cfi_startproc
  57              		@ args = 0, pretend = 0, frame = 0
  58              		@ frame_needed = 0, uses_anonymous_args = 0
  59              		@ link register save eliminated.
  60              		.loc 2 41 18 is_stmt 0 view .LVU3
  61 0000 7047     		bx	lr
  62              		.cfi_endproc
  63              	.LFE3033:
  65              		.weak	_ZN7daisysp8ReverbScD1Ev
  66              		.thumb_set _ZN7daisysp8ReverbScD1Ev,_ZN7daisysp8ReverbScD2Ev
  67              		.section	.text._ZN7daisysp10MoogLadderD2Ev,"axG",%progbits,_ZN7daisysp10MoogLadderD5Ev,comdat
  68              		.align	1
  69              		.p2align 2,,3
  70              		.weak	_ZN7daisysp10MoogLadderD2Ev
  71              		.syntax unified
  72              		.thumb
  73              		.thumb_func
  74              		.fpu fpv5-d16
  76              	_ZN7daisysp10MoogLadderD2Ev:
  77              	.LVL2:
  78              	.LFB3118:
  79              		.file 3 "../../../DaisySP/Source/Filters/moogladder.h"
   1:../../../DaisySP/Source/Filters/moogladder.h **** #pragma once
   2:../../../DaisySP/Source/Filters/moogladder.h **** #ifndef DSY_MOOGLADDER_H
   3:../../../DaisySP/Source/Filters/moogladder.h **** #define DSY_MOOGLADDER_H
   4:../../../DaisySP/Source/Filters/moogladder.h **** 
   5:../../../DaisySP/Source/Filters/moogladder.h **** #include <stdint.h>
   6:../../../DaisySP/Source/Filters/moogladder.h **** #ifdef __cplusplus
   7:../../../DaisySP/Source/Filters/moogladder.h **** 
   8:../../../DaisySP/Source/Filters/moogladder.h **** namespace daisysp
   9:../../../DaisySP/Source/Filters/moogladder.h **** {
  10:../../../DaisySP/Source/Filters/moogladder.h **** /** Moog ladder filter module
  11:../../../DaisySP/Source/Filters/moogladder.h **** 
  12:../../../DaisySP/Source/Filters/moogladder.h **** Ported from soundpipe
  13:../../../DaisySP/Source/Filters/moogladder.h **** 
  14:../../../DaisySP/Source/Filters/moogladder.h **** Original author(s) : Victor Lazzarini, John ffitch (fast tanh), Bob Moog
  15:../../../DaisySP/Source/Filters/moogladder.h **** 
  16:../../../DaisySP/Source/Filters/moogladder.h **** */
  17:../../../DaisySP/Source/Filters/moogladder.h **** class MoogLadder
  18:../../../DaisySP/Source/Filters/moogladder.h **** {
  19:../../../DaisySP/Source/Filters/moogladder.h ****   public:
  20:../../../DaisySP/Source/Filters/moogladder.h ****     MoogLadder() {}
  21:../../../DaisySP/Source/Filters/moogladder.h ****     ~MoogLadder() {}
  80              		.loc 3 21 5 is_stmt 1 view -0
  81              		.cfi_startproc
  82              		@ args = 0, pretend = 0, frame = 0
ARM GAS  C:\Users\toesc\AppData\Local\Temp\ccZujPQb.s 			page 5


  83              		@ frame_needed = 0, uses_anonymous_args = 0
  84              		@ link register save eliminated.
  85              		.loc 3 21 20 is_stmt 0 view .LVU5
  86 0000 7047     		bx	lr
  87              		.cfi_endproc
  88              	.LFE3118:
  90              		.weak	_ZN7daisysp10MoogLadderD1Ev
  91              		.thumb_set _ZN7daisysp10MoogLadderD1Ev,_ZN7daisysp10MoogLadderD2Ev
  92              		.section	.text._ZN5daisy9DaisySeedD2Ev,"axG",%progbits,_ZN5daisy9DaisySeedD5Ev,comdat
  93              		.align	1
  94              		.p2align 2,,3
  95              		.weak	_ZN5daisy9DaisySeedD2Ev
  96              		.syntax unified
  97              		.thumb
  98              		.thumb_func
  99              		.fpu fpv5-d16
 101              	_ZN5daisy9DaisySeedD2Ev:
 102              	.LVL3:
 103              	.LFB4774:
 104              		.file 4 "../../../libDaisy/src/daisy_seed.h"
   1:../../../libDaisy/src/daisy_seed.h **** #pragma once
   2:../../../libDaisy/src/daisy_seed.h **** #ifndef DSY_SEED_H
   3:../../../libDaisy/src/daisy_seed.h **** #define DSY_SEED_H
   4:../../../libDaisy/src/daisy_seed.h **** 
   5:../../../libDaisy/src/daisy_seed.h **** #include "daisy.h"
   6:../../../libDaisy/src/daisy_seed.h **** 
   7:../../../libDaisy/src/daisy_seed.h **** //Uncomment this out if you're still using the rev2 hardware
   8:../../../libDaisy/src/daisy_seed.h **** //#define SEED_REV2
   9:../../../libDaisy/src/daisy_seed.h **** 
  10:../../../libDaisy/src/daisy_seed.h **** namespace daisy
  11:../../../libDaisy/src/daisy_seed.h **** {
  12:../../../libDaisy/src/daisy_seed.h **** /**
  13:../../../libDaisy/src/daisy_seed.h ****    @brief This is the higher-level interface for the Daisy board. \n 
  14:../../../libDaisy/src/daisy_seed.h ****     All basic peripheral configuration/initialization is setup here. \n
  15:../../../libDaisy/src/daisy_seed.h **** 
  16:../../../libDaisy/src/daisy_seed.h ****    @ingroup boards
  17:../../../libDaisy/src/daisy_seed.h **** */
  18:../../../libDaisy/src/daisy_seed.h **** class DaisySeed
  19:../../../libDaisy/src/daisy_seed.h **** {
  20:../../../libDaisy/src/daisy_seed.h ****   public:
  21:../../../libDaisy/src/daisy_seed.h ****     DaisySeed() {}
  22:../../../libDaisy/src/daisy_seed.h ****     ~DaisySeed() {}
 105              		.loc 4 22 5 is_stmt 1 view -0
 106              		.cfi_startproc
 107              		@ args = 0, pretend = 0, frame = 0
 108              		@ frame_needed = 0, uses_anonymous_args = 0
 109              		@ link register save eliminated.
 110              	.LBB1227:
 111              	.LBI1227:
 112              		.file 5 "../../../libDaisy/src/sys/system.h"
   1:../../../libDaisy/src/sys/system.h **** #ifndef DSY_SYSTEM_H
   2:../../../libDaisy/src/sys/system.h **** #define DSY_SYSTEM_H
   3:../../../libDaisy/src/sys/system.h **** 
   4:../../../libDaisy/src/sys/system.h **** #ifndef UNIT_TEST // for unit tests, a dummy implementation is provided below
   5:../../../libDaisy/src/sys/system.h **** 
   6:../../../libDaisy/src/sys/system.h **** #include <cstdint>
   7:../../../libDaisy/src/sys/system.h **** #include "per/tim.h"
ARM GAS  C:\Users\toesc\AppData\Local\Temp\ccZujPQb.s 			page 6


   8:../../../libDaisy/src/sys/system.h **** 
   9:../../../libDaisy/src/sys/system.h **** namespace daisy
  10:../../../libDaisy/src/sys/system.h **** {
  11:../../../libDaisy/src/sys/system.h **** /** A handle for interacting with the Core System. 
  12:../../../libDaisy/src/sys/system.h ****  ** This includes the Clock tree, MPU, global DMA initialization,
  13:../../../libDaisy/src/sys/system.h ****  ** cache handling, and any other necessary global initiailzation
  14:../../../libDaisy/src/sys/system.h ****  **
  15:../../../libDaisy/src/sys/system.h ****  ** @author shensley
  16:../../../libDaisy/src/sys/system.h ****  ** @ingroup system
  17:../../../libDaisy/src/sys/system.h ****  */
  18:../../../libDaisy/src/sys/system.h **** class System
  19:../../../libDaisy/src/sys/system.h **** {
  20:../../../libDaisy/src/sys/system.h ****   public:
  21:../../../libDaisy/src/sys/system.h ****     /** Contains settings for initializing the System */
  22:../../../libDaisy/src/sys/system.h ****     struct Config
  23:../../../libDaisy/src/sys/system.h ****     {
  24:../../../libDaisy/src/sys/system.h ****         /** Specifies the system clock frequency that feeds APB/AHB clocks, etc. */
  25:../../../libDaisy/src/sys/system.h ****         enum class SysClkFreq
  26:../../../libDaisy/src/sys/system.h ****         {
  27:../../../libDaisy/src/sys/system.h ****             FREQ_400MHZ,
  28:../../../libDaisy/src/sys/system.h ****             FREQ_480MHZ,
  29:../../../libDaisy/src/sys/system.h ****         };
  30:../../../libDaisy/src/sys/system.h **** 
  31:../../../libDaisy/src/sys/system.h ****         /** Method to call on the struct to set to defaults
  32:../../../libDaisy/src/sys/system.h ****          ** CPU Freq set to 400MHz
  33:../../../libDaisy/src/sys/system.h ****          ** Cache Enabled 
  34:../../../libDaisy/src/sys/system.h ****          ** */
  35:../../../libDaisy/src/sys/system.h ****         void Defaults()
  36:../../../libDaisy/src/sys/system.h ****         {
  37:../../../libDaisy/src/sys/system.h ****             cpu_freq    = SysClkFreq::FREQ_400MHZ;
  38:../../../libDaisy/src/sys/system.h ****             use_dcache  = true;
  39:../../../libDaisy/src/sys/system.h ****             use_icache  = true;
  40:../../../libDaisy/src/sys/system.h ****             skip_clocks = false;
  41:../../../libDaisy/src/sys/system.h ****         }
  42:../../../libDaisy/src/sys/system.h **** 
  43:../../../libDaisy/src/sys/system.h ****         /** Method to call on the struct to set to boost mode:
  44:../../../libDaisy/src/sys/system.h ****          ** CPU Freq set to 480MHz
  45:../../../libDaisy/src/sys/system.h ****          ** Cache Enabled 
  46:../../../libDaisy/src/sys/system.h ****          ** */
  47:../../../libDaisy/src/sys/system.h ****         void Boost()
  48:../../../libDaisy/src/sys/system.h ****         {
  49:../../../libDaisy/src/sys/system.h ****             cpu_freq    = SysClkFreq::FREQ_480MHZ;
  50:../../../libDaisy/src/sys/system.h ****             use_dcache  = true;
  51:../../../libDaisy/src/sys/system.h ****             use_icache  = true;
  52:../../../libDaisy/src/sys/system.h ****             skip_clocks = false;
  53:../../../libDaisy/src/sys/system.h ****         }
  54:../../../libDaisy/src/sys/system.h **** 
  55:../../../libDaisy/src/sys/system.h ****         SysClkFreq cpu_freq;
  56:../../../libDaisy/src/sys/system.h ****         bool       use_dcache;
  57:../../../libDaisy/src/sys/system.h ****         bool       use_icache;
  58:../../../libDaisy/src/sys/system.h ****         bool       skip_clocks;
  59:../../../libDaisy/src/sys/system.h ****     };
  60:../../../libDaisy/src/sys/system.h **** 
  61:../../../libDaisy/src/sys/system.h ****     /** Describes the different regions of memory available to the Daisy
  62:../../../libDaisy/src/sys/system.h ****      * 
  63:../../../libDaisy/src/sys/system.h ****      */
  64:../../../libDaisy/src/sys/system.h ****     enum MemoryRegion
ARM GAS  C:\Users\toesc\AppData\Local\Temp\ccZujPQb.s 			page 7


  65:../../../libDaisy/src/sys/system.h ****     {
  66:../../../libDaisy/src/sys/system.h ****         INTERNAL_FLASH = 0,
  67:../../../libDaisy/src/sys/system.h ****         ITCMRAM,
  68:../../../libDaisy/src/sys/system.h ****         DTCMRAM,
  69:../../../libDaisy/src/sys/system.h ****         SRAM_D1,
  70:../../../libDaisy/src/sys/system.h ****         SRAM_D2,
  71:../../../libDaisy/src/sys/system.h ****         SRAM_D3,
  72:../../../libDaisy/src/sys/system.h ****         SDRAM,
  73:../../../libDaisy/src/sys/system.h ****         QSPI,
  74:../../../libDaisy/src/sys/system.h ****         INVALID_ADDRESS,
  75:../../../libDaisy/src/sys/system.h ****     };
  76:../../../libDaisy/src/sys/system.h **** 
  77:../../../libDaisy/src/sys/system.h ****     System() {}
  78:../../../libDaisy/src/sys/system.h ****     ~System() {}
 113              		.loc 5 78 5 view .LVU7
 114              		.loc 5 78 5 is_stmt 0 view .LVU8
 115              	.LBE1227:
 116              	.LBB1228:
 117              	.LBI1228:
 118              		.file 6 "../../../libDaisy/src/hid/usb.h"
   1:../../../libDaisy/src/hid/usb.h **** #pragma once
   2:../../../libDaisy/src/hid/usb.h **** #ifndef DSY_HID_USB_H
   3:../../../libDaisy/src/hid/usb.h **** #define DSY_HID_USB_H
   4:../../../libDaisy/src/hid/usb.h **** #include <stdint.h>
   5:../../../libDaisy/src/hid/usb.h **** #include <stdlib.h>
   6:../../../libDaisy/src/hid/usb.h **** 
   7:../../../libDaisy/src/hid/usb.h **** namespace daisy
   8:../../../libDaisy/src/hid/usb.h **** /** @addtogroup human_interface
   9:../../../libDaisy/src/hid/usb.h ****     @{
  10:../../../libDaisy/src/hid/usb.h **** */
  11:../../../libDaisy/src/hid/usb.h **** 
  12:../../../libDaisy/src/hid/usb.h **** {
  13:../../../libDaisy/src/hid/usb.h **** /** 
  14:../../../libDaisy/src/hid/usb.h ****     @brief Interface for initializing and using the USB Peripherals on the daisy
  15:../../../libDaisy/src/hid/usb.h ****     @author Stephen Hensley
  16:../../../libDaisy/src/hid/usb.h ****     @date December 2019
  17:../../../libDaisy/src/hid/usb.h **** */
  18:../../../libDaisy/src/hid/usb.h **** class UsbHandle
  19:../../../libDaisy/src/hid/usb.h **** {
  20:../../../libDaisy/src/hid/usb.h ****   public:
  21:../../../libDaisy/src/hid/usb.h ****     /** Return values for USBHandle Functions */
  22:../../../libDaisy/src/hid/usb.h ****     enum class Result
  23:../../../libDaisy/src/hid/usb.h ****     {
  24:../../../libDaisy/src/hid/usb.h ****         OK,
  25:../../../libDaisy/src/hid/usb.h ****         ERR,
  26:../../../libDaisy/src/hid/usb.h ****     };
  27:../../../libDaisy/src/hid/usb.h **** 
  28:../../../libDaisy/src/hid/usb.h ****     /** Specified which of the two USB Peripherals to initialize. */
  29:../../../libDaisy/src/hid/usb.h ****     enum UsbPeriph
  30:../../../libDaisy/src/hid/usb.h ****     {
  31:../../../libDaisy/src/hid/usb.h ****         FS_INTERNAL, /**< Internal pin */
  32:../../../libDaisy/src/hid/usb.h ****         FS_EXTERNAL, /**< FS External D+ pin is Pin 38 (GPIO32). FS External D- pin is Pin 37 (GPIO
  33:../../../libDaisy/src/hid/usb.h ****         FS_BOTH,     /**< Both */
  34:../../../libDaisy/src/hid/usb.h ****     };
  35:../../../libDaisy/src/hid/usb.h **** 
  36:../../../libDaisy/src/hid/usb.h **** 
  37:../../../libDaisy/src/hid/usb.h ****     /** Function called upon reception of a buffer */
ARM GAS  C:\Users\toesc\AppData\Local\Temp\ccZujPQb.s 			page 8


  38:../../../libDaisy/src/hid/usb.h ****     typedef void (*ReceiveCallback)(uint8_t* buff, uint32_t* len);
  39:../../../libDaisy/src/hid/usb.h **** 
  40:../../../libDaisy/src/hid/usb.h ****     UsbHandle() {}
  41:../../../libDaisy/src/hid/usb.h **** 
  42:../../../libDaisy/src/hid/usb.h ****     ~UsbHandle() {}
 119              		.loc 6 42 5 is_stmt 1 view .LVU9
 120              		.loc 6 42 5 is_stmt 0 view .LVU10
 121              	.LBE1228:
 122              	.LBB1229:
 123              	.LBI1229:
 124              		.file 7 "../../../libDaisy/src/per/adc.h"
   1:../../../libDaisy/src/per/adc.h **** #pragma once
   2:../../../libDaisy/src/per/adc.h **** #ifndef DSY_ADC_H
   3:../../../libDaisy/src/per/adc.h **** #define DSY_ADC_H /**< Macro */
   4:../../../libDaisy/src/per/adc.h **** #include <stdint.h>
   5:../../../libDaisy/src/per/adc.h **** #include <stdlib.h>
   6:../../../libDaisy/src/per/adc.h **** #include "daisy_core.h"
   7:../../../libDaisy/src/per/adc.h **** #include "per/gpio.h"
   8:../../../libDaisy/src/per/adc.h **** 
   9:../../../libDaisy/src/per/adc.h **** #define DSY_ADC_MAX_CHANNELS 16 /**< Maximum number of ADC channels */
  10:../../../libDaisy/src/per/adc.h **** 
  11:../../../libDaisy/src/per/adc.h **** namespace daisy
  12:../../../libDaisy/src/per/adc.h **** {
  13:../../../libDaisy/src/per/adc.h **** /** @addtogroup per_analog
  14:../../../libDaisy/src/per/adc.h ****     @{
  15:../../../libDaisy/src/per/adc.h **** */
  16:../../../libDaisy/src/per/adc.h **** 
  17:../../../libDaisy/src/per/adc.h **** /* While there may not be many configuration options here,
  18:../../../libDaisy/src/per/adc.h **** using a struct like this allows us to add more configuration
  19:../../../libDaisy/src/per/adc.h **** later without breaking existing functionality.
  20:../../../libDaisy/src/per/adc.h **** */
  21:../../../libDaisy/src/per/adc.h **** 
  22:../../../libDaisy/src/per/adc.h **** /** @brief   Configuration Structure for an ADC Channel 
  23:../../../libDaisy/src/per/adc.h ****  *  @details This can be used to configure a a single input, 
  24:../../../libDaisy/src/per/adc.h ****  *           or a multiplexed input, allowing up to 8 inputs on 
  25:../../../libDaisy/src/per/adc.h ****  *           one channel.
  26:../../../libDaisy/src/per/adc.h ****  *  @note    Sharing data lines to multiple muxes _is_ possible, but
  27:../../../libDaisy/src/per/adc.h ****  *           each channel sharing data lines must be set to the maximum
  28:../../../libDaisy/src/per/adc.h ****  *           number of channels, even if some multiplexers have fewer
  29:../../../libDaisy/src/per/adc.h ****  *           inputs connected.
  30:../../../libDaisy/src/per/adc.h **** */
  31:../../../libDaisy/src/per/adc.h **** struct AdcChannelConfig
  32:../../../libDaisy/src/per/adc.h **** {
  33:../../../libDaisy/src/per/adc.h ****     /** Which pin to use for multiplexing */
  34:../../../libDaisy/src/per/adc.h ****     enum MuxPin
  35:../../../libDaisy/src/per/adc.h ****     {
  36:../../../libDaisy/src/per/adc.h ****         MUX_SEL_0,    /**< & */
  37:../../../libDaisy/src/per/adc.h ****         MUX_SEL_1,    /**< & */
  38:../../../libDaisy/src/per/adc.h ****         MUX_SEL_2,    /**< & */
  39:../../../libDaisy/src/per/adc.h ****         MUX_SEL_LAST, /**< & */
  40:../../../libDaisy/src/per/adc.h ****     };
  41:../../../libDaisy/src/per/adc.h **** 
  42:../../../libDaisy/src/per/adc.h ****     /** Initializes a single ADC pin as an ADC. 
  43:../../../libDaisy/src/per/adc.h ****     \param pin Pin to init.
  44:../../../libDaisy/src/per/adc.h ****      */
  45:../../../libDaisy/src/per/adc.h ****     void InitSingle(dsy_gpio_pin pin);
  46:../../../libDaisy/src/per/adc.h **** 
ARM GAS  C:\Users\toesc\AppData\Local\Temp\ccZujPQb.s 			page 9


  47:../../../libDaisy/src/per/adc.h ****     /** 
  48:../../../libDaisy/src/per/adc.h ****     Initializes a single ADC pin as a Multiplexed ADC.
  49:../../../libDaisy/src/per/adc.h ****     Requires a CD405X Multiplexer connected to the pin.
  50:../../../libDaisy/src/per/adc.h ****     You only need to supply the mux pins that are required,
  51:../../../libDaisy/src/per/adc.h ****     e.g. a 4052 mux would only require mux_0 and mux_1.
  52:../../../libDaisy/src/per/adc.h ****     Internal Callbacks handle the pin addressing.
  53:../../../libDaisy/src/per/adc.h ****     \param mux_channels must be 1-8
  54:../../../libDaisy/src/per/adc.h ****     \param mux_0 First mux pin
  55:../../../libDaisy/src/per/adc.h ****     \param mux_1 Second mux pin
  56:../../../libDaisy/src/per/adc.h ****     \param mux_2 Third mux pin
  57:../../../libDaisy/src/per/adc.h ****     \param adc_pin &
  58:../../../libDaisy/src/per/adc.h ****     */
  59:../../../libDaisy/src/per/adc.h ****     void InitMux(dsy_gpio_pin adc_pin,
  60:../../../libDaisy/src/per/adc.h ****                  size_t       mux_channels,
  61:../../../libDaisy/src/per/adc.h ****                  dsy_gpio_pin mux_0,
  62:../../../libDaisy/src/per/adc.h ****                  dsy_gpio_pin mux_1 = {DSY_GPIOX, 0},
  63:../../../libDaisy/src/per/adc.h ****                  dsy_gpio_pin mux_2 = {DSY_GPIOX, 0});
  64:../../../libDaisy/src/per/adc.h **** 
  65:../../../libDaisy/src/per/adc.h ****     dsy_gpio pin_;                   /**< & */
  66:../../../libDaisy/src/per/adc.h ****     dsy_gpio mux_pin_[MUX_SEL_LAST]; /**< & */
  67:../../../libDaisy/src/per/adc.h ****     uint8_t  mux_channels_;          /**< & */
  68:../../../libDaisy/src/per/adc.h **** };
  69:../../../libDaisy/src/per/adc.h **** 
  70:../../../libDaisy/src/per/adc.h **** /**
  71:../../../libDaisy/src/per/adc.h ****    @brief Handler for analog to digital conversion
  72:../../../libDaisy/src/per/adc.h **** */
  73:../../../libDaisy/src/per/adc.h **** class AdcHandle
  74:../../../libDaisy/src/per/adc.h **** {
  75:../../../libDaisy/src/per/adc.h ****   public:
  76:../../../libDaisy/src/per/adc.h ****     /** Supported oversampling amounts */
  77:../../../libDaisy/src/per/adc.h ****     enum OverSampling
  78:../../../libDaisy/src/per/adc.h ****     {
  79:../../../libDaisy/src/per/adc.h ****         OVS_NONE, /**< & */
  80:../../../libDaisy/src/per/adc.h ****         OVS_4,    /**< & */
  81:../../../libDaisy/src/per/adc.h ****         OVS_8,    /**< & */
  82:../../../libDaisy/src/per/adc.h ****         OVS_16,   /**< & */
  83:../../../libDaisy/src/per/adc.h ****         OVS_32,   /**< & */
  84:../../../libDaisy/src/per/adc.h ****         OVS_64,   /**< & */
  85:../../../libDaisy/src/per/adc.h ****         OVS_128,  /**< & */
  86:../../../libDaisy/src/per/adc.h ****         OVS_256,  /**< & */
  87:../../../libDaisy/src/per/adc.h ****         OVS_512,  /**< & */
  88:../../../libDaisy/src/per/adc.h ****         OVS_1024, /**< & */
  89:../../../libDaisy/src/per/adc.h ****         OVS_LAST, /**< & */
  90:../../../libDaisy/src/per/adc.h ****     };
  91:../../../libDaisy/src/per/adc.h **** 
  92:../../../libDaisy/src/per/adc.h ****     AdcHandle() {}
  93:../../../libDaisy/src/per/adc.h ****     ~AdcHandle() {}
 125              		.loc 7 93 5 is_stmt 1 view .LVU11
 126              		.loc 7 93 5 is_stmt 0 view .LVU12
 127              	.LBE1229:
 128              	.LBB1230:
 129              	.LBI1230:
 130              		.file 8 "../../../libDaisy/src/hid/audio.h"
   1:../../../libDaisy/src/hid/audio.h **** #ifndef DSY_AUDIO_H
   2:../../../libDaisy/src/hid/audio.h **** #define DSY_AUDIO_H /**< & */
   3:../../../libDaisy/src/hid/audio.h **** 
   4:../../../libDaisy/src/hid/audio.h **** #include "per/sai.h"
ARM GAS  C:\Users\toesc\AppData\Local\Temp\ccZujPQb.s 			page 10


   5:../../../libDaisy/src/hid/audio.h **** 
   6:../../../libDaisy/src/hid/audio.h **** namespace daisy
   7:../../../libDaisy/src/hid/audio.h **** {
   8:../../../libDaisy/src/hid/audio.h **** /** @brief Audio Engine Handle
   9:../../../libDaisy/src/hid/audio.h ****  *  @ingroup audio 
  10:../../../libDaisy/src/hid/audio.h ****  *  @details This class allows for higher level access to an audio engine.
  11:../../../libDaisy/src/hid/audio.h ****  *           If you're using a SOM like the DaisySeed or DaisyPatchSM (or any 
  12:../../../libDaisy/src/hid/audio.h ****  *            board that includes one of those objects) then the intialization
  13:../../../libDaisy/src/hid/audio.h ****  *            is already taken  care of.
  14:../../../libDaisy/src/hid/audio.h ****  *           If you're setting up your own custom hardware, or need to make changes
  15:../../../libDaisy/src/hid/audio.h ****  *           you will have to take the following steps:
  16:../../../libDaisy/src/hid/audio.h ****  *             1. Create and Initialize an SaiHandle or two depending on your requirements
  17:../../../libDaisy/src/hid/audio.h ****  *             2. Initialize the Audio Handle with the desired settings and the Initialized SaiHand
  18:../../../libDaisy/src/hid/audio.h ****  *             3. If the connected codec requires special configuration or initialization, do so
  19:../../../libDaisy/src/hid/audio.h ****  *             4. Write a callback method using either the AudioCallback or the InterleavingAudioCa
  20:../../../libDaisy/src/hid/audio.h ****  *             5. Start the Audio using one of the StartAudio function
  21:../../../libDaisy/src/hid/audio.h ****  */
  22:../../../libDaisy/src/hid/audio.h **** class AudioHandle
  23:../../../libDaisy/src/hid/audio.h **** {
  24:../../../libDaisy/src/hid/audio.h ****   public:
  25:../../../libDaisy/src/hid/audio.h ****     /** Manually configurable details about the Audio Engine */
  26:../../../libDaisy/src/hid/audio.h ****     /** TODO: Figure out how to get samplerate in here. */
  27:../../../libDaisy/src/hid/audio.h ****     struct Config
  28:../../../libDaisy/src/hid/audio.h ****     {
  29:../../../libDaisy/src/hid/audio.h ****         /** number of samples to process per callback */
  30:../../../libDaisy/src/hid/audio.h ****         size_t blocksize;
  31:../../../libDaisy/src/hid/audio.h **** 
  32:../../../libDaisy/src/hid/audio.h ****         /**< Sample rate of audio */
  33:../../../libDaisy/src/hid/audio.h ****         SaiHandle::Config::SampleRate samplerate;
  34:../../../libDaisy/src/hid/audio.h **** 
  35:../../../libDaisy/src/hid/audio.h ****         /** factor for adjustment before and after callback for hardware that may have extra headro
  36:../../../libDaisy/src/hid/audio.h ****         float postgain;
  37:../../../libDaisy/src/hid/audio.h **** 
  38:../../../libDaisy/src/hid/audio.h ****         /** factor for additional one-sided compensation to audio path for hardware that may
  39:../../../libDaisy/src/hid/audio.h ****          *  have unequal input/output ranges
  40:../../../libDaisy/src/hid/audio.h ****          */
  41:../../../libDaisy/src/hid/audio.h ****         float output_compensation;
  42:../../../libDaisy/src/hid/audio.h **** 
  43:../../../libDaisy/src/hid/audio.h ****         /** Sets default values for config struct */
  44:../../../libDaisy/src/hid/audio.h ****         Config()
  45:../../../libDaisy/src/hid/audio.h ****         : blocksize(48),
  46:../../../libDaisy/src/hid/audio.h ****           samplerate(SaiHandle::Config::SampleRate::SAI_48KHZ),
  47:../../../libDaisy/src/hid/audio.h ****           postgain(1.f),
  48:../../../libDaisy/src/hid/audio.h ****           output_compensation(1.f)
  49:../../../libDaisy/src/hid/audio.h ****         {
  50:../../../libDaisy/src/hid/audio.h ****         }
  51:../../../libDaisy/src/hid/audio.h ****     };
  52:../../../libDaisy/src/hid/audio.h **** 
  53:../../../libDaisy/src/hid/audio.h ****     enum class Result
  54:../../../libDaisy/src/hid/audio.h ****     {
  55:../../../libDaisy/src/hid/audio.h ****         OK,
  56:../../../libDaisy/src/hid/audio.h ****         ERR,
  57:../../../libDaisy/src/hid/audio.h ****     };
  58:../../../libDaisy/src/hid/audio.h **** 
  59:../../../libDaisy/src/hid/audio.h ****     /** Non-Interleaving input buffer
  60:../../../libDaisy/src/hid/audio.h ****      * Buffer arranged by float[chn][sample] 
  61:../../../libDaisy/src/hid/audio.h ****      * const so that the user can't modify the input
ARM GAS  C:\Users\toesc\AppData\Local\Temp\ccZujPQb.s 			page 11


  62:../../../libDaisy/src/hid/audio.h ****      */
  63:../../../libDaisy/src/hid/audio.h ****     typedef const float* const* InputBuffer;
  64:../../../libDaisy/src/hid/audio.h **** 
  65:../../../libDaisy/src/hid/audio.h ****     /** Non-Interleaving output buffer
  66:../../../libDaisy/src/hid/audio.h ****      * Arranged by float[chn][sample] 
  67:../../../libDaisy/src/hid/audio.h ****      */
  68:../../../libDaisy/src/hid/audio.h ****     typedef float** OutputBuffer;
  69:../../../libDaisy/src/hid/audio.h **** 
  70:../../../libDaisy/src/hid/audio.h ****     /** Type for a Non-Interleaving audio callback 
  71:../../../libDaisy/src/hid/audio.h ****      * Non-Interleaving audio callbacks in daisy will be of this type
  72:../../../libDaisy/src/hid/audio.h ****      */
  73:../../../libDaisy/src/hid/audio.h ****     typedef void (*AudioCallback)(InputBuffer  in,
  74:../../../libDaisy/src/hid/audio.h ****                                   OutputBuffer out,
  75:../../../libDaisy/src/hid/audio.h ****                                   size_t       size);
  76:../../../libDaisy/src/hid/audio.h **** 
  77:../../../libDaisy/src/hid/audio.h ****     /** Interleaving Input buffer
  78:../../../libDaisy/src/hid/audio.h ****      ** audio is prepared as { L0, R0, L1, R1, . . . LN, RN }]
  79:../../../libDaisy/src/hid/audio.h ****      ** this is const, as the user shouldn't modify it
  80:../../../libDaisy/src/hid/audio.h ****     */
  81:../../../libDaisy/src/hid/audio.h ****     typedef const float* InterleavingInputBuffer;
  82:../../../libDaisy/src/hid/audio.h **** 
  83:../../../libDaisy/src/hid/audio.h ****     /** Interleaving Output buffer 
  84:../../../libDaisy/src/hid/audio.h ****      ** audio is prepared as { L0, R0, L1, R1, . . . LN, RN }
  85:../../../libDaisy/src/hid/audio.h ****     */
  86:../../../libDaisy/src/hid/audio.h ****     typedef float* InterleavingOutputBuffer;
  87:../../../libDaisy/src/hid/audio.h **** 
  88:../../../libDaisy/src/hid/audio.h ****     /** Interleaving Audio Callback 
  89:../../../libDaisy/src/hid/audio.h ****      * Interleaving audio callbacks in daisy must be of this type
  90:../../../libDaisy/src/hid/audio.h ****      */
  91:../../../libDaisy/src/hid/audio.h ****     typedef void (*InterleavingAudioCallback)(InterleavingInputBuffer  in,
  92:../../../libDaisy/src/hid/audio.h ****                                               InterleavingOutputBuffer out,
  93:../../../libDaisy/src/hid/audio.h ****                                               size_t                   size);
  94:../../../libDaisy/src/hid/audio.h **** 
  95:../../../libDaisy/src/hid/audio.h ****     AudioHandle() : pimpl_(nullptr) {}
  96:../../../libDaisy/src/hid/audio.h ****     ~AudioHandle() {}
 131              		.loc 8 96 5 is_stmt 1 view .LVU13
 132              		.loc 8 96 5 is_stmt 0 view .LVU14
 133              	.LBE1230:
 134              		.loc 4 22 19 view .LVU15
 135 0000 7047     		bx	lr
 136              		.cfi_endproc
 137              	.LFE4774:
 139              		.weak	_ZN5daisy9DaisySeedD1Ev
 140              		.thumb_set _ZN5daisy9DaisySeedD1Ev,_ZN5daisy9DaisySeedD2Ev
 141 0002 00BF     		.section	.text._ZN5daisy11OledDisplayINS_13SSD130xDriverILj128ELj32ENS_19SSD130xI2CTransportEEEE4F
 142              		.align	1
 143              		.p2align 2,,3
 144              		.weak	_ZN5daisy11OledDisplayINS_13SSD130xDriverILj128ELj32ENS_19SSD130xI2CTransportEEEE4FillEb
 145              		.syntax unified
 146              		.thumb
 147              		.thumb_func
 148              		.fpu fpv5-d16
 150              	_ZN5daisy11OledDisplayINS_13SSD130xDriverILj128ELj32ENS_19SSD130xI2CTransportEEEE4FillEb:
 151              	.LVL4:
 152              	.LFB5136:
 153              		.file 9 "../../../libDaisy/src/hid/disp/oled_display.h"
   1:../../../libDaisy/src/hid/disp/oled_display.h **** #pragma once
ARM GAS  C:\Users\toesc\AppData\Local\Temp\ccZujPQb.s 			page 12


   2:../../../libDaisy/src/hid/disp/oled_display.h **** #ifndef DSY_OLED_DISPLAY_H
   3:../../../libDaisy/src/hid/disp/oled_display.h **** #define DSY_OLED_DISPLAY_H /**< Macro */
   4:../../../libDaisy/src/hid/disp/oled_display.h **** 
   5:../../../libDaisy/src/hid/disp/oled_display.h **** #include "display.h"
   6:../../../libDaisy/src/hid/disp/oled_display.h **** 
   7:../../../libDaisy/src/hid/disp/oled_display.h **** namespace daisy
   8:../../../libDaisy/src/hid/disp/oled_display.h **** {
   9:../../../libDaisy/src/hid/disp/oled_display.h **** /** 
  10:../../../libDaisy/src/hid/disp/oled_display.h ****  * This class is for drawing to a monochrome OLED display. 
  11:../../../libDaisy/src/hid/disp/oled_display.h ****  * @ingroup device
  12:../../../libDaisy/src/hid/disp/oled_display.h **** */
  13:../../../libDaisy/src/hid/disp/oled_display.h **** template <typename DisplayDriver>
  14:../../../libDaisy/src/hid/disp/oled_display.h **** class OledDisplay : public OneBitGraphicsDisplayImpl<OledDisplay<DisplayDriver>>
  15:../../../libDaisy/src/hid/disp/oled_display.h **** {
  16:../../../libDaisy/src/hid/disp/oled_display.h ****   public:
  17:../../../libDaisy/src/hid/disp/oled_display.h ****     OledDisplay() {}
  18:../../../libDaisy/src/hid/disp/oled_display.h ****     virtual ~OledDisplay() {}
  19:../../../libDaisy/src/hid/disp/oled_display.h **** 
  20:../../../libDaisy/src/hid/disp/oled_display.h ****     struct Config
  21:../../../libDaisy/src/hid/disp/oled_display.h ****     {
  22:../../../libDaisy/src/hid/disp/oled_display.h ****         typename DisplayDriver::Config driver_config;
  23:../../../libDaisy/src/hid/disp/oled_display.h ****     };
  24:../../../libDaisy/src/hid/disp/oled_display.h **** 
  25:../../../libDaisy/src/hid/disp/oled_display.h ****     void Init(Config config) { driver_.Init(config.driver_config); }
  26:../../../libDaisy/src/hid/disp/oled_display.h **** 
  27:../../../libDaisy/src/hid/disp/oled_display.h ****     uint16_t Height() const override { return driver_.Height(); }
  28:../../../libDaisy/src/hid/disp/oled_display.h ****     uint16_t Width() const override { return driver_.Width(); }
  29:../../../libDaisy/src/hid/disp/oled_display.h **** 
  30:../../../libDaisy/src/hid/disp/oled_display.h ****     /** 
  31:../../../libDaisy/src/hid/disp/oled_display.h ****     Fills the entire display with either on/off.
  32:../../../libDaisy/src/hid/disp/oled_display.h ****     \param on Sets on or off.
  33:../../../libDaisy/src/hid/disp/oled_display.h ****     */
  34:../../../libDaisy/src/hid/disp/oled_display.h ****     void Fill(bool on) override { driver_.Fill(on); }
 154              		.loc 9 34 10 is_stmt 1 view -0
 155              		.cfi_startproc
 156              		@ args = 0, pretend = 0, frame = 0
 157              		@ frame_needed = 0, uses_anonymous_args = 0
 158              		@ link register save eliminated.
 159              	.LBB1231:
 160              	.LBI1231:
 161              		.file 10 "../../../libDaisy/src/dev/oled_ssd130x.h"
   1:../../../libDaisy/src/dev/oled_ssd130x.h **** #pragma once
   2:../../../libDaisy/src/dev/oled_ssd130x.h **** #ifndef SA_OLED_SSD130X_H
   3:../../../libDaisy/src/dev/oled_ssd130x.h **** #define SA_OLED_SSD130X_H /**< & */
   4:../../../libDaisy/src/dev/oled_ssd130x.h **** 
   5:../../../libDaisy/src/dev/oled_ssd130x.h **** #include "per/i2c.h"
   6:../../../libDaisy/src/dev/oled_ssd130x.h **** #include "per/spi.h"
   7:../../../libDaisy/src/dev/oled_ssd130x.h **** #include "per/gpio.h"
   8:../../../libDaisy/src/dev/oled_ssd130x.h **** #include "sys/system.h"
   9:../../../libDaisy/src/dev/oled_ssd130x.h **** 
  10:../../../libDaisy/src/dev/oled_ssd130x.h **** namespace daisy
  11:../../../libDaisy/src/dev/oled_ssd130x.h **** {
  12:../../../libDaisy/src/dev/oled_ssd130x.h **** /**
  13:../../../libDaisy/src/dev/oled_ssd130x.h ****  * I2C Transport for SSD1306 / SSD1309 OLED display devices
  14:../../../libDaisy/src/dev/oled_ssd130x.h ****  */
  15:../../../libDaisy/src/dev/oled_ssd130x.h **** class SSD130xI2CTransport
  16:../../../libDaisy/src/dev/oled_ssd130x.h **** {
ARM GAS  C:\Users\toesc\AppData\Local\Temp\ccZujPQb.s 			page 13


  17:../../../libDaisy/src/dev/oled_ssd130x.h ****   public:
  18:../../../libDaisy/src/dev/oled_ssd130x.h ****     struct Config
  19:../../../libDaisy/src/dev/oled_ssd130x.h ****     {
  20:../../../libDaisy/src/dev/oled_ssd130x.h ****         Config()
  21:../../../libDaisy/src/dev/oled_ssd130x.h ****         {
  22:../../../libDaisy/src/dev/oled_ssd130x.h ****             // Intialize using defaults
  23:../../../libDaisy/src/dev/oled_ssd130x.h ****             Defaults();
  24:../../../libDaisy/src/dev/oled_ssd130x.h ****         }
  25:../../../libDaisy/src/dev/oled_ssd130x.h ****         I2CHandle::Config i2c_config;
  26:../../../libDaisy/src/dev/oled_ssd130x.h ****         uint8_t           i2c_address;
  27:../../../libDaisy/src/dev/oled_ssd130x.h ****         void              Defaults()
  28:../../../libDaisy/src/dev/oled_ssd130x.h ****         {
  29:../../../libDaisy/src/dev/oled_ssd130x.h ****             i2c_config.periph         = I2CHandle::Config::Peripheral::I2C_1;
  30:../../../libDaisy/src/dev/oled_ssd130x.h ****             i2c_config.speed          = I2CHandle::Config::Speed::I2C_1MHZ;
  31:../../../libDaisy/src/dev/oled_ssd130x.h ****             i2c_config.mode           = I2CHandle::Config::Mode::I2C_MASTER;
  32:../../../libDaisy/src/dev/oled_ssd130x.h ****             i2c_config.pin_config.scl = {DSY_GPIOB, 8};
  33:../../../libDaisy/src/dev/oled_ssd130x.h ****             i2c_config.pin_config.sda = {DSY_GPIOB, 9};
  34:../../../libDaisy/src/dev/oled_ssd130x.h ****             i2c_address               = 0x3C;
  35:../../../libDaisy/src/dev/oled_ssd130x.h ****         }
  36:../../../libDaisy/src/dev/oled_ssd130x.h ****     };
  37:../../../libDaisy/src/dev/oled_ssd130x.h ****     void Init(const Config& config)
  38:../../../libDaisy/src/dev/oled_ssd130x.h ****     {
  39:../../../libDaisy/src/dev/oled_ssd130x.h ****         i2c_address_ = config.i2c_address;
  40:../../../libDaisy/src/dev/oled_ssd130x.h ****         i2c_.Init(config.i2c_config);
  41:../../../libDaisy/src/dev/oled_ssd130x.h ****     };
  42:../../../libDaisy/src/dev/oled_ssd130x.h ****     void SendCommand(uint8_t cmd)
  43:../../../libDaisy/src/dev/oled_ssd130x.h ****     {
  44:../../../libDaisy/src/dev/oled_ssd130x.h ****         uint8_t buf[2] = {0X00, cmd};
  45:../../../libDaisy/src/dev/oled_ssd130x.h ****         i2c_.TransmitBlocking(i2c_address_, buf, 2, 1000);
  46:../../../libDaisy/src/dev/oled_ssd130x.h ****     };
  47:../../../libDaisy/src/dev/oled_ssd130x.h **** 
  48:../../../libDaisy/src/dev/oled_ssd130x.h ****     void SendData(uint8_t* buff, size_t size)
  49:../../../libDaisy/src/dev/oled_ssd130x.h ****     {
  50:../../../libDaisy/src/dev/oled_ssd130x.h ****         for(size_t i = 0; i < size; i++)
  51:../../../libDaisy/src/dev/oled_ssd130x.h ****         {
  52:../../../libDaisy/src/dev/oled_ssd130x.h ****             uint8_t buf[2] = {0X40, buff[i]};
  53:../../../libDaisy/src/dev/oled_ssd130x.h ****             i2c_.TransmitBlocking(i2c_address_, buf, 2, 1000);
  54:../../../libDaisy/src/dev/oled_ssd130x.h ****         }
  55:../../../libDaisy/src/dev/oled_ssd130x.h ****     };
  56:../../../libDaisy/src/dev/oled_ssd130x.h **** 
  57:../../../libDaisy/src/dev/oled_ssd130x.h ****   private:
  58:../../../libDaisy/src/dev/oled_ssd130x.h ****     daisy::I2CHandle i2c_;
  59:../../../libDaisy/src/dev/oled_ssd130x.h ****     uint8_t          i2c_address_;
  60:../../../libDaisy/src/dev/oled_ssd130x.h **** };
  61:../../../libDaisy/src/dev/oled_ssd130x.h **** 
  62:../../../libDaisy/src/dev/oled_ssd130x.h **** /**
  63:../../../libDaisy/src/dev/oled_ssd130x.h ****  * 4 Wire SPI Transport for SSD1306 / SSD1309 OLED display devices
  64:../../../libDaisy/src/dev/oled_ssd130x.h ****  */
  65:../../../libDaisy/src/dev/oled_ssd130x.h **** class SSD130x4WireSpiTransport
  66:../../../libDaisy/src/dev/oled_ssd130x.h **** {
  67:../../../libDaisy/src/dev/oled_ssd130x.h ****   public:
  68:../../../libDaisy/src/dev/oled_ssd130x.h ****     struct Config
  69:../../../libDaisy/src/dev/oled_ssd130x.h ****     {
  70:../../../libDaisy/src/dev/oled_ssd130x.h ****         Config()
  71:../../../libDaisy/src/dev/oled_ssd130x.h ****         {
  72:../../../libDaisy/src/dev/oled_ssd130x.h ****             // Initialize using defaults
  73:../../../libDaisy/src/dev/oled_ssd130x.h ****             Defaults();
ARM GAS  C:\Users\toesc\AppData\Local\Temp\ccZujPQb.s 			page 14


  74:../../../libDaisy/src/dev/oled_ssd130x.h ****         }
  75:../../../libDaisy/src/dev/oled_ssd130x.h ****         SpiHandle::Config spi_config;
  76:../../../libDaisy/src/dev/oled_ssd130x.h ****         struct
  77:../../../libDaisy/src/dev/oled_ssd130x.h ****         {
  78:../../../libDaisy/src/dev/oled_ssd130x.h ****             dsy_gpio_pin dc;    /**< & */
  79:../../../libDaisy/src/dev/oled_ssd130x.h ****             dsy_gpio_pin reset; /**< & */
  80:../../../libDaisy/src/dev/oled_ssd130x.h ****         } pin_config;
  81:../../../libDaisy/src/dev/oled_ssd130x.h ****         void Defaults()
  82:../../../libDaisy/src/dev/oled_ssd130x.h ****         {
  83:../../../libDaisy/src/dev/oled_ssd130x.h ****             // SPI peripheral config
  84:../../../libDaisy/src/dev/oled_ssd130x.h ****             spi_config.periph = SpiHandle::Config::Peripheral::SPI_1;
  85:../../../libDaisy/src/dev/oled_ssd130x.h ****             spi_config.mode   = SpiHandle::Config::Mode::MASTER;
  86:../../../libDaisy/src/dev/oled_ssd130x.h ****             spi_config.direction
  87:../../../libDaisy/src/dev/oled_ssd130x.h ****                 = SpiHandle::Config::Direction::TWO_LINES_TX_ONLY;
  88:../../../libDaisy/src/dev/oled_ssd130x.h ****             spi_config.datasize       = 8;
  89:../../../libDaisy/src/dev/oled_ssd130x.h ****             spi_config.clock_polarity = SpiHandle::Config::ClockPolarity::LOW;
  90:../../../libDaisy/src/dev/oled_ssd130x.h ****             spi_config.clock_phase    = SpiHandle::Config::ClockPhase::ONE_EDGE;
  91:../../../libDaisy/src/dev/oled_ssd130x.h ****             spi_config.nss            = SpiHandle::Config::NSS::HARD_OUTPUT;
  92:../../../libDaisy/src/dev/oled_ssd130x.h ****             spi_config.baud_prescaler = SpiHandle::Config::BaudPrescaler::PS_8;
  93:../../../libDaisy/src/dev/oled_ssd130x.h ****             // SPI pin config
  94:../../../libDaisy/src/dev/oled_ssd130x.h ****             spi_config.pin_config.sclk = {DSY_GPIOG, 11};
  95:../../../libDaisy/src/dev/oled_ssd130x.h ****             spi_config.pin_config.miso = {DSY_GPIOX, 0};
  96:../../../libDaisy/src/dev/oled_ssd130x.h ****             spi_config.pin_config.mosi = {DSY_GPIOB, 5};
  97:../../../libDaisy/src/dev/oled_ssd130x.h ****             spi_config.pin_config.nss  = {DSY_GPIOG, 10};
  98:../../../libDaisy/src/dev/oled_ssd130x.h ****             // SSD130x control pin config
  99:../../../libDaisy/src/dev/oled_ssd130x.h ****             pin_config.dc    = {DSY_GPIOB, 4};
 100:../../../libDaisy/src/dev/oled_ssd130x.h ****             pin_config.reset = {DSY_GPIOB, 15};
 101:../../../libDaisy/src/dev/oled_ssd130x.h ****         }
 102:../../../libDaisy/src/dev/oled_ssd130x.h ****     };
 103:../../../libDaisy/src/dev/oled_ssd130x.h ****     void Init(const Config& config)
 104:../../../libDaisy/src/dev/oled_ssd130x.h ****     {
 105:../../../libDaisy/src/dev/oled_ssd130x.h ****         // Initialize both GPIO
 106:../../../libDaisy/src/dev/oled_ssd130x.h ****         pin_dc_.mode = DSY_GPIO_MODE_OUTPUT_PP;
 107:../../../libDaisy/src/dev/oled_ssd130x.h ****         pin_dc_.pin  = config.pin_config.dc;
 108:../../../libDaisy/src/dev/oled_ssd130x.h ****         dsy_gpio_init(&pin_dc_);
 109:../../../libDaisy/src/dev/oled_ssd130x.h ****         pin_reset_.mode = DSY_GPIO_MODE_OUTPUT_PP;
 110:../../../libDaisy/src/dev/oled_ssd130x.h ****         pin_reset_.pin  = config.pin_config.reset;
 111:../../../libDaisy/src/dev/oled_ssd130x.h ****         dsy_gpio_init(&pin_reset_);
 112:../../../libDaisy/src/dev/oled_ssd130x.h **** 
 113:../../../libDaisy/src/dev/oled_ssd130x.h ****         // Initialize SPI
 114:../../../libDaisy/src/dev/oled_ssd130x.h ****         spi_.Init(config.spi_config);
 115:../../../libDaisy/src/dev/oled_ssd130x.h **** 
 116:../../../libDaisy/src/dev/oled_ssd130x.h ****         // Reset and Configure OLED.
 117:../../../libDaisy/src/dev/oled_ssd130x.h ****         dsy_gpio_write(&pin_reset_, 0);
 118:../../../libDaisy/src/dev/oled_ssd130x.h ****         System::Delay(10);
 119:../../../libDaisy/src/dev/oled_ssd130x.h ****         dsy_gpio_write(&pin_reset_, 1);
 120:../../../libDaisy/src/dev/oled_ssd130x.h ****         System::Delay(10);
 121:../../../libDaisy/src/dev/oled_ssd130x.h ****     };
 122:../../../libDaisy/src/dev/oled_ssd130x.h ****     void SendCommand(uint8_t cmd)
 123:../../../libDaisy/src/dev/oled_ssd130x.h ****     {
 124:../../../libDaisy/src/dev/oled_ssd130x.h ****         dsy_gpio_write(&pin_dc_, 0);
 125:../../../libDaisy/src/dev/oled_ssd130x.h ****         spi_.BlockingTransmit(&cmd, 1);
 126:../../../libDaisy/src/dev/oled_ssd130x.h ****     };
 127:../../../libDaisy/src/dev/oled_ssd130x.h **** 
 128:../../../libDaisy/src/dev/oled_ssd130x.h ****     void SendData(uint8_t* buff, size_t size)
 129:../../../libDaisy/src/dev/oled_ssd130x.h ****     {
 130:../../../libDaisy/src/dev/oled_ssd130x.h ****         dsy_gpio_write(&pin_dc_, 1);
ARM GAS  C:\Users\toesc\AppData\Local\Temp\ccZujPQb.s 			page 15


 131:../../../libDaisy/src/dev/oled_ssd130x.h ****         spi_.BlockingTransmit(buff, size);
 132:../../../libDaisy/src/dev/oled_ssd130x.h ****     };
 133:../../../libDaisy/src/dev/oled_ssd130x.h **** 
 134:../../../libDaisy/src/dev/oled_ssd130x.h ****   private:
 135:../../../libDaisy/src/dev/oled_ssd130x.h ****     SpiHandle spi_;
 136:../../../libDaisy/src/dev/oled_ssd130x.h ****     dsy_gpio  pin_reset_;
 137:../../../libDaisy/src/dev/oled_ssd130x.h ****     dsy_gpio  pin_dc_;
 138:../../../libDaisy/src/dev/oled_ssd130x.h **** };
 139:../../../libDaisy/src/dev/oled_ssd130x.h **** 
 140:../../../libDaisy/src/dev/oled_ssd130x.h **** 
 141:../../../libDaisy/src/dev/oled_ssd130x.h **** /**
 142:../../../libDaisy/src/dev/oled_ssd130x.h ****  * A driver implementation for the SSD1306/SSD1309
 143:../../../libDaisy/src/dev/oled_ssd130x.h ****  */
 144:../../../libDaisy/src/dev/oled_ssd130x.h **** template <size_t width, size_t height, typename Transport>
 145:../../../libDaisy/src/dev/oled_ssd130x.h **** class SSD130xDriver
 146:../../../libDaisy/src/dev/oled_ssd130x.h **** {
 147:../../../libDaisy/src/dev/oled_ssd130x.h ****   public:
 148:../../../libDaisy/src/dev/oled_ssd130x.h ****     struct Config
 149:../../../libDaisy/src/dev/oled_ssd130x.h ****     {
 150:../../../libDaisy/src/dev/oled_ssd130x.h ****         typename Transport::Config transport_config;
 151:../../../libDaisy/src/dev/oled_ssd130x.h ****     };
 152:../../../libDaisy/src/dev/oled_ssd130x.h **** 
 153:../../../libDaisy/src/dev/oled_ssd130x.h ****     void Init(Config config)
 154:../../../libDaisy/src/dev/oled_ssd130x.h ****     {
 155:../../../libDaisy/src/dev/oled_ssd130x.h ****         transport_.Init(config.transport_config);
 156:../../../libDaisy/src/dev/oled_ssd130x.h **** 
 157:../../../libDaisy/src/dev/oled_ssd130x.h ****         // Init routine...
 158:../../../libDaisy/src/dev/oled_ssd130x.h **** 
 159:../../../libDaisy/src/dev/oled_ssd130x.h ****         // Display Off
 160:../../../libDaisy/src/dev/oled_ssd130x.h ****         transport_.SendCommand(0xaE);
 161:../../../libDaisy/src/dev/oled_ssd130x.h ****         // Dimension dependent commands...
 162:../../../libDaisy/src/dev/oled_ssd130x.h ****         switch(height)
 163:../../../libDaisy/src/dev/oled_ssd130x.h ****         {
 164:../../../libDaisy/src/dev/oled_ssd130x.h ****             case 16:
 165:../../../libDaisy/src/dev/oled_ssd130x.h ****                 // Display Clock Divide Ratio
 166:../../../libDaisy/src/dev/oled_ssd130x.h ****                 transport_.SendCommand(0xD5);
 167:../../../libDaisy/src/dev/oled_ssd130x.h ****                 transport_.SendCommand(0x60);
 168:../../../libDaisy/src/dev/oled_ssd130x.h ****                 // Multiplex Ratio
 169:../../../libDaisy/src/dev/oled_ssd130x.h ****                 transport_.SendCommand(0xA8);
 170:../../../libDaisy/src/dev/oled_ssd130x.h ****                 transport_.SendCommand(0x0F);
 171:../../../libDaisy/src/dev/oled_ssd130x.h ****                 // COM Pins
 172:../../../libDaisy/src/dev/oled_ssd130x.h ****                 transport_.SendCommand(0xDA);
 173:../../../libDaisy/src/dev/oled_ssd130x.h ****                 transport_.SendCommand(0x02);
 174:../../../libDaisy/src/dev/oled_ssd130x.h ****                 break;
 175:../../../libDaisy/src/dev/oled_ssd130x.h ****             case 32:
 176:../../../libDaisy/src/dev/oled_ssd130x.h ****                 // Display Clock Divide Ratio
 177:../../../libDaisy/src/dev/oled_ssd130x.h ****                 transport_.SendCommand(0xD5);
 178:../../../libDaisy/src/dev/oled_ssd130x.h ****                 transport_.SendCommand(0x80);
 179:../../../libDaisy/src/dev/oled_ssd130x.h ****                 // Multiplex Ratio
 180:../../../libDaisy/src/dev/oled_ssd130x.h ****                 transport_.SendCommand(0xA8);
 181:../../../libDaisy/src/dev/oled_ssd130x.h ****                 transport_.SendCommand(0x1F);
 182:../../../libDaisy/src/dev/oled_ssd130x.h ****                 // COM Pins
 183:../../../libDaisy/src/dev/oled_ssd130x.h ****                 transport_.SendCommand(0xDA);
 184:../../../libDaisy/src/dev/oled_ssd130x.h ****                 if(width == 64)
 185:../../../libDaisy/src/dev/oled_ssd130x.h ****                 {
 186:../../../libDaisy/src/dev/oled_ssd130x.h ****                     transport_.SendCommand(0x12);
 187:../../../libDaisy/src/dev/oled_ssd130x.h ****                 }
ARM GAS  C:\Users\toesc\AppData\Local\Temp\ccZujPQb.s 			page 16


 188:../../../libDaisy/src/dev/oled_ssd130x.h ****                 else
 189:../../../libDaisy/src/dev/oled_ssd130x.h ****                 {
 190:../../../libDaisy/src/dev/oled_ssd130x.h ****                     transport_.SendCommand(0x02);
 191:../../../libDaisy/src/dev/oled_ssd130x.h ****                 }
 192:../../../libDaisy/src/dev/oled_ssd130x.h **** 
 193:../../../libDaisy/src/dev/oled_ssd130x.h ****                 break;
 194:../../../libDaisy/src/dev/oled_ssd130x.h ****             case 48:
 195:../../../libDaisy/src/dev/oled_ssd130x.h ****                 // Display Clock Divide Ratio
 196:../../../libDaisy/src/dev/oled_ssd130x.h ****                 transport_.SendCommand(0xD5);
 197:../../../libDaisy/src/dev/oled_ssd130x.h ****                 transport_.SendCommand(0x80);
 198:../../../libDaisy/src/dev/oled_ssd130x.h ****                 // Multiplex Ratio
 199:../../../libDaisy/src/dev/oled_ssd130x.h ****                 transport_.SendCommand(0xA8);
 200:../../../libDaisy/src/dev/oled_ssd130x.h ****                 transport_.SendCommand(0x2F);
 201:../../../libDaisy/src/dev/oled_ssd130x.h ****                 // COM Pins
 202:../../../libDaisy/src/dev/oled_ssd130x.h ****                 transport_.SendCommand(0xDA);
 203:../../../libDaisy/src/dev/oled_ssd130x.h ****                 transport_.SendCommand(0x12);
 204:../../../libDaisy/src/dev/oled_ssd130x.h ****                 break;
 205:../../../libDaisy/src/dev/oled_ssd130x.h ****             default: // 128
 206:../../../libDaisy/src/dev/oled_ssd130x.h ****                 // Display Clock Divide Ratio
 207:../../../libDaisy/src/dev/oled_ssd130x.h ****                 transport_.SendCommand(0xD5);
 208:../../../libDaisy/src/dev/oled_ssd130x.h ****                 transport_.SendCommand(0x80);
 209:../../../libDaisy/src/dev/oled_ssd130x.h ****                 // Multiplex Ratio
 210:../../../libDaisy/src/dev/oled_ssd130x.h ****                 transport_.SendCommand(0xA8);
 211:../../../libDaisy/src/dev/oled_ssd130x.h ****                 transport_.SendCommand(0x3F);
 212:../../../libDaisy/src/dev/oled_ssd130x.h ****                 // COM Pins
 213:../../../libDaisy/src/dev/oled_ssd130x.h ****                 transport_.SendCommand(0xDA);
 214:../../../libDaisy/src/dev/oled_ssd130x.h ****                 transport_.SendCommand(0x12);
 215:../../../libDaisy/src/dev/oled_ssd130x.h ****                 break;
 216:../../../libDaisy/src/dev/oled_ssd130x.h ****         }
 217:../../../libDaisy/src/dev/oled_ssd130x.h **** 
 218:../../../libDaisy/src/dev/oled_ssd130x.h ****         // Display Offset
 219:../../../libDaisy/src/dev/oled_ssd130x.h ****         transport_.SendCommand(0xD3);
 220:../../../libDaisy/src/dev/oled_ssd130x.h ****         transport_.SendCommand(0x00);
 221:../../../libDaisy/src/dev/oled_ssd130x.h ****         // Start Line Address
 222:../../../libDaisy/src/dev/oled_ssd130x.h ****         transport_.SendCommand(0x40);
 223:../../../libDaisy/src/dev/oled_ssd130x.h ****         // Normal Display
 224:../../../libDaisy/src/dev/oled_ssd130x.h ****         transport_.SendCommand(0xA6);
 225:../../../libDaisy/src/dev/oled_ssd130x.h ****         // All On Resume
 226:../../../libDaisy/src/dev/oled_ssd130x.h ****         transport_.SendCommand(0xA4);
 227:../../../libDaisy/src/dev/oled_ssd130x.h ****         // Charge Pump
 228:../../../libDaisy/src/dev/oled_ssd130x.h ****         transport_.SendCommand(0x8D);
 229:../../../libDaisy/src/dev/oled_ssd130x.h ****         transport_.SendCommand(0x14);
 230:../../../libDaisy/src/dev/oled_ssd130x.h ****         // Set Segment Remap
 231:../../../libDaisy/src/dev/oled_ssd130x.h ****         transport_.SendCommand(0xA1);
 232:../../../libDaisy/src/dev/oled_ssd130x.h ****         // COM Output Scan Direction
 233:../../../libDaisy/src/dev/oled_ssd130x.h ****         transport_.SendCommand(0xC8);
 234:../../../libDaisy/src/dev/oled_ssd130x.h ****         // Contrast Control
 235:../../../libDaisy/src/dev/oled_ssd130x.h ****         transport_.SendCommand(0x81);
 236:../../../libDaisy/src/dev/oled_ssd130x.h ****         transport_.SendCommand(0x8F);
 237:../../../libDaisy/src/dev/oled_ssd130x.h ****         // Pre Charge
 238:../../../libDaisy/src/dev/oled_ssd130x.h ****         transport_.SendCommand(0xD9);
 239:../../../libDaisy/src/dev/oled_ssd130x.h ****         transport_.SendCommand(0x25);
 240:../../../libDaisy/src/dev/oled_ssd130x.h ****         // VCOM Detect
 241:../../../libDaisy/src/dev/oled_ssd130x.h ****         transport_.SendCommand(0xDB);
 242:../../../libDaisy/src/dev/oled_ssd130x.h ****         transport_.SendCommand(0x34);
 243:../../../libDaisy/src/dev/oled_ssd130x.h **** 
 244:../../../libDaisy/src/dev/oled_ssd130x.h **** 
ARM GAS  C:\Users\toesc\AppData\Local\Temp\ccZujPQb.s 			page 17


 245:../../../libDaisy/src/dev/oled_ssd130x.h ****         // Display On
 246:../../../libDaisy/src/dev/oled_ssd130x.h ****         transport_.SendCommand(0xAF); //--turn on oled panel
 247:../../../libDaisy/src/dev/oled_ssd130x.h ****     };
 248:../../../libDaisy/src/dev/oled_ssd130x.h **** 
 249:../../../libDaisy/src/dev/oled_ssd130x.h ****     size_t Width() const { return width; };
 250:../../../libDaisy/src/dev/oled_ssd130x.h ****     size_t Height() const { return height; };
 251:../../../libDaisy/src/dev/oled_ssd130x.h **** 
 252:../../../libDaisy/src/dev/oled_ssd130x.h ****     void DrawPixel(uint_fast8_t x, uint_fast8_t y, bool on)
 253:../../../libDaisy/src/dev/oled_ssd130x.h ****     {
 254:../../../libDaisy/src/dev/oled_ssd130x.h ****         if(x >= width || y >= height)
 255:../../../libDaisy/src/dev/oled_ssd130x.h ****             return;
 256:../../../libDaisy/src/dev/oled_ssd130x.h ****         if(on)
 257:../../../libDaisy/src/dev/oled_ssd130x.h ****             buffer_[x + (y / 8) * width] |= (1 << (y % 8));
 258:../../../libDaisy/src/dev/oled_ssd130x.h ****         else
 259:../../../libDaisy/src/dev/oled_ssd130x.h ****             buffer_[x + (y / 8) * width] &= ~(1 << (y % 8));
 260:../../../libDaisy/src/dev/oled_ssd130x.h ****     }
 261:../../../libDaisy/src/dev/oled_ssd130x.h **** 
 262:../../../libDaisy/src/dev/oled_ssd130x.h ****     void Fill(bool on)
 162              		.loc 10 262 10 view .LVU17
 163              	.LBB1232:
 263:../../../libDaisy/src/dev/oled_ssd130x.h ****     {
 264:../../../libDaisy/src/dev/oled_ssd130x.h ****         for(size_t i = 0; i < sizeof(buffer_); i++)
 164              		.loc 10 264 29 view .LVU18
 265:../../../libDaisy/src/dev/oled_ssd130x.h ****         {
 266:../../../libDaisy/src/dev/oled_ssd130x.h ****             buffer_[i] = on ? 0xff : 0x00;
 165              		.loc 10 266 24 is_stmt 0 view .LVU19
 166 0000 4942     		rsbs	r1, r1, #0
 167              	.LVL5:
 168              		.loc 10 266 24 view .LVU20
 169 0002 4FF40072 		mov	r2, #512
 170 0006 1030     		adds	r0, r0, #16
 171              	.LVL6:
 172              		.loc 10 266 24 view .LVU21
 173 0008 C9B2     		uxtb	r1, r1
 174 000a FFF7FEBF 		b	memset
 175              	.LVL7:
 176              		.loc 10 266 24 view .LVU22
 177              	.LBE1232:
 178              	.LBE1231:
 179              		.cfi_endproc
 180              	.LFE5136:
 182 000e 00BF     		.section	.text.__tcf_0,"ax",%progbits
 183              		.align	1
 184              		.p2align 2,,3
 185              		.syntax unified
 186              		.thumb
 187              		.thumb_func
 188              		.fpu fpv5-d16
 190              	__tcf_0:
 191              	.LFB5438:
 192              		.file 11 "dualpolysynth.cpp"
   1:dualpolysynth.cpp **** // adsr envelope example
   2:dualpolysynth.cpp **** 
   3:dualpolysynth.cpp **** #include "daisysp.h"
   4:dualpolysynth.cpp **** #include "daisy_seed.h"
   5:dualpolysynth.cpp **** #include "dev/oled_ssd130x.h"
   6:dualpolysynth.cpp **** 
ARM GAS  C:\Users\toesc\AppData\Local\Temp\ccZujPQb.s 			page 18


   7:dualpolysynth.cpp **** // Shortening long macro for sample rate
   8:dualpolysynth.cpp **** #ifndef sample_rate
   9:dualpolysynth.cpp **** 
  10:dualpolysynth.cpp **** #endif
  11:dualpolysynth.cpp **** 
  12:dualpolysynth.cpp **** // Interleaved audio definitions
  13:dualpolysynth.cpp **** #define LEFT (i)
  14:dualpolysynth.cpp **** #define RIGHT (i + 1)
  15:dualpolysynth.cpp **** 
  16:dualpolysynth.cpp **** 
  17:dualpolysynth.cpp **** using namespace daisysp;
  18:dualpolysynth.cpp **** using namespace daisy;
  19:dualpolysynth.cpp **** using namespace std;
  20:dualpolysynth.cpp **** 
  21:dualpolysynth.cpp **** static MidiUsbHandler midi;
  22:dualpolysynth.cpp **** static DaisySeed  hw;
  23:dualpolysynth.cpp **** Chorus                chorus;
  24:dualpolysynth.cpp **** static Adsr       env[6];
 193              		.loc 11 24 19 is_stmt 1 view -0
 194              		.cfi_startproc
 195              		@ args = 0, pretend = 0, frame = 0
 196              		@ frame_needed = 0, uses_anonymous_args = 0
 197              		@ link register save eliminated.
 198              		.loc 11 24 19 is_stmt 0 view .LVU24
 199 0000 7047     		bx	lr
 200              		.cfi_endproc
 201              	.LFE5438:
 203 0002 00BF     		.section	.text._ZN5daisy11OledDisplayINS_13SSD130xDriverILj128ELj32ENS_19SSD130xI2CTransportEEEED2
 204              		.align	1
 205              		.p2align 2,,3
 206              		.weak	_ZN5daisy11OledDisplayINS_13SSD130xDriverILj128ELj32ENS_19SSD130xI2CTransportEEEED2Ev
 207              		.syntax unified
 208              		.thumb
 209              		.thumb_func
 210              		.fpu fpv5-d16
 212              	_ZN5daisy11OledDisplayINS_13SSD130xDriverILj128ELj32ENS_19SSD130xI2CTransportEEEED2Ev:
 213              	.LVL8:
 214              	.LFB5442:
  18:../../../libDaisy/src/hid/disp/oled_display.h **** 
 215              		.loc 9 18 13 is_stmt 1 view -0
 216              		.cfi_startproc
 217              		@ args = 0, pretend = 0, frame = 0
 218              		@ frame_needed = 0, uses_anonymous_args = 0
 219              		@ link register save eliminated.
 220              	.LBB1234:
 221              	.LBI1234:
 222              		.file 12 "../../../libDaisy/src/hid/disp/display.h"
   1:../../../libDaisy/src/hid/disp/display.h **** #pragma once
   2:../../../libDaisy/src/hid/disp/display.h **** #ifndef DSY_DISPLAY_H
   3:../../../libDaisy/src/hid/disp/display.h **** #define DSY_DISPLAY_H /**< Macro */
   4:../../../libDaisy/src/hid/disp/display.h **** #include <cmath>
   5:../../../libDaisy/src/hid/disp/display.h **** #include "util/oled_fonts.h"
   6:../../../libDaisy/src/hid/disp/display.h **** #include "daisy_core.h"
   7:../../../libDaisy/src/hid/disp/display.h **** #include "graphics_common.h"
   8:../../../libDaisy/src/hid/disp/display.h **** 
   9:../../../libDaisy/src/hid/disp/display.h **** #ifndef deg2rad
  10:../../../libDaisy/src/hid/disp/display.h **** #define deg2rad(deg) ((deg)*3.141592 / 180.0)
ARM GAS  C:\Users\toesc\AppData\Local\Temp\ccZujPQb.s 			page 19


  11:../../../libDaisy/src/hid/disp/display.h **** #endif
  12:../../../libDaisy/src/hid/disp/display.h **** 
  13:../../../libDaisy/src/hid/disp/display.h **** namespace daisy
  14:../../../libDaisy/src/hid/disp/display.h **** {
  15:../../../libDaisy/src/hid/disp/display.h **** /** 
  16:../../../libDaisy/src/hid/disp/display.h ****  * This interface is used as a base class for all types of 1bit-per-pixel
  17:../../../libDaisy/src/hid/disp/display.h ****  * graphics displays.
  18:../../../libDaisy/src/hid/disp/display.h **** */
  19:../../../libDaisy/src/hid/disp/display.h **** class OneBitGraphicsDisplay
  20:../../../libDaisy/src/hid/disp/display.h **** {
  21:../../../libDaisy/src/hid/disp/display.h ****   public:
  22:../../../libDaisy/src/hid/disp/display.h ****     OneBitGraphicsDisplay() {}
  23:../../../libDaisy/src/hid/disp/display.h ****     virtual ~OneBitGraphicsDisplay() {}
  24:../../../libDaisy/src/hid/disp/display.h **** 
  25:../../../libDaisy/src/hid/disp/display.h ****     virtual uint16_t Height() const = 0;
  26:../../../libDaisy/src/hid/disp/display.h ****     virtual uint16_t Width() const  = 0;
  27:../../../libDaisy/src/hid/disp/display.h **** 
  28:../../../libDaisy/src/hid/disp/display.h ****     Rectangle GetBounds() const
  29:../../../libDaisy/src/hid/disp/display.h ****     {
  30:../../../libDaisy/src/hid/disp/display.h ****         return Rectangle(int16_t(Width()), int16_t(Height()));
  31:../../../libDaisy/src/hid/disp/display.h ****     }
  32:../../../libDaisy/src/hid/disp/display.h **** 
  33:../../../libDaisy/src/hid/disp/display.h **** 
  34:../../../libDaisy/src/hid/disp/display.h ****     size_t CurrentX() { return currentX_; };
  35:../../../libDaisy/src/hid/disp/display.h ****     size_t CurrentY() { return currentY_; };
  36:../../../libDaisy/src/hid/disp/display.h **** 
  37:../../../libDaisy/src/hid/disp/display.h ****     /** 
  38:../../../libDaisy/src/hid/disp/display.h ****     Fills the entire display with either on/off.
  39:../../../libDaisy/src/hid/disp/display.h ****     \param on Sets on or off.
  40:../../../libDaisy/src/hid/disp/display.h ****     */
  41:../../../libDaisy/src/hid/disp/display.h ****     virtual void Fill(bool on) = 0;
  42:../../../libDaisy/src/hid/disp/display.h **** 
  43:../../../libDaisy/src/hid/disp/display.h ****     /**
  44:../../../libDaisy/src/hid/disp/display.h ****     Sets the pixel at the specified coordinate to be on/off.
  45:../../../libDaisy/src/hid/disp/display.h ****     \param x   x Coordinate
  46:../../../libDaisy/src/hid/disp/display.h ****     \param y   y coordinate
  47:../../../libDaisy/src/hid/disp/display.h ****     \param on  on or off
  48:../../../libDaisy/src/hid/disp/display.h ****     */
  49:../../../libDaisy/src/hid/disp/display.h ****     virtual void DrawPixel(uint_fast8_t x, uint_fast8_t y, bool on) = 0;
  50:../../../libDaisy/src/hid/disp/display.h **** 
  51:../../../libDaisy/src/hid/disp/display.h ****     /**
  52:../../../libDaisy/src/hid/disp/display.h ****     Draws a line from (x1, y1) to (y1, y2)
  53:../../../libDaisy/src/hid/disp/display.h ****     \param x1  x Coordinate of the starting point
  54:../../../libDaisy/src/hid/disp/display.h ****     \param y1  y Coordinate of the starting point
  55:../../../libDaisy/src/hid/disp/display.h ****     \param x2  x Coordinate of the ending point
  56:../../../libDaisy/src/hid/disp/display.h ****     \param y2  y Coordinate of the ending point
  57:../../../libDaisy/src/hid/disp/display.h ****     \param on  on or off
  58:../../../libDaisy/src/hid/disp/display.h ****     */
  59:../../../libDaisy/src/hid/disp/display.h ****     virtual void DrawLine(uint_fast8_t x1,
  60:../../../libDaisy/src/hid/disp/display.h ****                           uint_fast8_t y1,
  61:../../../libDaisy/src/hid/disp/display.h ****                           uint_fast8_t x2,
  62:../../../libDaisy/src/hid/disp/display.h ****                           uint_fast8_t y2,
  63:../../../libDaisy/src/hid/disp/display.h ****                           bool         on)
  64:../../../libDaisy/src/hid/disp/display.h ****         = 0;
  65:../../../libDaisy/src/hid/disp/display.h **** 
  66:../../../libDaisy/src/hid/disp/display.h ****     /**
  67:../../../libDaisy/src/hid/disp/display.h ****     Draws a rectangle based on two coordinates.
ARM GAS  C:\Users\toesc\AppData\Local\Temp\ccZujPQb.s 			page 20


  68:../../../libDaisy/src/hid/disp/display.h ****     \param x1 x Coordinate of the first point
  69:../../../libDaisy/src/hid/disp/display.h ****     \param y1 y Coordinate of the first point
  70:../../../libDaisy/src/hid/disp/display.h ****     \param x2 x Coordinate of the second point
  71:../../../libDaisy/src/hid/disp/display.h ****     \param y2 y Coordinate of the second point
  72:../../../libDaisy/src/hid/disp/display.h ****     \param on on or off
  73:../../../libDaisy/src/hid/disp/display.h ****     \param fill fill the rectangle or draw only the outline
  74:../../../libDaisy/src/hid/disp/display.h ****     */
  75:../../../libDaisy/src/hid/disp/display.h ****     virtual void DrawRect(uint_fast8_t x1,
  76:../../../libDaisy/src/hid/disp/display.h ****                           uint_fast8_t y1,
  77:../../../libDaisy/src/hid/disp/display.h ****                           uint_fast8_t x2,
  78:../../../libDaisy/src/hid/disp/display.h ****                           uint_fast8_t y2,
  79:../../../libDaisy/src/hid/disp/display.h ****                           bool         on,
  80:../../../libDaisy/src/hid/disp/display.h ****                           bool         fill = false)
  81:../../../libDaisy/src/hid/disp/display.h ****         = 0;
  82:../../../libDaisy/src/hid/disp/display.h **** 
  83:../../../libDaisy/src/hid/disp/display.h ****     /**
  84:../../../libDaisy/src/hid/disp/display.h ****     Draws a rectangle.
  85:../../../libDaisy/src/hid/disp/display.h ****     \param rect the rectangle
  86:../../../libDaisy/src/hid/disp/display.h ****     \param on   on or off
  87:../../../libDaisy/src/hid/disp/display.h ****     \param fill fill the rectangle or draw only the outline
  88:../../../libDaisy/src/hid/disp/display.h ****     */
  89:../../../libDaisy/src/hid/disp/display.h ****     void DrawRect(const Rectangle& rect, bool on, bool fill = false)
  90:../../../libDaisy/src/hid/disp/display.h ****     {
  91:../../../libDaisy/src/hid/disp/display.h ****         DrawRect(rect.GetX(),
  92:../../../libDaisy/src/hid/disp/display.h ****                  rect.GetY(),
  93:../../../libDaisy/src/hid/disp/display.h ****                  rect.GetRight(),
  94:../../../libDaisy/src/hid/disp/display.h ****                  rect.GetBottom(),
  95:../../../libDaisy/src/hid/disp/display.h ****                  on,
  96:../../../libDaisy/src/hid/disp/display.h ****                  fill);
  97:../../../libDaisy/src/hid/disp/display.h ****     }
  98:../../../libDaisy/src/hid/disp/display.h **** 
  99:../../../libDaisy/src/hid/disp/display.h ****     /**
 100:../../../libDaisy/src/hid/disp/display.h ****     Draws an arc around the specified coordinate
 101:../../../libDaisy/src/hid/disp/display.h ****     \param x           x Coordinate of the center of the arc
 102:../../../libDaisy/src/hid/disp/display.h ****     \param y           y Coordinate of the center of the arc
 103:../../../libDaisy/src/hid/disp/display.h ****     \param radius      radius of the arc
 104:../../../libDaisy/src/hid/disp/display.h ****     \param start_angle angle where to start the arc
 105:../../../libDaisy/src/hid/disp/display.h ****     \param sweep       total angle of the arc
 106:../../../libDaisy/src/hid/disp/display.h ****     \param on  on or off
 107:../../../libDaisy/src/hid/disp/display.h ****     */
 108:../../../libDaisy/src/hid/disp/display.h ****     virtual void DrawArc(uint_fast8_t x,
 109:../../../libDaisy/src/hid/disp/display.h ****                          uint_fast8_t y,
 110:../../../libDaisy/src/hid/disp/display.h ****                          uint_fast8_t radius,
 111:../../../libDaisy/src/hid/disp/display.h ****                          int_fast16_t start_angle,
 112:../../../libDaisy/src/hid/disp/display.h ****                          int_fast16_t sweep,
 113:../../../libDaisy/src/hid/disp/display.h ****                          bool         on)
 114:../../../libDaisy/src/hid/disp/display.h ****         = 0;
 115:../../../libDaisy/src/hid/disp/display.h **** 
 116:../../../libDaisy/src/hid/disp/display.h ****     /**
 117:../../../libDaisy/src/hid/disp/display.h ****     Draws a circle around the specified coordinate
 118:../../../libDaisy/src/hid/disp/display.h ****     \param x           x Coordinate of the center of the circle
 119:../../../libDaisy/src/hid/disp/display.h ****     \param y           y Coordinate of the center of the circle
 120:../../../libDaisy/src/hid/disp/display.h ****     \param radius      radius of the circle
 121:../../../libDaisy/src/hid/disp/display.h ****     \param on  on or off
 122:../../../libDaisy/src/hid/disp/display.h ****     */
 123:../../../libDaisy/src/hid/disp/display.h ****     void
 124:../../../libDaisy/src/hid/disp/display.h ****     DrawCircle(uint_fast8_t x, uint_fast8_t y, uint_fast8_t radius, bool on)
ARM GAS  C:\Users\toesc\AppData\Local\Temp\ccZujPQb.s 			page 21


 125:../../../libDaisy/src/hid/disp/display.h ****     {
 126:../../../libDaisy/src/hid/disp/display.h ****         DrawArc(x, y, radius, 0, 360, on);
 127:../../../libDaisy/src/hid/disp/display.h ****     };
 128:../../../libDaisy/src/hid/disp/display.h **** 
 129:../../../libDaisy/src/hid/disp/display.h ****     /** 
 130:../../../libDaisy/src/hid/disp/display.h ****     Writes the character with the specific FontDef
 131:../../../libDaisy/src/hid/disp/display.h ****     to the display buffer at the current Cursor position.
 132:../../../libDaisy/src/hid/disp/display.h ****     \param ch character to be written
 133:../../../libDaisy/src/hid/disp/display.h ****     \param font font to be written in
 134:../../../libDaisy/src/hid/disp/display.h ****     \param on    on or off
 135:../../../libDaisy/src/hid/disp/display.h ****     \return &
 136:../../../libDaisy/src/hid/disp/display.h ****     */
 137:../../../libDaisy/src/hid/disp/display.h ****     virtual char WriteChar(char ch, FontDef font, bool on) = 0;
 138:../../../libDaisy/src/hid/disp/display.h **** 
 139:../../../libDaisy/src/hid/disp/display.h ****     /** 
 140:../../../libDaisy/src/hid/disp/display.h ****     Similar to WriteChar, except it will handle an entire String.
 141:../../../libDaisy/src/hid/disp/display.h ****     Wrapping does not happen automatically, so the width
 142:../../../libDaisy/src/hid/disp/display.h ****     of the string must be kept within the dimensions of the screen.
 143:../../../libDaisy/src/hid/disp/display.h ****     \param str string to be written
 144:../../../libDaisy/src/hid/disp/display.h ****     \param font font to use
 145:../../../libDaisy/src/hid/disp/display.h ****     \param on  on or off
 146:../../../libDaisy/src/hid/disp/display.h ****     \return &
 147:../../../libDaisy/src/hid/disp/display.h ****     */
 148:../../../libDaisy/src/hid/disp/display.h ****     virtual char WriteString(const char* str, FontDef font, bool on) = 0;
 149:../../../libDaisy/src/hid/disp/display.h **** 
 150:../../../libDaisy/src/hid/disp/display.h ****     /** 
 151:../../../libDaisy/src/hid/disp/display.h ****     Similar to WriteString but justified within a bounding box.
 152:../../../libDaisy/src/hid/disp/display.h ****     \param str          string to be written
 153:../../../libDaisy/src/hid/disp/display.h ****     \param font         font to use
 154:../../../libDaisy/src/hid/disp/display.h ****     \param boundingBox  the bounding box to draw the text in
 155:../../../libDaisy/src/hid/disp/display.h ****     \param alignment    the alignment to use
 156:../../../libDaisy/src/hid/disp/display.h ****     \param on           on or off
 157:../../../libDaisy/src/hid/disp/display.h ****     \return The rectangle that was drawn to
 158:../../../libDaisy/src/hid/disp/display.h ****     */
 159:../../../libDaisy/src/hid/disp/display.h ****     virtual Rectangle WriteStringAligned(const char*    str,
 160:../../../libDaisy/src/hid/disp/display.h ****                                          const FontDef& font,
 161:../../../libDaisy/src/hid/disp/display.h ****                                          Rectangle      boundingBox,
 162:../../../libDaisy/src/hid/disp/display.h ****                                          Alignment      alignment,
 163:../../../libDaisy/src/hid/disp/display.h ****                                          bool           on)
 164:../../../libDaisy/src/hid/disp/display.h ****         = 0;
 165:../../../libDaisy/src/hid/disp/display.h **** 
 166:../../../libDaisy/src/hid/disp/display.h ****     /** 
 167:../../../libDaisy/src/hid/disp/display.h ****     Moves the 'Cursor' position used for WriteChar, and WriteStr to the specified coordinate.
 168:../../../libDaisy/src/hid/disp/display.h ****     \param x x pos
 169:../../../libDaisy/src/hid/disp/display.h ****     \param y y pos
 170:../../../libDaisy/src/hid/disp/display.h ****     */
 171:../../../libDaisy/src/hid/disp/display.h ****     void SetCursor(uint16_t x, uint16_t y)
 172:../../../libDaisy/src/hid/disp/display.h ****     {
 173:../../../libDaisy/src/hid/disp/display.h ****         currentX_ = (x >= Width()) ? Width() - 1 : x;
 174:../../../libDaisy/src/hid/disp/display.h ****         currentY_ = (y >= Height()) ? Height() - 1 : y;
 175:../../../libDaisy/src/hid/disp/display.h ****     }
 176:../../../libDaisy/src/hid/disp/display.h **** 
 177:../../../libDaisy/src/hid/disp/display.h ****     /** 
 178:../../../libDaisy/src/hid/disp/display.h ****     Writes the current display buffer to the OLED device using SPI or I2C depending on 
 179:../../../libDaisy/src/hid/disp/display.h ****     how the object was initialized.
 180:../../../libDaisy/src/hid/disp/display.h ****     */
 181:../../../libDaisy/src/hid/disp/display.h ****     virtual void Update() = 0;
ARM GAS  C:\Users\toesc\AppData\Local\Temp\ccZujPQb.s 			page 22


 182:../../../libDaisy/src/hid/disp/display.h **** 
 183:../../../libDaisy/src/hid/disp/display.h ****   protected:
 184:../../../libDaisy/src/hid/disp/display.h ****     uint16_t currentX_;
 185:../../../libDaisy/src/hid/disp/display.h ****     uint16_t currentY_;
 186:../../../libDaisy/src/hid/disp/display.h **** };
 187:../../../libDaisy/src/hid/disp/display.h **** 
 188:../../../libDaisy/src/hid/disp/display.h **** /** This class is intended as a intermediary class for your actual implementation of the OneBitGrap
 189:../../../libDaisy/src/hid/disp/display.h ****  *  interface. It uses the CRTP design pattern where the template argument is the child class. It p
 190:../../../libDaisy/src/hid/disp/display.h ****  *  implementations for most of the functions, except DrawPixel(), Update() and Fill(), which you'l
 191:../../../libDaisy/src/hid/disp/display.h ****  *  to provide in your child class.
 192:../../../libDaisy/src/hid/disp/display.h ****  *  The main goal of this class is to provide common drawing functions without relying on massive a
 193:../../../libDaisy/src/hid/disp/display.h ****  *  virtual function calls that would result in a performance loss. To achieve this, any drawing fu
 194:../../../libDaisy/src/hid/disp/display.h ****  *  is implemented here and internally calls other drawing functions (e.g. DrawRect() which interna
 195:../../../libDaisy/src/hid/disp/display.h ****  *  DrawPixel() and DrawLine()) makes these calls via the qualified name of these functions to expl
 196:../../../libDaisy/src/hid/disp/display.h ****  *  suppress the virtual dispatch mechanism like this:
 197:../../../libDaisy/src/hid/disp/display.h ****  * 
 198:../../../libDaisy/src/hid/disp/display.h ****  *      ChildType::DrawPixel(...); // no virtual function call; direct call into the child class fu
 199:../../../libDaisy/src/hid/disp/display.h ****  *  
 200:../../../libDaisy/src/hid/disp/display.h ****  *  To create a custom OneBitGraphicsDisplay implementation, you can 
 201:../../../libDaisy/src/hid/disp/display.h ****  *  A) inherit from OneBitGraphicsDisplay directly and provide all the drawing functions yourself
 202:../../../libDaisy/src/hid/disp/display.h ****  *  B) Inherit from OneBitGraphicsDisplayImpl and only provide DrawPixel(), Fill() and Update()
 203:../../../libDaisy/src/hid/disp/display.h ****  *     like this:
 204:../../../libDaisy/src/hid/disp/display.h ****  *  
 205:../../../libDaisy/src/hid/disp/display.h ****  *      class MyDisplayClass : public OneBitGraphicsDisplayImpl<MyDisplayClass> 
 206:../../../libDaisy/src/hid/disp/display.h ****  *      {
 207:../../../libDaisy/src/hid/disp/display.h ****  *      public:
 208:../../../libDaisy/src/hid/disp/display.h ****  *          void Fill() override { ... };
 209:../../../libDaisy/src/hid/disp/display.h ****  *          void DrawPixel(uint_fast8_t x, uint_fast8_t y, bool on) override { ... };
 210:../../../libDaisy/src/hid/disp/display.h ****  *          void Update() override { ... }
 211:../../../libDaisy/src/hid/disp/display.h ****  *      };
 212:../../../libDaisy/src/hid/disp/display.h ****  *  
 213:../../../libDaisy/src/hid/disp/display.h ****  */
 214:../../../libDaisy/src/hid/disp/display.h **** template <class ChildType>
 215:../../../libDaisy/src/hid/disp/display.h **** class OneBitGraphicsDisplayImpl : public OneBitGraphicsDisplay
 216:../../../libDaisy/src/hid/disp/display.h **** {
 217:../../../libDaisy/src/hid/disp/display.h ****   public:
 218:../../../libDaisy/src/hid/disp/display.h ****     OneBitGraphicsDisplayImpl() {}
 219:../../../libDaisy/src/hid/disp/display.h ****     virtual ~OneBitGraphicsDisplayImpl() {}
 223              		.loc 12 219 13 view .LVU26
 224              	.LBB1235:
 225              	.LBI1235:
  23:../../../libDaisy/src/hid/disp/display.h **** 
 226              		.loc 12 23 13 view .LVU27
  23:../../../libDaisy/src/hid/disp/display.h **** 
 227              		.loc 12 23 13 is_stmt 0 view .LVU28
 228              	.LBE1235:
 229              	.LBE1234:
  18:../../../libDaisy/src/hid/disp/oled_display.h **** 
 230              		.loc 9 18 29 view .LVU29
 231 0000 7047     		bx	lr
 232              		.cfi_endproc
 233              	.LFE5442:
 235              		.weak	_ZN5daisy11OledDisplayINS_13SSD130xDriverILj128ELj32ENS_19SSD130xI2CTransportEEEED1Ev
 236              		.thumb_set _ZN5daisy11OledDisplayINS_13SSD130xDriverILj128ELj32ENS_19SSD130xI2CTransportEEEED1Ev,_
 237 0002 00BF     		.section	.text._ZNK5daisy11OledDisplayINS_13SSD130xDriverILj128ELj32ENS_19SSD130xI2CTransportEEEE6
 238              		.align	1
 239              		.p2align 2,,3
ARM GAS  C:\Users\toesc\AppData\Local\Temp\ccZujPQb.s 			page 23


 240              		.weak	_ZNK5daisy11OledDisplayINS_13SSD130xDriverILj128ELj32ENS_19SSD130xI2CTransportEEEE6HeightEv
 241              		.syntax unified
 242              		.thumb
 243              		.thumb_func
 244              		.fpu fpv5-d16
 246              	_ZNK5daisy11OledDisplayINS_13SSD130xDriverILj128ELj32ENS_19SSD130xI2CTransportEEEE6HeightEv:
 247              	.LVL9:
 248              	.LFB5445:
  27:../../../libDaisy/src/hid/disp/oled_display.h ****     uint16_t Width() const override { return driver_.Width(); }
 249              		.loc 9 27 14 is_stmt 1 view -0
 250              		.cfi_startproc
 251              		@ args = 0, pretend = 0, frame = 0
 252              		@ frame_needed = 0, uses_anonymous_args = 0
 253              		@ link register save eliminated.
  27:../../../libDaisy/src/hid/disp/oled_display.h ****     uint16_t Width() const override { return driver_.Width(); }
 254              		.loc 9 27 65 is_stmt 0 view .LVU31
 255 0000 2020     		movs	r0, #32
 256              	.LVL10:
  27:../../../libDaisy/src/hid/disp/oled_display.h ****     uint16_t Width() const override { return driver_.Width(); }
 257              		.loc 9 27 65 view .LVU32
 258 0002 7047     		bx	lr
 259              		.cfi_endproc
 260              	.LFE5445:
 262              		.section	.text._ZNK5daisy11OledDisplayINS_13SSD130xDriverILj128ELj32ENS_19SSD130xI2CTransportEEEE5
 263              		.align	1
 264              		.p2align 2,,3
 265              		.weak	_ZNK5daisy11OledDisplayINS_13SSD130xDriverILj128ELj32ENS_19SSD130xI2CTransportEEEE5WidthEv
 266              		.syntax unified
 267              		.thumb
 268              		.thumb_func
 269              		.fpu fpv5-d16
 271              	_ZNK5daisy11OledDisplayINS_13SSD130xDriverILj128ELj32ENS_19SSD130xI2CTransportEEEE5WidthEv:
 272              	.LVL11:
 273              	.LFB5446:
  28:../../../libDaisy/src/hid/disp/oled_display.h **** 
 274              		.loc 9 28 14 is_stmt 1 view -0
 275              		.cfi_startproc
 276              		@ args = 0, pretend = 0, frame = 0
 277              		@ frame_needed = 0, uses_anonymous_args = 0
 278              		@ link register save eliminated.
  28:../../../libDaisy/src/hid/disp/oled_display.h **** 
 279              		.loc 9 28 63 is_stmt 0 view .LVU34
 280 0000 8020     		movs	r0, #128
 281              	.LVL12:
  28:../../../libDaisy/src/hid/disp/oled_display.h **** 
 282              		.loc 9 28 63 view .LVU35
 283 0002 7047     		bx	lr
 284              		.cfi_endproc
 285              	.LFE5446:
 287              		.section	.text._ZN5daisy11MidiHandlerINS_16MidiUsbTransportEED2Ev,"axG",%progbits,_ZN5daisy11MidiH
 288              		.align	1
 289              		.p2align 2,,3
 290              		.weak	_ZN5daisy11MidiHandlerINS_16MidiUsbTransportEED2Ev
 291              		.syntax unified
 292              		.thumb
 293              		.thumb_func
 294              		.fpu fpv5-d16
ARM GAS  C:\Users\toesc\AppData\Local\Temp\ccZujPQb.s 			page 24


 296              	_ZN5daisy11MidiHandlerINS_16MidiUsbTransportEED2Ev:
 297              	.LVL13:
 298              	.LFB5452:
 299              		.file 13 "../../../libDaisy/src/hid/midi.h"
   1:../../../libDaisy/src/hid/midi.h **** #pragma once
   2:../../../libDaisy/src/hid/midi.h **** #ifndef DSY_MIDI_H
   3:../../../libDaisy/src/hid/midi.h **** #define DSY_MIDI_H
   4:../../../libDaisy/src/hid/midi.h **** 
   5:../../../libDaisy/src/hid/midi.h **** // TODO: make this adjustable
   6:../../../libDaisy/src/hid/midi.h **** #define SYSEX_BUFFER_LEN 128
   7:../../../libDaisy/src/hid/midi.h **** 
   8:../../../libDaisy/src/hid/midi.h **** #include <stdint.h>
   9:../../../libDaisy/src/hid/midi.h **** #include <stdlib.h>
  10:../../../libDaisy/src/hid/midi.h **** #include "per/uart.h"
  11:../../../libDaisy/src/hid/midi.h **** #include "util/ringbuffer.h"
  12:../../../libDaisy/src/hid/midi.h **** #include "hid/MidiEvent.h"
  13:../../../libDaisy/src/hid/midi.h **** #include "hid/usb_midi.h"
  14:../../../libDaisy/src/hid/midi.h **** #include "sys/system.h"
  15:../../../libDaisy/src/hid/midi.h **** 
  16:../../../libDaisy/src/hid/midi.h **** namespace daisy
  17:../../../libDaisy/src/hid/midi.h **** {
  18:../../../libDaisy/src/hid/midi.h **** /** @brief   Transport layer for sending and receiving MIDI data over UART 
  19:../../../libDaisy/src/hid/midi.h ****  *  @details This is the mode of communication used for TRS and DIN MIDI
  20:../../../libDaisy/src/hid/midi.h ****  *  @ingroup midi
  21:../../../libDaisy/src/hid/midi.h **** */
  22:../../../libDaisy/src/hid/midi.h **** class MidiUartTransport
  23:../../../libDaisy/src/hid/midi.h **** {
  24:../../../libDaisy/src/hid/midi.h ****   public:
  25:../../../libDaisy/src/hid/midi.h ****     MidiUartTransport() {}
  26:../../../libDaisy/src/hid/midi.h ****     ~MidiUartTransport() {}
  27:../../../libDaisy/src/hid/midi.h **** 
  28:../../../libDaisy/src/hid/midi.h ****     struct Config
  29:../../../libDaisy/src/hid/midi.h ****     {
  30:../../../libDaisy/src/hid/midi.h ****         UartHandler::Config::Peripheral periph;
  31:../../../libDaisy/src/hid/midi.h ****         dsy_gpio_pin                    rx;
  32:../../../libDaisy/src/hid/midi.h ****         dsy_gpio_pin                    tx;
  33:../../../libDaisy/src/hid/midi.h **** 
  34:../../../libDaisy/src/hid/midi.h ****         Config()
  35:../../../libDaisy/src/hid/midi.h ****         {
  36:../../../libDaisy/src/hid/midi.h ****             periph = UartHandler::Config::Peripheral::USART_1;
  37:../../../libDaisy/src/hid/midi.h ****             rx     = {DSY_GPIOB, 7};
  38:../../../libDaisy/src/hid/midi.h ****             tx     = {DSY_GPIOB, 6};
  39:../../../libDaisy/src/hid/midi.h ****         }
  40:../../../libDaisy/src/hid/midi.h ****     };
  41:../../../libDaisy/src/hid/midi.h **** 
  42:../../../libDaisy/src/hid/midi.h ****     inline void Init(Config config)
  43:../../../libDaisy/src/hid/midi.h ****     {
  44:../../../libDaisy/src/hid/midi.h ****         UartHandler::Config uart_config;
  45:../../../libDaisy/src/hid/midi.h **** 
  46:../../../libDaisy/src/hid/midi.h ****         //defaults
  47:../../../libDaisy/src/hid/midi.h ****         uart_config.baudrate   = 31250;
  48:../../../libDaisy/src/hid/midi.h ****         uart_config.stopbits   = UartHandler::Config::StopBits::BITS_1;
  49:../../../libDaisy/src/hid/midi.h ****         uart_config.parity     = UartHandler::Config::Parity::NONE;
  50:../../../libDaisy/src/hid/midi.h ****         uart_config.mode       = UartHandler::Config::Mode::TX_RX;
  51:../../../libDaisy/src/hid/midi.h ****         uart_config.wordlength = UartHandler::Config::WordLength::BITS_8;
  52:../../../libDaisy/src/hid/midi.h **** 
  53:../../../libDaisy/src/hid/midi.h ****         //user settings
ARM GAS  C:\Users\toesc\AppData\Local\Temp\ccZujPQb.s 			page 25


  54:../../../libDaisy/src/hid/midi.h ****         uart_config.periph        = config.periph;
  55:../../../libDaisy/src/hid/midi.h ****         uart_config.pin_config.rx = config.rx;
  56:../../../libDaisy/src/hid/midi.h ****         uart_config.pin_config.tx = config.tx;
  57:../../../libDaisy/src/hid/midi.h **** 
  58:../../../libDaisy/src/hid/midi.h ****         uart_.Init(uart_config);
  59:../../../libDaisy/src/hid/midi.h ****     }
  60:../../../libDaisy/src/hid/midi.h **** 
  61:../../../libDaisy/src/hid/midi.h ****     inline void    StartRx() { uart_.StartRx(); }
  62:../../../libDaisy/src/hid/midi.h ****     inline size_t  Readable() { return uart_.Readable(); }
  63:../../../libDaisy/src/hid/midi.h ****     inline uint8_t Rx() { return uart_.PopRx(); }
  64:../../../libDaisy/src/hid/midi.h ****     inline bool    RxActive() { return uart_.RxActive(); }
  65:../../../libDaisy/src/hid/midi.h ****     inline void    FlushRx() { uart_.FlushRx(); }
  66:../../../libDaisy/src/hid/midi.h ****     inline void    Tx(uint8_t* buff, size_t size) { uart_.PollTx(buff, size); }
  67:../../../libDaisy/src/hid/midi.h **** 
  68:../../../libDaisy/src/hid/midi.h ****   private:
  69:../../../libDaisy/src/hid/midi.h ****     UartHandler uart_;
  70:../../../libDaisy/src/hid/midi.h **** };
  71:../../../libDaisy/src/hid/midi.h **** 
  72:../../../libDaisy/src/hid/midi.h **** /** 
  73:../../../libDaisy/src/hid/midi.h ****     @brief Simple MIDI Handler \n 
  74:../../../libDaisy/src/hid/midi.h ****     Parses bytes from an input into valid MidiEvents. \n 
  75:../../../libDaisy/src/hid/midi.h ****     The MidiEvents fill a FIFO queue that the user can pop messages from.
  76:../../../libDaisy/src/hid/midi.h ****     @author shensley
  77:../../../libDaisy/src/hid/midi.h ****     @date March 2020
  78:../../../libDaisy/src/hid/midi.h ****     @ingroup midi
  79:../../../libDaisy/src/hid/midi.h **** */
  80:../../../libDaisy/src/hid/midi.h **** template <typename Transport>
  81:../../../libDaisy/src/hid/midi.h **** class MidiHandler
  82:../../../libDaisy/src/hid/midi.h **** {
  83:../../../libDaisy/src/hid/midi.h ****   public:
  84:../../../libDaisy/src/hid/midi.h ****     MidiHandler() {}
  85:../../../libDaisy/src/hid/midi.h ****     ~MidiHandler() {}
 300              		.loc 13 85 5 is_stmt 1 view -0
 301              		.cfi_startproc
 302              		@ args = 0, pretend = 0, frame = 0
 303              		@ frame_needed = 0, uses_anonymous_args = 0
 304              		@ link register save eliminated.
 305              	.LBB1236:
 306              	.LBI1236:
 307              		.file 14 "../../../libDaisy/src/hid/usb_midi.h"
   1:../../../libDaisy/src/hid/usb_midi.h **** #pragma once
   2:../../../libDaisy/src/hid/usb_midi.h **** #ifndef __DSY_MIDIUSBTRANSPORT_H__
   3:../../../libDaisy/src/hid/usb_midi.h **** #define __DSY_MIDIUSBTRANSPORT_H__
   4:../../../libDaisy/src/hid/usb_midi.h **** 
   5:../../../libDaisy/src/hid/usb_midi.h **** #include "hid/usb.h"
   6:../../../libDaisy/src/hid/usb_midi.h **** #include "sys/system.h"
   7:../../../libDaisy/src/hid/usb_midi.h **** #include "util/ringbuffer.h"
   8:../../../libDaisy/src/hid/usb_midi.h **** 
   9:../../../libDaisy/src/hid/usb_midi.h **** namespace daisy
  10:../../../libDaisy/src/hid/usb_midi.h **** {
  11:../../../libDaisy/src/hid/usb_midi.h **** /** @brief USB Transport for MIDI 
  12:../../../libDaisy/src/hid/usb_midi.h ****  *  @ingroup midi
  13:../../../libDaisy/src/hid/usb_midi.h ****  */
  14:../../../libDaisy/src/hid/usb_midi.h **** class MidiUsbTransport
  15:../../../libDaisy/src/hid/usb_midi.h **** {
  16:../../../libDaisy/src/hid/usb_midi.h ****   public:
  17:../../../libDaisy/src/hid/usb_midi.h ****     // MidiUsbTransport() {}
ARM GAS  C:\Users\toesc\AppData\Local\Temp\ccZujPQb.s 			page 26


  18:../../../libDaisy/src/hid/usb_midi.h ****     ~MidiUsbTransport() {}
 308              		.loc 14 18 5 view .LVU37
 309              		.loc 14 18 5 is_stmt 0 view .LVU38
 310              	.LBE1236:
 311              		.loc 13 85 21 view .LVU39
 312 0000 7047     		bx	lr
 313              		.cfi_endproc
 314              	.LFE5452:
 316              		.weak	_ZN5daisy11MidiHandlerINS_16MidiUsbTransportEED1Ev
 317              		.thumb_set _ZN5daisy11MidiHandlerINS_16MidiUsbTransportEED1Ev,_ZN5daisy11MidiHandlerINS_16MidiUsbT
 318 0002 00BF     		.section	.text._ZL13AudioCallbackPKfPfj,"ax",%progbits
 319              		.align	1
 320              		.p2align 2,,3
 321              		.syntax unified
 322              		.thumb
 323              		.thumb_func
 324              		.fpu fpv5-d16
 326              	_ZL13AudioCallbackPKfPfj:
 327              	.LVL14:
 328              	.LFB4799:
  25:dualpolysynth.cpp **** static Oscillator osc[6];
  26:dualpolysynth.cpp **** static MoogLadder filter;
  27:dualpolysynth.cpp **** static BlOsc blosc[6];
  28:dualpolysynth.cpp **** bool              mygate [6];
  29:dualpolysynth.cpp **** int voices = 6;   // if you want more than 6 voices then change the numbers of set a Voice variable
  30:dualpolysynth.cpp **** bool filteroff;
  31:dualpolysynth.cpp **** 	
  32:dualpolysynth.cpp **** uint8_t oscnext;
  33:dualpolysynth.cpp **** uint8_t notemidi[6];
  34:dualpolysynth.cpp **** float notefreq[6];
  35:dualpolysynth.cpp **** static ReverbSc   DSY_SDRAM_BSS verb;
  36:dualpolysynth.cpp **** float myattack;
  37:dualpolysynth.cpp **** float myrelease;
  38:dualpolysynth.cpp **** float dry;
  39:dualpolysynth.cpp **** float wet;
  40:dualpolysynth.cpp **** int oscprimchoice = 0;
  41:dualpolysynth.cpp **** int oscsecdchoice = 0;
  42:dualpolysynth.cpp **** float oscmix;
  43:dualpolysynth.cpp **** float secdmix;
  44:dualpolysynth.cpp **** float myvolume = 1;
  45:dualpolysynth.cpp **** int myadc4;
  46:dualpolysynth.cpp **** int myadc5;
  47:dualpolysynth.cpp **** float mychdepth, mychfreq;
  48:dualpolysynth.cpp **** float myvelocity[6];
  49:dualpolysynth.cpp **** int oscmixdisp = -1;
  50:dualpolysynth.cpp **** 
  51:dualpolysynth.cpp **** OledDisplay<SSD130xI2c128x32Driver> display;
  52:dualpolysynth.cpp **** 
  53:dualpolysynth.cpp **** std::string osc1screen = "";
  54:dualpolysynth.cpp **** std::string osc2screen = "";
  55:dualpolysynth.cpp **** const char *char_array = osc1screen.c_str();
  56:dualpolysynth.cpp **** const char *char_array2 = osc2screen.c_str();
  57:dualpolysynth.cpp **** 
  58:dualpolysynth.cpp **** // declaring end functions here as code confusing if have these at the start
  59:dualpolysynth.cpp **** void primaryoscillator(int num1);
  60:dualpolysynth.cpp **** void secondaryoscillator(int num2);
  61:dualpolysynth.cpp **** void screenupdate();
ARM GAS  C:\Users\toesc\AppData\Local\Temp\ccZujPQb.s 			page 27


  62:dualpolysynth.cpp **** void setbloscwaveform(uint8_t wave);
  63:dualpolysynth.cpp **** void setoscwaveform(uint8_t wave2);
  64:dualpolysynth.cpp **** void SynthNoteOn(uint8_t midinote,float midivelocity);
  65:dualpolysynth.cpp **** void SynthNoteOff(uint8_t midinote);
  66:dualpolysynth.cpp **** 
  67:dualpolysynth.cpp **** 
  68:dualpolysynth.cpp **** static void AudioCallback(AudioHandle::InterleavingInputBuffer  in,
  69:dualpolysynth.cpp ****                           AudioHandle::InterleavingOutputBuffer out,
  70:dualpolysynth.cpp ****                           size_t                                size)
  71:dualpolysynth.cpp **** {
 329              		.loc 11 71 1 is_stmt 1 view -0
 330              		.cfi_startproc
 331              		@ args = 0, pretend = 0, frame = 32
 332              		@ frame_needed = 0, uses_anonymous_args = 0
  72:dualpolysynth.cpp ****     float sig, env_out, sigwet;
 333              		.loc 11 72 5 view .LVU41
  73:dualpolysynth.cpp ****     for( size_t i = 0; i < size; i += 2 ){
 334              		.loc 11 73 5 view .LVU42
 335              	.LBB1237:
 336              		.loc 11 73 26 view .LVU43
 337 0000 002A     		cmp	r2, #0
 338 0002 00F0CB80 		beq	.L26
 339 0006 0023     		movs	r3, #0
 340 0008 013A     		subs	r2, r2, #1
 341              	.LVL15:
 342              		.loc 11 73 26 is_stmt 0 view .LVU44
 343              	.LBE1237:
  71:dualpolysynth.cpp ****     float sig, env_out, sigwet;
 344              		.loc 11 71 1 view .LVU45
 345 000a 2DE9F04F 		push	{r4, r5, r6, r7, r8, r9, r10, fp, lr}
 346              		.cfi_def_cfa_offset 36
 347              		.cfi_offset 4, -36
 348              		.cfi_offset 5, -32
 349              		.cfi_offset 6, -28
 350              		.cfi_offset 7, -24
 351              		.cfi_offset 8, -20
 352              		.cfi_offset 9, -16
 353              		.cfi_offset 10, -12
 354              		.cfi_offset 11, -8
 355              		.cfi_offset 14, -4
 356 000e 2DED028B 		vpush.64	{d8}
 357              		.cfi_def_cfa_offset 44
 358              		.cfi_offset 80, -44
 359              		.cfi_offset 81, -40
 360 0012 8BB0     		sub	sp, sp, #44
 361              		.cfi_def_cfa_offset 88
 362 0014 DFF8BC81 		ldr	r8, .L30+52
 363              	.LBB1261:
 364              		.loc 11 73 26 view .LVU46
 365 0018 0493     		str	r3, [sp, #16]
 366 001a 5308     		lsrs	r3, r2, #1
 367 001c 0391     		str	r1, [sp, #12]
 368 001e 0593     		str	r3, [sp, #20]
 369              	.LVL16:
 370              	.L22:
 371              	.LBB1238:
 372              	.LBB1239:
ARM GAS  C:\Users\toesc\AppData\Local\Temp\ccZujPQb.s 			page 28


  74:dualpolysynth.cpp ****         
  75:dualpolysynth.cpp ****        for (uint8_t i = 0; i < voices; i++)
 373              		.loc 11 75 30 is_stmt 1 view .LVU47
 374 0020 D8F80030 		ldr	r3, [r8]
 375 0024 002B     		cmp	r3, #0
 376 0026 5EDD     		ble	.L19
 377              		.loc 11 75 21 is_stmt 0 view .LVU48
 378 0028 0027     		movs	r7, #0
 379 002a DFF8ACB1 		ldr	fp, .L30+56
 380 002e DFF8ACA1 		ldr	r10, .L30+60
 381              		.loc 11 75 28 view .LVU49
 382 0032 B946     		mov	r9, r7
 383 0034 5A4E     		ldr	r6, .L30
 384 0036 1DE0     		b	.L14
 385              	.LVL17:
 386              	.L29:
  76:dualpolysynth.cpp ****         {
  77:dualpolysynth.cpp ****         
  78:dualpolysynth.cpp ****         // audio stuff for envelope
  79:dualpolysynth.cpp ****         env_out = env[i].Process(mygate[i]);
  80:dualpolysynth.cpp ****         osc[i].SetAmp(env_out);
  81:dualpolysynth.cpp ****         blosc[i].SetAmp(env_out);
  82:dualpolysynth.cpp **** 
  83:dualpolysynth.cpp ****         // need to process each of the 6 voices
  84:dualpolysynth.cpp **** 
  85:dualpolysynth.cpp ****         // I couldn't get += to work to avoid the if / else
  86:dualpolysynth.cpp **** 
  87:dualpolysynth.cpp ****         if (i == 0)
  88:dualpolysynth.cpp ****             {
  89:dualpolysynth.cpp ****                 sig =  ((blosc[0].Process() * oscmix)  + (osc[0].Process() * secdmix)) * myvelocity
 387              		.loc 11 89 42 view .LVU50
 388 0038 FFF7FEFF 		bl	_ZN7daisysp5BlOsc7ProcessEv
 389              	.LVL18:
 390              		.loc 11 89 45 view .LVU51
 391 003c 594B     		ldr	r3, .L30+4
 392              		.loc 11 89 73 view .LVU52
 393 003e 2846     		mov	r0, r5
 394              		.loc 11 89 42 view .LVU53
 395 0040 B0EE408A 		vmov.f32	s16, s0
 396              		.loc 11 89 45 view .LVU54
 397 0044 D3ED008A 		vldr.32	s17, [r3]
 398              		.loc 11 89 73 view .LVU55
 399 0048 FFF7FEFF 		bl	_ZN7daisysp10Oscillator7ProcessEv
 400              	.LVL19:
 401              		.loc 11 89 76 view .LVU56
 402 004c D6ED007A 		vldr.32	s15, [r6]
 403              		.loc 11 89 88 view .LVU57
 404 0050 554B     		ldr	r3, .L30+8
 405              		.loc 11 89 76 view .LVU58
 406 0052 60EE277A 		vmul.f32	s15, s0, s15
 407              		.loc 11 89 88 view .LVU59
 408 0056 93ED007A 		vldr.32	s14, [r3]
 409              		.loc 11 89 56 view .LVU60
 410 005a E8EE287A 		vfma.f32	s15, s16, s17
 411              		.loc 11 89 88 view .LVU61
 412 005e 67EE277A 		vmul.f32	s15, s14, s15
 413              		.loc 11 89 21 view .LVU62
ARM GAS  C:\Users\toesc\AppData\Local\Temp\ccZujPQb.s 			page 29


 414 0062 CDED077A 		vstr.32	s15, [sp, #28]
 415              	.L18:
  75:dualpolysynth.cpp ****         {
 416              		.loc 11 75 8 is_stmt 1 discriminator 2 view .LVU63
 417 0066 0137     		adds	r7, r7, #1
  75:dualpolysynth.cpp ****         {
 418              		.loc 11 75 30 is_stmt 0 discriminator 2 view .LVU64
 419 0068 D8F80030 		ldr	r3, [r8]
  75:dualpolysynth.cpp ****         {
 420              		.loc 11 75 8 discriminator 2 view .LVU65
 421 006c FFB2     		uxtb	r7, r7
 422              	.LVL20:
  75:dualpolysynth.cpp ****         {
 423              		.loc 11 75 30 is_stmt 1 discriminator 2 view .LVU66
 424 006e 9F42     		cmp	r7, r3
  75:dualpolysynth.cpp ****         {
 425              		.loc 11 75 28 is_stmt 0 discriminator 2 view .LVU67
 426 0070 B946     		mov	r9, r7
  75:dualpolysynth.cpp ****         {
 427              		.loc 11 75 30 discriminator 2 view .LVU68
 428 0072 38DA     		bge	.L19
 429              	.LVL21:
 430              	.L14:
  79:dualpolysynth.cpp ****         osc[i].SetAmp(env_out);
 431              		.loc 11 79 9 is_stmt 1 view .LVU69
  79:dualpolysynth.cpp ****         osc[i].SetAmp(env_out);
 432              		.loc 11 79 33 is_stmt 0 view .LVU70
 433 0074 09EB4900 		add	r0, r9, r9, lsl #1
 434 0078 1BF80910 		ldrb	r1, [fp, r9]	@ zero_extendqisi2
 435              	.LBB1240:
 436              	.LBB1241:
 437              		.file 15 "../../../DaisySP/Source/Synthesis/oscillator.h"
   1:../../../DaisySP/Source/Synthesis/oscillator.h **** #pragma once
   2:../../../DaisySP/Source/Synthesis/oscillator.h **** #ifndef DSY_OSCILLATOR_H
   3:../../../DaisySP/Source/Synthesis/oscillator.h **** #define DSY_OSCILLATOR_H
   4:../../../DaisySP/Source/Synthesis/oscillator.h **** #include <stdint.h>
   5:../../../DaisySP/Source/Synthesis/oscillator.h **** #include "Utility/dsp.h"
   6:../../../DaisySP/Source/Synthesis/oscillator.h **** #ifdef __cplusplus
   7:../../../DaisySP/Source/Synthesis/oscillator.h **** 
   8:../../../DaisySP/Source/Synthesis/oscillator.h **** namespace daisysp
   9:../../../DaisySP/Source/Synthesis/oscillator.h **** {
  10:../../../DaisySP/Source/Synthesis/oscillator.h **** /** Synthesis of several waveforms, including polyBLEP bandlimited waveforms.
  11:../../../DaisySP/Source/Synthesis/oscillator.h **** */
  12:../../../DaisySP/Source/Synthesis/oscillator.h **** class Oscillator
  13:../../../DaisySP/Source/Synthesis/oscillator.h **** {
  14:../../../DaisySP/Source/Synthesis/oscillator.h ****   public:
  15:../../../DaisySP/Source/Synthesis/oscillator.h ****     Oscillator() {}
  16:../../../DaisySP/Source/Synthesis/oscillator.h ****     ~Oscillator() {}
  17:../../../DaisySP/Source/Synthesis/oscillator.h ****     /** Choices for output waveforms, POLYBLEP are appropriately labeled. Others are naive forms.
  18:../../../DaisySP/Source/Synthesis/oscillator.h ****     */
  19:../../../DaisySP/Source/Synthesis/oscillator.h ****     enum
  20:../../../DaisySP/Source/Synthesis/oscillator.h ****     {
  21:../../../DaisySP/Source/Synthesis/oscillator.h ****         WAVE_SIN,
  22:../../../DaisySP/Source/Synthesis/oscillator.h ****         WAVE_TRI,
  23:../../../DaisySP/Source/Synthesis/oscillator.h ****         WAVE_SAW,
  24:../../../DaisySP/Source/Synthesis/oscillator.h ****         WAVE_RAMP,
  25:../../../DaisySP/Source/Synthesis/oscillator.h ****         WAVE_SQUARE,
ARM GAS  C:\Users\toesc\AppData\Local\Temp\ccZujPQb.s 			page 30


  26:../../../DaisySP/Source/Synthesis/oscillator.h ****         WAVE_POLYBLEP_TRI,
  27:../../../DaisySP/Source/Synthesis/oscillator.h ****         WAVE_POLYBLEP_SAW,
  28:../../../DaisySP/Source/Synthesis/oscillator.h ****         WAVE_POLYBLEP_SQUARE,
  29:../../../DaisySP/Source/Synthesis/oscillator.h ****         WAVE_LAST,
  30:../../../DaisySP/Source/Synthesis/oscillator.h ****     };
  31:../../../DaisySP/Source/Synthesis/oscillator.h **** 
  32:../../../DaisySP/Source/Synthesis/oscillator.h **** 
  33:../../../DaisySP/Source/Synthesis/oscillator.h ****     /** Initializes the Oscillator
  34:../../../DaisySP/Source/Synthesis/oscillator.h **** 
  35:../../../DaisySP/Source/Synthesis/oscillator.h ****         \param sample_rate - sample rate of the audio engine being run, and the frequency that the 
  36:../../../DaisySP/Source/Synthesis/oscillator.h **** 
  37:../../../DaisySP/Source/Synthesis/oscillator.h ****         Defaults:
  38:../../../DaisySP/Source/Synthesis/oscillator.h ****         - freq_ = 100 Hz
  39:../../../DaisySP/Source/Synthesis/oscillator.h ****         - amp_ = 0.5
  40:../../../DaisySP/Source/Synthesis/oscillator.h ****         - waveform_ = sine wave.
  41:../../../DaisySP/Source/Synthesis/oscillator.h ****     */
  42:../../../DaisySP/Source/Synthesis/oscillator.h ****     void Init(float sample_rate)
  43:../../../DaisySP/Source/Synthesis/oscillator.h ****     {
  44:../../../DaisySP/Source/Synthesis/oscillator.h ****         sr_        = sample_rate;
  45:../../../DaisySP/Source/Synthesis/oscillator.h ****         sr_recip_  = 1.0f / sample_rate;
  46:../../../DaisySP/Source/Synthesis/oscillator.h ****         freq_      = 100.0f;
  47:../../../DaisySP/Source/Synthesis/oscillator.h ****         amp_       = 0.5f;
  48:../../../DaisySP/Source/Synthesis/oscillator.h ****         phase_     = 0.0f;
  49:../../../DaisySP/Source/Synthesis/oscillator.h ****         phase_inc_ = CalcPhaseInc(freq_);
  50:../../../DaisySP/Source/Synthesis/oscillator.h ****         waveform_  = WAVE_SIN;
  51:../../../DaisySP/Source/Synthesis/oscillator.h ****         eoc_       = true;
  52:../../../DaisySP/Source/Synthesis/oscillator.h ****         eor_       = true;
  53:../../../DaisySP/Source/Synthesis/oscillator.h ****     }
  54:../../../DaisySP/Source/Synthesis/oscillator.h **** 
  55:../../../DaisySP/Source/Synthesis/oscillator.h **** 
  56:../../../DaisySP/Source/Synthesis/oscillator.h ****     /** Changes the frequency of the Oscillator, and recalculates phase increment.
  57:../../../DaisySP/Source/Synthesis/oscillator.h ****     */
  58:../../../DaisySP/Source/Synthesis/oscillator.h ****     inline void SetFreq(const float f)
  59:../../../DaisySP/Source/Synthesis/oscillator.h ****     {
  60:../../../DaisySP/Source/Synthesis/oscillator.h ****         freq_      = f;
  61:../../../DaisySP/Source/Synthesis/oscillator.h ****         phase_inc_ = CalcPhaseInc(f);
  62:../../../DaisySP/Source/Synthesis/oscillator.h ****     }
  63:../../../DaisySP/Source/Synthesis/oscillator.h **** 
  64:../../../DaisySP/Source/Synthesis/oscillator.h **** 
  65:../../../DaisySP/Source/Synthesis/oscillator.h ****     /** Sets the amplitude of the waveform.
  66:../../../DaisySP/Source/Synthesis/oscillator.h ****     */
  67:../../../DaisySP/Source/Synthesis/oscillator.h ****     inline void SetAmp(const float a) { amp_ = a; }
 438              		.loc 15 67 46 view .LVU71
 439 007c 4B4D     		ldr	r5, .L30+12
 440 007e 4FEA8904 		lsl	r4, r9, #2
 441              	.LBE1241:
 442              	.LBE1240:
  79:dualpolysynth.cpp ****         osc[i].SetAmp(env_out);
 443              		.loc 11 79 33 view .LVU72
 444 0082 0AEB0010 		add	r0, r10, r0, lsl #4
 445 0086 FFF7FEFF 		bl	_ZN7daisysp4Adsr7ProcessEb
 446              	.LVL22:
 447              		.loc 11 89 17 is_stmt 1 view .LVU73
  90:dualpolysynth.cpp ****             }
  91:dualpolysynth.cpp ****         else
  92:dualpolysynth.cpp ****             {
  93:dualpolysynth.cpp ****                 sig = sig + (((blosc[i].Process() * oscmix)  + (osc[i].Process() * secdmix)) * myve
ARM GAS  C:\Users\toesc\AppData\Local\Temp\ccZujPQb.s 			page 31


 448              		.loc 11 93 17 view .LVU74
  89:dualpolysynth.cpp ****             }
 449              		.loc 11 89 42 is_stmt 0 view .LVU75
 450 008a 4948     		ldr	r0, .L30+16
 451              	.LBB1246:
 452              	.LBB1247:
 453              		.file 16 "../../../DaisySP/Source/Synthesis/blosc.h"
   1:../../../DaisySP/Source/Synthesis/blosc.h **** #pragma once
   2:../../../DaisySP/Source/Synthesis/blosc.h **** #ifndef DSY_BLOSC_H
   3:../../../DaisySP/Source/Synthesis/blosc.h **** #define DSY_BLOSC_H
   4:../../../DaisySP/Source/Synthesis/blosc.h **** 
   5:../../../DaisySP/Source/Synthesis/blosc.h **** #include <stdint.h>
   6:../../../DaisySP/Source/Synthesis/blosc.h **** #ifdef __cplusplus
   7:../../../DaisySP/Source/Synthesis/blosc.h **** 
   8:../../../DaisySP/Source/Synthesis/blosc.h **** namespace daisysp
   9:../../../DaisySP/Source/Synthesis/blosc.h **** {
  10:../../../DaisySP/Source/Synthesis/blosc.h **** /** Band Limited Oscillator
  11:../../../DaisySP/Source/Synthesis/blosc.h **** 
  12:../../../DaisySP/Source/Synthesis/blosc.h ****  Based on bltriangle, blsaw, blsquare from soundpipe
  13:../../../DaisySP/Source/Synthesis/blosc.h **** 
  14:../../../DaisySP/Source/Synthesis/blosc.h ****  Original Author(s): Paul Batchelor, saw2 Faust by Julius Smith
  15:../../../DaisySP/Source/Synthesis/blosc.h **** 
  16:../../../DaisySP/Source/Synthesis/blosc.h ****  Ported by Ben Sergentanis, May 2020
  17:../../../DaisySP/Source/Synthesis/blosc.h **** */
  18:../../../DaisySP/Source/Synthesis/blosc.h **** class BlOsc
  19:../../../DaisySP/Source/Synthesis/blosc.h **** {
  20:../../../DaisySP/Source/Synthesis/blosc.h ****   public:
  21:../../../DaisySP/Source/Synthesis/blosc.h ****     BlOsc() {}
  22:../../../DaisySP/Source/Synthesis/blosc.h ****     ~BlOsc() {}
  23:../../../DaisySP/Source/Synthesis/blosc.h ****     /** Bl Waveforms
  24:../../../DaisySP/Source/Synthesis/blosc.h **** */
  25:../../../DaisySP/Source/Synthesis/blosc.h ****     enum Waveforms
  26:../../../DaisySP/Source/Synthesis/blosc.h ****     {
  27:../../../DaisySP/Source/Synthesis/blosc.h ****         WAVE_TRIANGLE,
  28:../../../DaisySP/Source/Synthesis/blosc.h ****         WAVE_SAW,
  29:../../../DaisySP/Source/Synthesis/blosc.h ****         WAVE_SQUARE,
  30:../../../DaisySP/Source/Synthesis/blosc.h ****         WAVE_OFF,
  31:../../../DaisySP/Source/Synthesis/blosc.h ****     };
  32:../../../DaisySP/Source/Synthesis/blosc.h **** 
  33:../../../DaisySP/Source/Synthesis/blosc.h **** 
  34:../../../DaisySP/Source/Synthesis/blosc.h ****     /** -Initialize oscillator.
  35:../../../DaisySP/Source/Synthesis/blosc.h ****         -Defaults to: 440Hz, .5 amplitude, .5 pw, Triangle.
  36:../../../DaisySP/Source/Synthesis/blosc.h ****     */
  37:../../../DaisySP/Source/Synthesis/blosc.h ****     void Init(float sample_rate);
  38:../../../DaisySP/Source/Synthesis/blosc.h **** 
  39:../../../DaisySP/Source/Synthesis/blosc.h **** 
  40:../../../DaisySP/Source/Synthesis/blosc.h ****     /** - Get next floating point oscillator sample.
  41:../../../DaisySP/Source/Synthesis/blosc.h ****     */
  42:../../../DaisySP/Source/Synthesis/blosc.h ****     float Process();
  43:../../../DaisySP/Source/Synthesis/blosc.h **** 
  44:../../../DaisySP/Source/Synthesis/blosc.h **** 
  45:../../../DaisySP/Source/Synthesis/blosc.h ****     /** - Float freq: Set oscillator frequency in Hz.
  46:../../../DaisySP/Source/Synthesis/blosc.h ****     */
  47:../../../DaisySP/Source/Synthesis/blosc.h ****     inline void SetFreq(float freq) { freq_ = freq; };
  48:../../../DaisySP/Source/Synthesis/blosc.h ****     /** - Float amp: Set oscillator amplitude, 0 to 1.
  49:../../../DaisySP/Source/Synthesis/blosc.h ****     */
  50:../../../DaisySP/Source/Synthesis/blosc.h ****     inline void SetAmp(float amp) { amp_ = amp; };
ARM GAS  C:\Users\toesc\AppData\Local\Temp\ccZujPQb.s 			page 32


 454              		.loc 16 50 42 view .LVU76
 455 008c 44F24C02 		movw	r2, #16460
 456              	.LBE1247:
 457              	.LBE1246:
 458              	.LBB1251:
 459              	.LBB1242:
 460              		.loc 15 67 46 view .LVU77
 461 0090 09EB8903 		add	r3, r9, r9, lsl #2
 462              		.loc 15 67 46 view .LVU78
 463              	.LBE1242:
 464              	.LBE1251:
  80:dualpolysynth.cpp ****         blosc[i].SetAmp(env_out);
 465              		.loc 11 80 9 is_stmt 1 view .LVU79
 466              	.LVL23:
 467              	.LBB1252:
 468              	.LBI1240:
 469              		.loc 15 67 17 view .LVU80
 470              	.LBB1243:
 471              		.loc 15 67 41 view .LVU81
 472              	.LBE1243:
 473              	.LBE1252:
 474              	.LBB1253:
 475              	.LBB1248:
 476              		.loc 16 50 42 is_stmt 0 view .LVU82
 477 0094 44F22401 		movw	r1, #16420
 478 0098 02FB0902 		mla	r2, r2, r9, r0
 479              	.LBE1248:
 480              	.LBE1253:
 481              	.LBB1254:
 482              	.LBB1244:
 483              		.loc 15 67 46 view .LVU83
 484 009c 05EBC309 		add	r9, r5, r3, lsl #3
 485              	.LBE1244:
 486              	.LBE1254:
 487              	.LBB1255:
 488              	.LBB1249:
 489              		.loc 16 50 42 view .LVU84
 490 00a0 1144     		add	r1, r1, r2
 491              	.LBE1249:
 492              	.LBE1255:
 493              	.LBB1256:
 494              	.LBB1245:
 495              		.loc 15 67 46 view .LVU85
 496 00a2 89ED010A 		vstr.32	s0, [r9, #4]
 497              	.LVL24:
 498              		.loc 15 67 46 view .LVU86
 499              	.LBE1245:
 500              	.LBE1256:
  81:dualpolysynth.cpp **** 
 501              		.loc 11 81 9 is_stmt 1 view .LVU87
 502              	.LBB1257:
 503              	.LBI1246:
 504              		.loc 16 50 17 view .LVU88
 505              	.LBB1250:
 506              		.loc 16 50 37 view .LVU89
 507              		.loc 16 50 42 is_stmt 0 view .LVU90
 508 00a6 81ED000A 		vstr.32	s0, [r1]
ARM GAS  C:\Users\toesc\AppData\Local\Temp\ccZujPQb.s 			page 33


 509              	.LVL25:
 510              		.loc 16 50 42 view .LVU91
 511              	.LBE1250:
 512              	.LBE1257:
  87:dualpolysynth.cpp ****             {
 513              		.loc 11 87 9 is_stmt 1 view .LVU92
 514 00aa 002F     		cmp	r7, #0
 515 00ac C4D0     		beq	.L29
 516              		.loc 11 93 48 is_stmt 0 view .LVU93
 517 00ae 1046     		mov	r0, r2
 518 00b0 FFF7FEFF 		bl	_ZN7daisysp5BlOsc7ProcessEv
 519              	.LVL26:
 520              		.loc 11 93 51 view .LVU94
 521 00b4 3B4B     		ldr	r3, .L30+4
 522              		.loc 11 93 79 view .LVU95
 523 00b6 4846     		mov	r0, r9
 524              		.loc 11 93 48 view .LVU96
 525 00b8 B0EE408A 		vmov.f32	s16, s0
 526              		.loc 11 93 51 view .LVU97
 527 00bc D3ED008A 		vldr.32	s17, [r3]
 528              		.loc 11 93 79 view .LVU98
 529 00c0 FFF7FEFF 		bl	_ZN7daisysp10Oscillator7ProcessEv
 530              	.LVL27:
 531              		.loc 11 93 82 view .LVU99
 532 00c4 D6ED007A 		vldr.32	s15, [r6]
 533              		.loc 11 93 108 view .LVU100
 534 00c8 374B     		ldr	r3, .L30+8
 535              		.loc 11 93 82 view .LVU101
 536 00ca 60EE277A 		vmul.f32	s15, s0, s15
 537              		.loc 11 93 27 view .LVU102
 538 00ce 9DED077A 		vldr.32	s14, [sp, #28]
 539              		.loc 11 93 108 view .LVU103
 540 00d2 1C44     		add	r4, r4, r3
 541              		.loc 11 93 62 view .LVU104
 542 00d4 E8EE287A 		vfma.f32	s15, s16, s17
 543              		.loc 11 93 27 view .LVU105
 544 00d8 D4ED006A 		vldr.32	s13, [r4]
 545 00dc A7EEA67A 		vfma.f32	s14, s15, s13
 546              		.loc 11 93 21 view .LVU106
 547 00e0 8DED077A 		vstr.32	s14, [sp, #28]
 548 00e4 BFE7     		b	.L18
 549              	.LVL28:
 550              	.L19:
 551              		.loc 11 93 21 view .LVU107
 552              	.LBE1239:
  94:dualpolysynth.cpp ****             } 
  95:dualpolysynth.cpp **** 
  96:dualpolysynth.cpp ****         }
  97:dualpolysynth.cpp ****        
  98:dualpolysynth.cpp ****  
  99:dualpolysynth.cpp ****         if (filteroff == false) 
 553              		.loc 11 99 9 is_stmt 1 view .LVU108
 554 00e6 334B     		ldr	r3, .L30+20
 555 00e8 1C78     		ldrb	r4, [r3]	@ zero_extendqisi2
 556 00ea 002C     		cmp	r4, #0
 557 00ec 4CD1     		bne	.L15
 100:dualpolysynth.cpp ****         {
ARM GAS  C:\Users\toesc\AppData\Local\Temp\ccZujPQb.s 			page 34


 101:dualpolysynth.cpp ****         // turn filter knob up to full it turns filter off so this roughly compensates for volume c
 102:dualpolysynth.cpp ****         sig = filter.Process( sig ) * 3;
 558              		.loc 11 102 9 view .LVU109
 559              		.loc 11 102 29 is_stmt 0 view .LVU110
 560 00ee 3248     		ldr	r0, .L30+24
 561 00f0 9DED070A 		vldr.32	s0, [sp, #28]
 562 00f4 FFF7FEFF 		bl	_ZN7daisysp10MoogLadder7ProcessEf
 563              	.LVL29:
 564              		.loc 11 102 37 view .LVU111
 565 00f8 F0EE087A 		vmov.f32	s15, #3.0e+0
 103:dualpolysynth.cpp ****             hw.SetLed(false);
 566              		.loc 11 103 22 view .LVU112
 567 00fc 2146     		mov	r1, r4
 568 00fe 2F48     		ldr	r0, .L30+28
 102:dualpolysynth.cpp ****             hw.SetLed(false);
 569              		.loc 11 102 37 view .LVU113
 570 0100 20EE270A 		vmul.f32	s0, s0, s15
 102:dualpolysynth.cpp ****             hw.SetLed(false);
 571              		.loc 11 102 13 view .LVU114
 572 0104 8DED070A 		vstr.32	s0, [sp, #28]
 573              		.loc 11 103 13 is_stmt 1 view .LVU115
 574              		.loc 11 103 22 is_stmt 0 view .LVU116
 575 0108 FFF7FEFF 		bl	_ZN5daisy9DaisySeed6SetLedEb
 576              	.LVL30:
 577              	.L20:
 104:dualpolysynth.cpp ****         }
 105:dualpolysynth.cpp ****         else
 106:dualpolysynth.cpp ****         {
 107:dualpolysynth.cpp ****             hw.SetLed(true);
 108:dualpolysynth.cpp ****         
 109:dualpolysynth.cpp ****          }
 110:dualpolysynth.cpp ****         sig = chorus.Process( sig );
 578              		.loc 11 110 9 is_stmt 1 discriminator 2 view .LVU117
 579              		.loc 11 110 29 is_stmt 0 discriminator 2 view .LVU118
 580 010c 2C48     		ldr	r0, .L30+32
 581 010e 9DED070A 		vldr.32	s0, [sp, #28]
 582 0112 FFF7FEFF 		bl	_ZN7daisysp6Chorus7ProcessEf
 583              	.LVL31:
 111:dualpolysynth.cpp ****         verb.Process( sig, 0, &sigwet, 0);
 584              		.loc 11 111 21 discriminator 2 view .LVU119
 585 0116 0022     		movs	r2, #0
 586 0118 0023     		movs	r3, #0
 587 011a 07A9     		add	r1, sp, #28
 588 011c 0092     		str	r2, [sp]
 589 011e 09AA     		add	r2, sp, #36
 590 0120 0993     		str	r3, [sp, #36]	@ float
 591 0122 08AB     		add	r3, sp, #32
 592 0124 2748     		ldr	r0, .L30+36
 110:dualpolysynth.cpp ****         verb.Process( sig, 0, &sigwet, 0);
 593              		.loc 11 110 13 discriminator 2 view .LVU120
 594 0126 8DED070A 		vstr.32	s0, [sp, #28]
 595              		.loc 11 111 9 is_stmt 1 discriminator 2 view .LVU121
 596              		.loc 11 111 21 is_stmt 0 discriminator 2 view .LVU122
 597 012a FFF7FEFF 		bl	_ZN7daisysp8ReverbSc7ProcessERKfS2_PfS3_
 598              	.LVL32:
 112:dualpolysynth.cpp ****        
 113:dualpolysynth.cpp ****    
ARM GAS  C:\Users\toesc\AppData\Local\Temp\ccZujPQb.s 			page 35


 114:dualpolysynth.cpp ****         out[i] = (sig * dry + sigwet * wet) * myvolume;
 599              		.loc 11 114 9 is_stmt 1 discriminator 2 view .LVU123
 600              		.loc 11 114 38 is_stmt 0 discriminator 2 view .LVU124
 601 012e 2648     		ldr	r0, .L30+40
 602 0130 DDED087A 		vldr.32	s15, [sp, #32]
 603 0134 90ED007A 		vldr.32	s14, [r0]
 604              		.loc 11 114 29 discriminator 2 view .LVU125
 605 0138 244C     		ldr	r4, .L30+44
 606              		.loc 11 114 38 discriminator 2 view .LVU126
 607 013a 27EE877A 		vmul.f32	s14, s15, s14
 608              		.loc 11 114 23 discriminator 2 view .LVU127
 609 013e 9DED076A 		vldr.32	s12, [sp, #28]
 610              		.loc 11 114 29 discriminator 2 view .LVU128
 611 0142 D4ED005A 		vldr.32	s11, [r4]
 612              		.loc 11 114 45 discriminator 2 view .LVU129
 613 0146 224D     		ldr	r5, .L30+48
 614              		.loc 11 114 29 discriminator 2 view .LVU130
 615 0148 A6EE257A 		vfma.f32	s14, s12, s11
 616              	.LBE1238:
  73:dualpolysynth.cpp ****         
 617              		.loc 11 73 26 discriminator 2 view .LVU131
 618 014c 039A     		ldr	r2, [sp, #12]
 619              	.LBB1258:
 620              		.loc 11 114 45 discriminator 2 view .LVU132
 621 014e D5ED006A 		vldr.32	s13, [r5]
 622              	.LBE1258:
  73:dualpolysynth.cpp ****         
 623              		.loc 11 73 26 discriminator 2 view .LVU133
 624 0152 0832     		adds	r2, r2, #8
 625 0154 049E     		ldr	r6, [sp, #16]
 626 0156 0392     		str	r2, [sp, #12]
 627 0158 731C     		adds	r3, r6, #1
 628              	.LBB1259:
 629              		.loc 11 114 45 discriminator 2 view .LVU134
 630 015a 26EE877A 		vmul.f32	s14, s13, s14
 631              		.loc 11 114 16 discriminator 2 view .LVU135
 632 015e 02ED027A 		vstr.32	s14, [r2, #-8]
 115:dualpolysynth.cpp ****         out[i + 1] = (sig * dry + sigwet * wet)* myvolume;
 633              		.loc 11 115 9 is_stmt 1 discriminator 2 view .LVU136
 634              		.loc 11 115 42 is_stmt 0 discriminator 2 view .LVU137
 635 0162 D0ED005A 		vldr.32	s11, [r0]
 636              		.loc 11 115 33 discriminator 2 view .LVU138
 637 0166 D4ED006A 		vldr.32	s13, [r4]
 638              		.loc 11 115 42 discriminator 2 view .LVU139
 639 016a 67EEA57A 		vmul.f32	s15, s15, s11
 640              		.loc 11 115 48 discriminator 2 view .LVU140
 641 016e 95ED007A 		vldr.32	s14, [r5]
 642              		.loc 11 115 33 discriminator 2 view .LVU141
 643 0172 E6EE267A 		vfma.f32	s15, s12, s13
 644              		.loc 11 115 48 discriminator 2 view .LVU142
 645 0176 67EE277A 		vmul.f32	s15, s14, s15
 646              		.loc 11 115 20 discriminator 2 view .LVU143
 647 017a 42ED017A 		vstr.32	s15, [r2, #-4]
 648              	.LBE1259:
  73:dualpolysynth.cpp ****         
 649              		.loc 11 73 5 is_stmt 1 discriminator 2 view .LVU144
 650              	.LVL33:
ARM GAS  C:\Users\toesc\AppData\Local\Temp\ccZujPQb.s 			page 36


  73:dualpolysynth.cpp ****         
 651              		.loc 11 73 26 discriminator 2 view .LVU145
 652 017e 059A     		ldr	r2, [sp, #20]
 653 0180 B242     		cmp	r2, r6
 654 0182 06D0     		beq	.L12
 655 0184 0493     		str	r3, [sp, #16]
 656 0186 4BE7     		b	.L22
 657              	.LVL34:
 658              	.L15:
 659              	.LBB1260:
 107:dualpolysynth.cpp ****         
 660              		.loc 11 107 13 view .LVU146
 107:dualpolysynth.cpp ****         
 661              		.loc 11 107 22 is_stmt 0 view .LVU147
 662 0188 0121     		movs	r1, #1
 663 018a 0C48     		ldr	r0, .L30+28
 664 018c FFF7FEFF 		bl	_ZN5daisy9DaisySeed6SetLedEb
 665              	.LVL35:
 666 0190 BCE7     		b	.L20
 667              	.LVL36:
 668              	.L12:
 107:dualpolysynth.cpp ****         
 669              		.loc 11 107 22 view .LVU148
 670              	.LBE1260:
 671              	.LBE1261:
 116:dualpolysynth.cpp ****     }
 117:dualpolysynth.cpp **** }
 672              		.loc 11 117 1 view .LVU149
 673 0192 0BB0     		add	sp, sp, #44
 674              		.cfi_def_cfa_offset 44
 675              		@ sp needed
 676 0194 BDEC028B 		vldm	sp!, {d8}
 677              		.cfi_restore 80
 678              		.cfi_restore 81
 679              		.cfi_def_cfa_offset 36
 680 0198 BDE8F08F 		pop	{r4, r5, r6, r7, r8, r9, r10, fp, pc}
 681              	.LVL37:
 682              	.L26:
 683              		.cfi_def_cfa_offset 0
 684              		.cfi_restore 4
 685              		.cfi_restore 5
 686              		.cfi_restore 6
 687              		.cfi_restore 7
 688              		.cfi_restore 8
 689              		.cfi_restore 9
 690              		.cfi_restore 10
 691              		.cfi_restore 11
 692              		.cfi_restore 14
 693              		.loc 11 117 1 view .LVU150
 694 019c 7047     		bx	lr
 695              	.L31:
 696 019e 00BF     		.align	2
 697              	.L30:
 698 01a0 00000000 		.word	.LANCHOR6
 699 01a4 00000000 		.word	.LANCHOR5
 700 01a8 00000000 		.word	.LANCHOR7
 701 01ac 00000000 		.word	.LANCHOR4
ARM GAS  C:\Users\toesc\AppData\Local\Temp\ccZujPQb.s 			page 37


 702 01b0 00000000 		.word	_ZL5blosc
 703 01b4 00000000 		.word	.LANCHOR1
 704 01b8 00000000 		.word	.LANCHOR8
 705 01bc 00000000 		.word	.LANCHOR9
 706 01c0 00000000 		.word	chorus
 707 01c4 00000000 		.word	_ZL4verb
 708 01c8 00000000 		.word	.LANCHOR11
 709 01cc 00000000 		.word	.LANCHOR10
 710 01d0 00000000 		.word	.LANCHOR12
 711 01d4 00000000 		.word	.LANCHOR0
 712 01d8 00000000 		.word	.LANCHOR2
 713 01dc 00000000 		.word	.LANCHOR3
 714              		.cfi_endproc
 715              	.LFE4799:
 717              		.section	.text._ZN5daisy11OledDisplayINS_13SSD130xDriverILj128ELj32ENS_19SSD130xI2CTransportEEEED0
 718              		.align	1
 719              		.p2align 2,,3
 720              		.weak	_ZN5daisy11OledDisplayINS_13SSD130xDriverILj128ELj32ENS_19SSD130xI2CTransportEEEED0Ev
 721              		.syntax unified
 722              		.thumb
 723              		.thumb_func
 724              		.fpu fpv5-d16
 726              	_ZN5daisy11OledDisplayINS_13SSD130xDriverILj128ELj32ENS_19SSD130xI2CTransportEEEED0Ev:
 727              	.LVL38:
 728              	.LFB5444:
  18:../../../libDaisy/src/hid/disp/oled_display.h **** 
 729              		.loc 9 18 13 is_stmt 1 view -0
 730              		.cfi_startproc
 731              		@ args = 0, pretend = 0, frame = 0
 732              		@ frame_needed = 0, uses_anonymous_args = 0
  18:../../../libDaisy/src/hid/disp/oled_display.h **** 
 733              		.loc 9 18 13 is_stmt 0 view .LVU152
 734 0000 10B5     		push	{r4, lr}
 735              		.cfi_def_cfa_offset 8
 736              		.cfi_offset 4, -8
 737              		.cfi_offset 14, -4
  18:../../../libDaisy/src/hid/disp/oled_display.h **** 
 738              		.loc 9 18 13 view .LVU153
 739 0002 0446     		mov	r4, r0
 740              	.LVL39:
 741              	.LBB1262:
 742              	.LBI1262:
  18:../../../libDaisy/src/hid/disp/oled_display.h **** 
 743              		.loc 9 18 13 is_stmt 1 view .LVU154
 744              	.LBB1263:
 745              	.LBI1263:
 746              		.loc 12 219 13 view .LVU155
 747              	.LBB1264:
 748              	.LBI1264:
  23:../../../libDaisy/src/hid/disp/display.h **** 
 749              		.loc 12 23 13 view .LVU156
  23:../../../libDaisy/src/hid/disp/display.h **** 
 750              		.loc 12 23 13 is_stmt 0 view .LVU157
 751              	.LBE1264:
 752              	.LBE1263:
 753              	.LBE1262:
  18:../../../libDaisy/src/hid/disp/oled_display.h **** 
ARM GAS  C:\Users\toesc\AppData\Local\Temp\ccZujPQb.s 			page 38


 754              		.loc 9 18 29 view .LVU158
 755 0004 4FF40471 		mov	r1, #528
 756 0008 FFF7FEFF 		bl	_ZdlPvj
 757              	.LVL40:
  18:../../../libDaisy/src/hid/disp/oled_display.h **** 
 758              		.loc 9 18 29 view .LVU159
 759 000c 2046     		mov	r0, r4
 760 000e 10BD     		pop	{r4, pc}
  18:../../../libDaisy/src/hid/disp/oled_display.h **** 
 761              		.loc 9 18 29 view .LVU160
 762              		.cfi_endproc
 763              	.LFE5444:
 765              		.section	.rodata._ZNSt7__cxx1112basic_stringIcSt11char_traitsIcESaIcEEC2EPKcRKS3_.isra.0.str1.4,"a
 766              		.align	2
 767              	.LC2:
 768 0000 62617369 		.ascii	"basic_string::_M_construct null not valid\000"
 768      635F7374 
 768      72696E67 
 768      3A3A5F4D 
 768      5F636F6E 
 769              		.section	.text.startup._ZNSt7__cxx1112basic_stringIcSt11char_traitsIcESaIcEEC2EPKcRKS3_.isra.0,"ax
 770              		.align	1
 771              		.p2align 2,,3
 772              		.syntax unified
 773              		.thumb
 774              		.thumb_func
 775              		.fpu fpv5-d16
 777              	_ZNSt7__cxx1112basic_stringIcSt11char_traitsIcESaIcEEC2EPKcRKS3_.isra.0:
 778              	.LVL41:
 779              	.LFB5468:
 780              		.file 17 "c:\\users\\toesc\\documents\\daisytoolchain\\windows\\arm-none-eabi\\include\\c++\\10.2.
   1:c:\users\toesc\documents\daisytoolchain\windows\arm-none-eabi\include\c++\10.2.1\bits\basic_string.h **** // Components for manipulating sequences of characters -*- C++ -*-
   2:c:\users\toesc\documents\daisytoolchain\windows\arm-none-eabi\include\c++\10.2.1\bits\basic_string.h **** 
   3:c:\users\toesc\documents\daisytoolchain\windows\arm-none-eabi\include\c++\10.2.1\bits\basic_string.h **** // Copyright (C) 1997-2020 Free Software Foundation, Inc.
   4:c:\users\toesc\documents\daisytoolchain\windows\arm-none-eabi\include\c++\10.2.1\bits\basic_string.h **** //
   5:c:\users\toesc\documents\daisytoolchain\windows\arm-none-eabi\include\c++\10.2.1\bits\basic_string.h **** // This file is part of the GNU ISO C++ Library.  This library is free
   6:c:\users\toesc\documents\daisytoolchain\windows\arm-none-eabi\include\c++\10.2.1\bits\basic_string.h **** // software; you can redistribute it and/or modify it under the
   7:c:\users\toesc\documents\daisytoolchain\windows\arm-none-eabi\include\c++\10.2.1\bits\basic_string.h **** // terms of the GNU General Public License as published by the
   8:c:\users\toesc\documents\daisytoolchain\windows\arm-none-eabi\include\c++\10.2.1\bits\basic_string.h **** // Free Software Foundation; either version 3, or (at your option)
   9:c:\users\toesc\documents\daisytoolchain\windows\arm-none-eabi\include\c++\10.2.1\bits\basic_string.h **** // any later version.
  10:c:\users\toesc\documents\daisytoolchain\windows\arm-none-eabi\include\c++\10.2.1\bits\basic_string.h **** 
  11:c:\users\toesc\documents\daisytoolchain\windows\arm-none-eabi\include\c++\10.2.1\bits\basic_string.h **** // This library is distributed in the hope that it will be useful,
  12:c:\users\toesc\documents\daisytoolchain\windows\arm-none-eabi\include\c++\10.2.1\bits\basic_string.h **** // but WITHOUT ANY WARRANTY; without even the implied warranty of
  13:c:\users\toesc\documents\daisytoolchain\windows\arm-none-eabi\include\c++\10.2.1\bits\basic_string.h **** // MERCHANTABILITY or FITNESS FOR A PARTICULAR PURPOSE.  See the
  14:c:\users\toesc\documents\daisytoolchain\windows\arm-none-eabi\include\c++\10.2.1\bits\basic_string.h **** // GNU General Public License for more details.
  15:c:\users\toesc\documents\daisytoolchain\windows\arm-none-eabi\include\c++\10.2.1\bits\basic_string.h **** 
  16:c:\users\toesc\documents\daisytoolchain\windows\arm-none-eabi\include\c++\10.2.1\bits\basic_string.h **** // Under Section 7 of GPL version 3, you are granted additional
  17:c:\users\toesc\documents\daisytoolchain\windows\arm-none-eabi\include\c++\10.2.1\bits\basic_string.h **** // permissions described in the GCC Runtime Library Exception, version
  18:c:\users\toesc\documents\daisytoolchain\windows\arm-none-eabi\include\c++\10.2.1\bits\basic_string.h **** // 3.1, as published by the Free Software Foundation.
  19:c:\users\toesc\documents\daisytoolchain\windows\arm-none-eabi\include\c++\10.2.1\bits\basic_string.h **** 
  20:c:\users\toesc\documents\daisytoolchain\windows\arm-none-eabi\include\c++\10.2.1\bits\basic_string.h **** // You should have received a copy of the GNU General Public License and
  21:c:\users\toesc\documents\daisytoolchain\windows\arm-none-eabi\include\c++\10.2.1\bits\basic_string.h **** // a copy of the GCC Runtime Library Exception along with this program;
  22:c:\users\toesc\documents\daisytoolchain\windows\arm-none-eabi\include\c++\10.2.1\bits\basic_string.h **** // see the files COPYING3 and COPYING.RUNTIME respectively.  If not, see
  23:c:\users\toesc\documents\daisytoolchain\windows\arm-none-eabi\include\c++\10.2.1\bits\basic_string.h **** // <http://www.gnu.org/licenses/>.
  24:c:\users\toesc\documents\daisytoolchain\windows\arm-none-eabi\include\c++\10.2.1\bits\basic_string.h **** 
  25:c:\users\toesc\documents\daisytoolchain\windows\arm-none-eabi\include\c++\10.2.1\bits\basic_string.h **** /** @file bits/basic_string.h
  26:c:\users\toesc\documents\daisytoolchain\windows\arm-none-eabi\include\c++\10.2.1\bits\basic_string.h ****  *  This is an internal header file, included by other library headers.
ARM GAS  C:\Users\toesc\AppData\Local\Temp\ccZujPQb.s 			page 39


  27:c:\users\toesc\documents\daisytoolchain\windows\arm-none-eabi\include\c++\10.2.1\bits\basic_string.h ****  *  Do not attempt to use it directly. @headername{string}
  28:c:\users\toesc\documents\daisytoolchain\windows\arm-none-eabi\include\c++\10.2.1\bits\basic_string.h ****  */
  29:c:\users\toesc\documents\daisytoolchain\windows\arm-none-eabi\include\c++\10.2.1\bits\basic_string.h **** 
  30:c:\users\toesc\documents\daisytoolchain\windows\arm-none-eabi\include\c++\10.2.1\bits\basic_string.h **** //
  31:c:\users\toesc\documents\daisytoolchain\windows\arm-none-eabi\include\c++\10.2.1\bits\basic_string.h **** // ISO C++ 14882: 21 Strings library
  32:c:\users\toesc\documents\daisytoolchain\windows\arm-none-eabi\include\c++\10.2.1\bits\basic_string.h **** //
  33:c:\users\toesc\documents\daisytoolchain\windows\arm-none-eabi\include\c++\10.2.1\bits\basic_string.h **** 
  34:c:\users\toesc\documents\daisytoolchain\windows\arm-none-eabi\include\c++\10.2.1\bits\basic_string.h **** #ifndef _BASIC_STRING_H
  35:c:\users\toesc\documents\daisytoolchain\windows\arm-none-eabi\include\c++\10.2.1\bits\basic_string.h **** #define _BASIC_STRING_H 1
  36:c:\users\toesc\documents\daisytoolchain\windows\arm-none-eabi\include\c++\10.2.1\bits\basic_string.h **** 
  37:c:\users\toesc\documents\daisytoolchain\windows\arm-none-eabi\include\c++\10.2.1\bits\basic_string.h **** #pragma GCC system_header
  38:c:\users\toesc\documents\daisytoolchain\windows\arm-none-eabi\include\c++\10.2.1\bits\basic_string.h **** 
  39:c:\users\toesc\documents\daisytoolchain\windows\arm-none-eabi\include\c++\10.2.1\bits\basic_string.h **** #include <ext/atomicity.h>
  40:c:\users\toesc\documents\daisytoolchain\windows\arm-none-eabi\include\c++\10.2.1\bits\basic_string.h **** #include <ext/alloc_traits.h>
  41:c:\users\toesc\documents\daisytoolchain\windows\arm-none-eabi\include\c++\10.2.1\bits\basic_string.h **** #include <debug/debug.h>
  42:c:\users\toesc\documents\daisytoolchain\windows\arm-none-eabi\include\c++\10.2.1\bits\basic_string.h **** 
  43:c:\users\toesc\documents\daisytoolchain\windows\arm-none-eabi\include\c++\10.2.1\bits\basic_string.h **** #if __cplusplus >= 201103L
  44:c:\users\toesc\documents\daisytoolchain\windows\arm-none-eabi\include\c++\10.2.1\bits\basic_string.h **** #include <initializer_list>
  45:c:\users\toesc\documents\daisytoolchain\windows\arm-none-eabi\include\c++\10.2.1\bits\basic_string.h **** #endif
  46:c:\users\toesc\documents\daisytoolchain\windows\arm-none-eabi\include\c++\10.2.1\bits\basic_string.h **** 
  47:c:\users\toesc\documents\daisytoolchain\windows\arm-none-eabi\include\c++\10.2.1\bits\basic_string.h **** #if __cplusplus >= 201703L
  48:c:\users\toesc\documents\daisytoolchain\windows\arm-none-eabi\include\c++\10.2.1\bits\basic_string.h **** # include <string_view>
  49:c:\users\toesc\documents\daisytoolchain\windows\arm-none-eabi\include\c++\10.2.1\bits\basic_string.h **** #endif
  50:c:\users\toesc\documents\daisytoolchain\windows\arm-none-eabi\include\c++\10.2.1\bits\basic_string.h **** 
  51:c:\users\toesc\documents\daisytoolchain\windows\arm-none-eabi\include\c++\10.2.1\bits\basic_string.h **** 
  52:c:\users\toesc\documents\daisytoolchain\windows\arm-none-eabi\include\c++\10.2.1\bits\basic_string.h **** namespace std _GLIBCXX_VISIBILITY(default)
  53:c:\users\toesc\documents\daisytoolchain\windows\arm-none-eabi\include\c++\10.2.1\bits\basic_string.h **** {
  54:c:\users\toesc\documents\daisytoolchain\windows\arm-none-eabi\include\c++\10.2.1\bits\basic_string.h **** _GLIBCXX_BEGIN_NAMESPACE_VERSION
  55:c:\users\toesc\documents\daisytoolchain\windows\arm-none-eabi\include\c++\10.2.1\bits\basic_string.h **** 
  56:c:\users\toesc\documents\daisytoolchain\windows\arm-none-eabi\include\c++\10.2.1\bits\basic_string.h **** #if _GLIBCXX_USE_CXX11_ABI
  57:c:\users\toesc\documents\daisytoolchain\windows\arm-none-eabi\include\c++\10.2.1\bits\basic_string.h **** _GLIBCXX_BEGIN_NAMESPACE_CXX11
  58:c:\users\toesc\documents\daisytoolchain\windows\arm-none-eabi\include\c++\10.2.1\bits\basic_string.h ****   /**
  59:c:\users\toesc\documents\daisytoolchain\windows\arm-none-eabi\include\c++\10.2.1\bits\basic_string.h ****    *  @class basic_string basic_string.h <string>
  60:c:\users\toesc\documents\daisytoolchain\windows\arm-none-eabi\include\c++\10.2.1\bits\basic_string.h ****    *  @brief  Managing sequences of characters and character-like objects.
  61:c:\users\toesc\documents\daisytoolchain\windows\arm-none-eabi\include\c++\10.2.1\bits\basic_string.h ****    *
  62:c:\users\toesc\documents\daisytoolchain\windows\arm-none-eabi\include\c++\10.2.1\bits\basic_string.h ****    *  @ingroup strings
  63:c:\users\toesc\documents\daisytoolchain\windows\arm-none-eabi\include\c++\10.2.1\bits\basic_string.h ****    *  @ingroup sequences
  64:c:\users\toesc\documents\daisytoolchain\windows\arm-none-eabi\include\c++\10.2.1\bits\basic_string.h ****    *
  65:c:\users\toesc\documents\daisytoolchain\windows\arm-none-eabi\include\c++\10.2.1\bits\basic_string.h ****    *  @tparam _CharT  Type of character
  66:c:\users\toesc\documents\daisytoolchain\windows\arm-none-eabi\include\c++\10.2.1\bits\basic_string.h ****    *  @tparam _Traits  Traits for character type, defaults to
  67:c:\users\toesc\documents\daisytoolchain\windows\arm-none-eabi\include\c++\10.2.1\bits\basic_string.h ****    *                   char_traits<_CharT>.
  68:c:\users\toesc\documents\daisytoolchain\windows\arm-none-eabi\include\c++\10.2.1\bits\basic_string.h ****    *  @tparam _Alloc  Allocator type, defaults to allocator<_CharT>.
  69:c:\users\toesc\documents\daisytoolchain\windows\arm-none-eabi\include\c++\10.2.1\bits\basic_string.h ****    *
  70:c:\users\toesc\documents\daisytoolchain\windows\arm-none-eabi\include\c++\10.2.1\bits\basic_string.h ****    *  Meets the requirements of a <a href="tables.html#65">container</a>, a
  71:c:\users\toesc\documents\daisytoolchain\windows\arm-none-eabi\include\c++\10.2.1\bits\basic_string.h ****    *  <a href="tables.html#66">reversible container</a>, and a
  72:c:\users\toesc\documents\daisytoolchain\windows\arm-none-eabi\include\c++\10.2.1\bits\basic_string.h ****    *  <a href="tables.html#67">sequence</a>.  Of the
  73:c:\users\toesc\documents\daisytoolchain\windows\arm-none-eabi\include\c++\10.2.1\bits\basic_string.h ****    *  <a href="tables.html#68">optional sequence requirements</a>, only
  74:c:\users\toesc\documents\daisytoolchain\windows\arm-none-eabi\include\c++\10.2.1\bits\basic_string.h ****    *  @c push_back, @c at, and @c %array access are supported.
  75:c:\users\toesc\documents\daisytoolchain\windows\arm-none-eabi\include\c++\10.2.1\bits\basic_string.h ****    */
  76:c:\users\toesc\documents\daisytoolchain\windows\arm-none-eabi\include\c++\10.2.1\bits\basic_string.h ****   template<typename _CharT, typename _Traits, typename _Alloc>
  77:c:\users\toesc\documents\daisytoolchain\windows\arm-none-eabi\include\c++\10.2.1\bits\basic_string.h ****     class basic_string
  78:c:\users\toesc\documents\daisytoolchain\windows\arm-none-eabi\include\c++\10.2.1\bits\basic_string.h ****     {
  79:c:\users\toesc\documents\daisytoolchain\windows\arm-none-eabi\include\c++\10.2.1\bits\basic_string.h ****       typedef typename __gnu_cxx::__alloc_traits<_Alloc>::template
  80:c:\users\toesc\documents\daisytoolchain\windows\arm-none-eabi\include\c++\10.2.1\bits\basic_string.h **** 	rebind<_CharT>::other _Char_alloc_type;
  81:c:\users\toesc\documents\daisytoolchain\windows\arm-none-eabi\include\c++\10.2.1\bits\basic_string.h ****       typedef __gnu_cxx::__alloc_traits<_Char_alloc_type> _Alloc_traits;
  82:c:\users\toesc\documents\daisytoolchain\windows\arm-none-eabi\include\c++\10.2.1\bits\basic_string.h **** 
  83:c:\users\toesc\documents\daisytoolchain\windows\arm-none-eabi\include\c++\10.2.1\bits\basic_string.h ****       // Types:
ARM GAS  C:\Users\toesc\AppData\Local\Temp\ccZujPQb.s 			page 40


  84:c:\users\toesc\documents\daisytoolchain\windows\arm-none-eabi\include\c++\10.2.1\bits\basic_string.h ****     public:
  85:c:\users\toesc\documents\daisytoolchain\windows\arm-none-eabi\include\c++\10.2.1\bits\basic_string.h ****       typedef _Traits					traits_type;
  86:c:\users\toesc\documents\daisytoolchain\windows\arm-none-eabi\include\c++\10.2.1\bits\basic_string.h ****       typedef typename _Traits::char_type		value_type;
  87:c:\users\toesc\documents\daisytoolchain\windows\arm-none-eabi\include\c++\10.2.1\bits\basic_string.h ****       typedef _Char_alloc_type				allocator_type;
  88:c:\users\toesc\documents\daisytoolchain\windows\arm-none-eabi\include\c++\10.2.1\bits\basic_string.h ****       typedef typename _Alloc_traits::size_type		size_type;
  89:c:\users\toesc\documents\daisytoolchain\windows\arm-none-eabi\include\c++\10.2.1\bits\basic_string.h ****       typedef typename _Alloc_traits::difference_type	difference_type;
  90:c:\users\toesc\documents\daisytoolchain\windows\arm-none-eabi\include\c++\10.2.1\bits\basic_string.h ****       typedef typename _Alloc_traits::reference		reference;
  91:c:\users\toesc\documents\daisytoolchain\windows\arm-none-eabi\include\c++\10.2.1\bits\basic_string.h ****       typedef typename _Alloc_traits::const_reference	const_reference;
  92:c:\users\toesc\documents\daisytoolchain\windows\arm-none-eabi\include\c++\10.2.1\bits\basic_string.h ****       typedef typename _Alloc_traits::pointer		pointer;
  93:c:\users\toesc\documents\daisytoolchain\windows\arm-none-eabi\include\c++\10.2.1\bits\basic_string.h ****       typedef typename _Alloc_traits::const_pointer	const_pointer;
  94:c:\users\toesc\documents\daisytoolchain\windows\arm-none-eabi\include\c++\10.2.1\bits\basic_string.h ****       typedef __gnu_cxx::__normal_iterator<pointer, basic_string>  iterator;
  95:c:\users\toesc\documents\daisytoolchain\windows\arm-none-eabi\include\c++\10.2.1\bits\basic_string.h ****       typedef __gnu_cxx::__normal_iterator<const_pointer, basic_string>
  96:c:\users\toesc\documents\daisytoolchain\windows\arm-none-eabi\include\c++\10.2.1\bits\basic_string.h **** 							const_iterator;
  97:c:\users\toesc\documents\daisytoolchain\windows\arm-none-eabi\include\c++\10.2.1\bits\basic_string.h ****       typedef std::reverse_iterator<const_iterator>	const_reverse_iterator;
  98:c:\users\toesc\documents\daisytoolchain\windows\arm-none-eabi\include\c++\10.2.1\bits\basic_string.h ****       typedef std::reverse_iterator<iterator>		reverse_iterator;
  99:c:\users\toesc\documents\daisytoolchain\windows\arm-none-eabi\include\c++\10.2.1\bits\basic_string.h **** 
 100:c:\users\toesc\documents\daisytoolchain\windows\arm-none-eabi\include\c++\10.2.1\bits\basic_string.h ****       ///  Value returned by various member functions when they fail.
 101:c:\users\toesc\documents\daisytoolchain\windows\arm-none-eabi\include\c++\10.2.1\bits\basic_string.h ****       static const size_type	npos = static_cast<size_type>(-1);
 102:c:\users\toesc\documents\daisytoolchain\windows\arm-none-eabi\include\c++\10.2.1\bits\basic_string.h **** 
 103:c:\users\toesc\documents\daisytoolchain\windows\arm-none-eabi\include\c++\10.2.1\bits\basic_string.h ****     protected:
 104:c:\users\toesc\documents\daisytoolchain\windows\arm-none-eabi\include\c++\10.2.1\bits\basic_string.h ****       // type used for positions in insert, erase etc.
 105:c:\users\toesc\documents\daisytoolchain\windows\arm-none-eabi\include\c++\10.2.1\bits\basic_string.h **** #if __cplusplus < 201103L
 106:c:\users\toesc\documents\daisytoolchain\windows\arm-none-eabi\include\c++\10.2.1\bits\basic_string.h ****       typedef iterator __const_iterator;
 107:c:\users\toesc\documents\daisytoolchain\windows\arm-none-eabi\include\c++\10.2.1\bits\basic_string.h **** #else
 108:c:\users\toesc\documents\daisytoolchain\windows\arm-none-eabi\include\c++\10.2.1\bits\basic_string.h ****       typedef const_iterator __const_iterator;
 109:c:\users\toesc\documents\daisytoolchain\windows\arm-none-eabi\include\c++\10.2.1\bits\basic_string.h **** #endif
 110:c:\users\toesc\documents\daisytoolchain\windows\arm-none-eabi\include\c++\10.2.1\bits\basic_string.h **** 
 111:c:\users\toesc\documents\daisytoolchain\windows\arm-none-eabi\include\c++\10.2.1\bits\basic_string.h ****     private:
 112:c:\users\toesc\documents\daisytoolchain\windows\arm-none-eabi\include\c++\10.2.1\bits\basic_string.h **** #if __cplusplus >= 201703L
 113:c:\users\toesc\documents\daisytoolchain\windows\arm-none-eabi\include\c++\10.2.1\bits\basic_string.h ****       // A helper type for avoiding boiler-plate.
 114:c:\users\toesc\documents\daisytoolchain\windows\arm-none-eabi\include\c++\10.2.1\bits\basic_string.h ****       typedef basic_string_view<_CharT, _Traits> __sv_type;
 115:c:\users\toesc\documents\daisytoolchain\windows\arm-none-eabi\include\c++\10.2.1\bits\basic_string.h **** 
 116:c:\users\toesc\documents\daisytoolchain\windows\arm-none-eabi\include\c++\10.2.1\bits\basic_string.h ****       template<typename _Tp, typename _Res>
 117:c:\users\toesc\documents\daisytoolchain\windows\arm-none-eabi\include\c++\10.2.1\bits\basic_string.h **** 	using _If_sv = enable_if_t<
 118:c:\users\toesc\documents\daisytoolchain\windows\arm-none-eabi\include\c++\10.2.1\bits\basic_string.h **** 	  __and_<is_convertible<const _Tp&, __sv_type>,
 119:c:\users\toesc\documents\daisytoolchain\windows\arm-none-eabi\include\c++\10.2.1\bits\basic_string.h **** 		 __not_<is_convertible<const _Tp*, const basic_string*>>,
 120:c:\users\toesc\documents\daisytoolchain\windows\arm-none-eabi\include\c++\10.2.1\bits\basic_string.h **** 		 __not_<is_convertible<const _Tp&, const _CharT*>>>::value,
 121:c:\users\toesc\documents\daisytoolchain\windows\arm-none-eabi\include\c++\10.2.1\bits\basic_string.h **** 	  _Res>;
 122:c:\users\toesc\documents\daisytoolchain\windows\arm-none-eabi\include\c++\10.2.1\bits\basic_string.h **** 
 123:c:\users\toesc\documents\daisytoolchain\windows\arm-none-eabi\include\c++\10.2.1\bits\basic_string.h ****       // Allows an implicit conversion to __sv_type.
 124:c:\users\toesc\documents\daisytoolchain\windows\arm-none-eabi\include\c++\10.2.1\bits\basic_string.h ****       static __sv_type
 125:c:\users\toesc\documents\daisytoolchain\windows\arm-none-eabi\include\c++\10.2.1\bits\basic_string.h ****       _S_to_string_view(__sv_type __svt) noexcept
 126:c:\users\toesc\documents\daisytoolchain\windows\arm-none-eabi\include\c++\10.2.1\bits\basic_string.h ****       { return __svt; }
 127:c:\users\toesc\documents\daisytoolchain\windows\arm-none-eabi\include\c++\10.2.1\bits\basic_string.h **** 
 128:c:\users\toesc\documents\daisytoolchain\windows\arm-none-eabi\include\c++\10.2.1\bits\basic_string.h ****       // Wraps a string_view by explicit conversion and thus
 129:c:\users\toesc\documents\daisytoolchain\windows\arm-none-eabi\include\c++\10.2.1\bits\basic_string.h ****       // allows to add an internal constructor that does not
 130:c:\users\toesc\documents\daisytoolchain\windows\arm-none-eabi\include\c++\10.2.1\bits\basic_string.h ****       // participate in overload resolution when a string_view
 131:c:\users\toesc\documents\daisytoolchain\windows\arm-none-eabi\include\c++\10.2.1\bits\basic_string.h ****       // is provided.
 132:c:\users\toesc\documents\daisytoolchain\windows\arm-none-eabi\include\c++\10.2.1\bits\basic_string.h ****       struct __sv_wrapper
 133:c:\users\toesc\documents\daisytoolchain\windows\arm-none-eabi\include\c++\10.2.1\bits\basic_string.h ****       {
 134:c:\users\toesc\documents\daisytoolchain\windows\arm-none-eabi\include\c++\10.2.1\bits\basic_string.h **** 	explicit __sv_wrapper(__sv_type __sv) noexcept : _M_sv(__sv) { }
 135:c:\users\toesc\documents\daisytoolchain\windows\arm-none-eabi\include\c++\10.2.1\bits\basic_string.h **** 	__sv_type _M_sv;
 136:c:\users\toesc\documents\daisytoolchain\windows\arm-none-eabi\include\c++\10.2.1\bits\basic_string.h ****       };
 137:c:\users\toesc\documents\daisytoolchain\windows\arm-none-eabi\include\c++\10.2.1\bits\basic_string.h **** 
 138:c:\users\toesc\documents\daisytoolchain\windows\arm-none-eabi\include\c++\10.2.1\bits\basic_string.h ****       /**
 139:c:\users\toesc\documents\daisytoolchain\windows\arm-none-eabi\include\c++\10.2.1\bits\basic_string.h ****        *  @brief  Only internally used: Construct string from a string view
 140:c:\users\toesc\documents\daisytoolchain\windows\arm-none-eabi\include\c++\10.2.1\bits\basic_string.h ****        *          wrapper.
ARM GAS  C:\Users\toesc\AppData\Local\Temp\ccZujPQb.s 			page 41


 141:c:\users\toesc\documents\daisytoolchain\windows\arm-none-eabi\include\c++\10.2.1\bits\basic_string.h ****        *  @param  __svw  string view wrapper.
 142:c:\users\toesc\documents\daisytoolchain\windows\arm-none-eabi\include\c++\10.2.1\bits\basic_string.h ****        *  @param  __a  Allocator to use.
 143:c:\users\toesc\documents\daisytoolchain\windows\arm-none-eabi\include\c++\10.2.1\bits\basic_string.h ****        */
 144:c:\users\toesc\documents\daisytoolchain\windows\arm-none-eabi\include\c++\10.2.1\bits\basic_string.h ****       explicit
 145:c:\users\toesc\documents\daisytoolchain\windows\arm-none-eabi\include\c++\10.2.1\bits\basic_string.h ****       basic_string(__sv_wrapper __svw, const _Alloc& __a)
 146:c:\users\toesc\documents\daisytoolchain\windows\arm-none-eabi\include\c++\10.2.1\bits\basic_string.h ****       : basic_string(__svw._M_sv.data(), __svw._M_sv.size(), __a) { }
 147:c:\users\toesc\documents\daisytoolchain\windows\arm-none-eabi\include\c++\10.2.1\bits\basic_string.h **** #endif
 148:c:\users\toesc\documents\daisytoolchain\windows\arm-none-eabi\include\c++\10.2.1\bits\basic_string.h **** 
 149:c:\users\toesc\documents\daisytoolchain\windows\arm-none-eabi\include\c++\10.2.1\bits\basic_string.h ****       // Use empty-base optimization: http://www.cantrip.org/emptyopt.html
 150:c:\users\toesc\documents\daisytoolchain\windows\arm-none-eabi\include\c++\10.2.1\bits\basic_string.h ****       struct _Alloc_hider : allocator_type // TODO check __is_final
 151:c:\users\toesc\documents\daisytoolchain\windows\arm-none-eabi\include\c++\10.2.1\bits\basic_string.h ****       {
 152:c:\users\toesc\documents\daisytoolchain\windows\arm-none-eabi\include\c++\10.2.1\bits\basic_string.h **** #if __cplusplus < 201103L
 153:c:\users\toesc\documents\daisytoolchain\windows\arm-none-eabi\include\c++\10.2.1\bits\basic_string.h **** 	_Alloc_hider(pointer __dat, const _Alloc& __a = _Alloc())
 154:c:\users\toesc\documents\daisytoolchain\windows\arm-none-eabi\include\c++\10.2.1\bits\basic_string.h **** 	: allocator_type(__a), _M_p(__dat) { }
 155:c:\users\toesc\documents\daisytoolchain\windows\arm-none-eabi\include\c++\10.2.1\bits\basic_string.h **** #else
 156:c:\users\toesc\documents\daisytoolchain\windows\arm-none-eabi\include\c++\10.2.1\bits\basic_string.h **** 	_Alloc_hider(pointer __dat, const _Alloc& __a)
 157:c:\users\toesc\documents\daisytoolchain\windows\arm-none-eabi\include\c++\10.2.1\bits\basic_string.h **** 	: allocator_type(__a), _M_p(__dat) { }
 158:c:\users\toesc\documents\daisytoolchain\windows\arm-none-eabi\include\c++\10.2.1\bits\basic_string.h **** 
 159:c:\users\toesc\documents\daisytoolchain\windows\arm-none-eabi\include\c++\10.2.1\bits\basic_string.h **** 	_Alloc_hider(pointer __dat, _Alloc&& __a = _Alloc())
 160:c:\users\toesc\documents\daisytoolchain\windows\arm-none-eabi\include\c++\10.2.1\bits\basic_string.h **** 	: allocator_type(std::move(__a)), _M_p(__dat) { }
 161:c:\users\toesc\documents\daisytoolchain\windows\arm-none-eabi\include\c++\10.2.1\bits\basic_string.h **** #endif
 162:c:\users\toesc\documents\daisytoolchain\windows\arm-none-eabi\include\c++\10.2.1\bits\basic_string.h **** 
 163:c:\users\toesc\documents\daisytoolchain\windows\arm-none-eabi\include\c++\10.2.1\bits\basic_string.h **** 	pointer _M_p; // The actual data.
 164:c:\users\toesc\documents\daisytoolchain\windows\arm-none-eabi\include\c++\10.2.1\bits\basic_string.h ****       };
 165:c:\users\toesc\documents\daisytoolchain\windows\arm-none-eabi\include\c++\10.2.1\bits\basic_string.h **** 
 166:c:\users\toesc\documents\daisytoolchain\windows\arm-none-eabi\include\c++\10.2.1\bits\basic_string.h ****       _Alloc_hider	_M_dataplus;
 167:c:\users\toesc\documents\daisytoolchain\windows\arm-none-eabi\include\c++\10.2.1\bits\basic_string.h ****       size_type		_M_string_length;
 168:c:\users\toesc\documents\daisytoolchain\windows\arm-none-eabi\include\c++\10.2.1\bits\basic_string.h **** 
 169:c:\users\toesc\documents\daisytoolchain\windows\arm-none-eabi\include\c++\10.2.1\bits\basic_string.h ****       enum { _S_local_capacity = 15 / sizeof(_CharT) };
 170:c:\users\toesc\documents\daisytoolchain\windows\arm-none-eabi\include\c++\10.2.1\bits\basic_string.h **** 
 171:c:\users\toesc\documents\daisytoolchain\windows\arm-none-eabi\include\c++\10.2.1\bits\basic_string.h ****       union
 172:c:\users\toesc\documents\daisytoolchain\windows\arm-none-eabi\include\c++\10.2.1\bits\basic_string.h ****       {
 173:c:\users\toesc\documents\daisytoolchain\windows\arm-none-eabi\include\c++\10.2.1\bits\basic_string.h **** 	_CharT           _M_local_buf[_S_local_capacity + 1];
 174:c:\users\toesc\documents\daisytoolchain\windows\arm-none-eabi\include\c++\10.2.1\bits\basic_string.h **** 	size_type        _M_allocated_capacity;
 175:c:\users\toesc\documents\daisytoolchain\windows\arm-none-eabi\include\c++\10.2.1\bits\basic_string.h ****       };
 176:c:\users\toesc\documents\daisytoolchain\windows\arm-none-eabi\include\c++\10.2.1\bits\basic_string.h **** 
 177:c:\users\toesc\documents\daisytoolchain\windows\arm-none-eabi\include\c++\10.2.1\bits\basic_string.h ****       void
 178:c:\users\toesc\documents\daisytoolchain\windows\arm-none-eabi\include\c++\10.2.1\bits\basic_string.h ****       _M_data(pointer __p)
 179:c:\users\toesc\documents\daisytoolchain\windows\arm-none-eabi\include\c++\10.2.1\bits\basic_string.h ****       { _M_dataplus._M_p = __p; }
 180:c:\users\toesc\documents\daisytoolchain\windows\arm-none-eabi\include\c++\10.2.1\bits\basic_string.h **** 
 181:c:\users\toesc\documents\daisytoolchain\windows\arm-none-eabi\include\c++\10.2.1\bits\basic_string.h ****       void
 182:c:\users\toesc\documents\daisytoolchain\windows\arm-none-eabi\include\c++\10.2.1\bits\basic_string.h ****       _M_length(size_type __length)
 183:c:\users\toesc\documents\daisytoolchain\windows\arm-none-eabi\include\c++\10.2.1\bits\basic_string.h ****       { _M_string_length = __length; }
 184:c:\users\toesc\documents\daisytoolchain\windows\arm-none-eabi\include\c++\10.2.1\bits\basic_string.h **** 
 185:c:\users\toesc\documents\daisytoolchain\windows\arm-none-eabi\include\c++\10.2.1\bits\basic_string.h ****       pointer
 186:c:\users\toesc\documents\daisytoolchain\windows\arm-none-eabi\include\c++\10.2.1\bits\basic_string.h ****       _M_data() const
 187:c:\users\toesc\documents\daisytoolchain\windows\arm-none-eabi\include\c++\10.2.1\bits\basic_string.h ****       { return _M_dataplus._M_p; }
 188:c:\users\toesc\documents\daisytoolchain\windows\arm-none-eabi\include\c++\10.2.1\bits\basic_string.h **** 
 189:c:\users\toesc\documents\daisytoolchain\windows\arm-none-eabi\include\c++\10.2.1\bits\basic_string.h ****       pointer
 190:c:\users\toesc\documents\daisytoolchain\windows\arm-none-eabi\include\c++\10.2.1\bits\basic_string.h ****       _M_local_data()
 191:c:\users\toesc\documents\daisytoolchain\windows\arm-none-eabi\include\c++\10.2.1\bits\basic_string.h ****       {
 192:c:\users\toesc\documents\daisytoolchain\windows\arm-none-eabi\include\c++\10.2.1\bits\basic_string.h **** #if __cplusplus >= 201103L
 193:c:\users\toesc\documents\daisytoolchain\windows\arm-none-eabi\include\c++\10.2.1\bits\basic_string.h **** 	return std::pointer_traits<pointer>::pointer_to(*_M_local_buf);
 194:c:\users\toesc\documents\daisytoolchain\windows\arm-none-eabi\include\c++\10.2.1\bits\basic_string.h **** #else
 195:c:\users\toesc\documents\daisytoolchain\windows\arm-none-eabi\include\c++\10.2.1\bits\basic_string.h **** 	return pointer(_M_local_buf);
 196:c:\users\toesc\documents\daisytoolchain\windows\arm-none-eabi\include\c++\10.2.1\bits\basic_string.h **** #endif
 197:c:\users\toesc\documents\daisytoolchain\windows\arm-none-eabi\include\c++\10.2.1\bits\basic_string.h ****       }
ARM GAS  C:\Users\toesc\AppData\Local\Temp\ccZujPQb.s 			page 42


 198:c:\users\toesc\documents\daisytoolchain\windows\arm-none-eabi\include\c++\10.2.1\bits\basic_string.h **** 
 199:c:\users\toesc\documents\daisytoolchain\windows\arm-none-eabi\include\c++\10.2.1\bits\basic_string.h ****       const_pointer
 200:c:\users\toesc\documents\daisytoolchain\windows\arm-none-eabi\include\c++\10.2.1\bits\basic_string.h ****       _M_local_data() const
 201:c:\users\toesc\documents\daisytoolchain\windows\arm-none-eabi\include\c++\10.2.1\bits\basic_string.h ****       {
 202:c:\users\toesc\documents\daisytoolchain\windows\arm-none-eabi\include\c++\10.2.1\bits\basic_string.h **** #if __cplusplus >= 201103L
 203:c:\users\toesc\documents\daisytoolchain\windows\arm-none-eabi\include\c++\10.2.1\bits\basic_string.h **** 	return std::pointer_traits<const_pointer>::pointer_to(*_M_local_buf);
 204:c:\users\toesc\documents\daisytoolchain\windows\arm-none-eabi\include\c++\10.2.1\bits\basic_string.h **** #else
 205:c:\users\toesc\documents\daisytoolchain\windows\arm-none-eabi\include\c++\10.2.1\bits\basic_string.h **** 	return const_pointer(_M_local_buf);
 206:c:\users\toesc\documents\daisytoolchain\windows\arm-none-eabi\include\c++\10.2.1\bits\basic_string.h **** #endif
 207:c:\users\toesc\documents\daisytoolchain\windows\arm-none-eabi\include\c++\10.2.1\bits\basic_string.h ****       }
 208:c:\users\toesc\documents\daisytoolchain\windows\arm-none-eabi\include\c++\10.2.1\bits\basic_string.h **** 
 209:c:\users\toesc\documents\daisytoolchain\windows\arm-none-eabi\include\c++\10.2.1\bits\basic_string.h ****       void
 210:c:\users\toesc\documents\daisytoolchain\windows\arm-none-eabi\include\c++\10.2.1\bits\basic_string.h ****       _M_capacity(size_type __capacity)
 211:c:\users\toesc\documents\daisytoolchain\windows\arm-none-eabi\include\c++\10.2.1\bits\basic_string.h ****       { _M_allocated_capacity = __capacity; }
 212:c:\users\toesc\documents\daisytoolchain\windows\arm-none-eabi\include\c++\10.2.1\bits\basic_string.h **** 
 213:c:\users\toesc\documents\daisytoolchain\windows\arm-none-eabi\include\c++\10.2.1\bits\basic_string.h ****       void
 214:c:\users\toesc\documents\daisytoolchain\windows\arm-none-eabi\include\c++\10.2.1\bits\basic_string.h ****       _M_set_length(size_type __n)
 215:c:\users\toesc\documents\daisytoolchain\windows\arm-none-eabi\include\c++\10.2.1\bits\basic_string.h ****       {
 216:c:\users\toesc\documents\daisytoolchain\windows\arm-none-eabi\include\c++\10.2.1\bits\basic_string.h **** 	_M_length(__n);
 217:c:\users\toesc\documents\daisytoolchain\windows\arm-none-eabi\include\c++\10.2.1\bits\basic_string.h **** 	traits_type::assign(_M_data()[__n], _CharT());
 218:c:\users\toesc\documents\daisytoolchain\windows\arm-none-eabi\include\c++\10.2.1\bits\basic_string.h ****       }
 219:c:\users\toesc\documents\daisytoolchain\windows\arm-none-eabi\include\c++\10.2.1\bits\basic_string.h **** 
 220:c:\users\toesc\documents\daisytoolchain\windows\arm-none-eabi\include\c++\10.2.1\bits\basic_string.h ****       bool
 221:c:\users\toesc\documents\daisytoolchain\windows\arm-none-eabi\include\c++\10.2.1\bits\basic_string.h ****       _M_is_local() const
 222:c:\users\toesc\documents\daisytoolchain\windows\arm-none-eabi\include\c++\10.2.1\bits\basic_string.h ****       { return _M_data() == _M_local_data(); }
 223:c:\users\toesc\documents\daisytoolchain\windows\arm-none-eabi\include\c++\10.2.1\bits\basic_string.h **** 
 224:c:\users\toesc\documents\daisytoolchain\windows\arm-none-eabi\include\c++\10.2.1\bits\basic_string.h ****       // Create & Destroy
 225:c:\users\toesc\documents\daisytoolchain\windows\arm-none-eabi\include\c++\10.2.1\bits\basic_string.h ****       pointer
 226:c:\users\toesc\documents\daisytoolchain\windows\arm-none-eabi\include\c++\10.2.1\bits\basic_string.h ****       _M_create(size_type&, size_type);
 227:c:\users\toesc\documents\daisytoolchain\windows\arm-none-eabi\include\c++\10.2.1\bits\basic_string.h **** 
 228:c:\users\toesc\documents\daisytoolchain\windows\arm-none-eabi\include\c++\10.2.1\bits\basic_string.h ****       void
 229:c:\users\toesc\documents\daisytoolchain\windows\arm-none-eabi\include\c++\10.2.1\bits\basic_string.h ****       _M_dispose()
 230:c:\users\toesc\documents\daisytoolchain\windows\arm-none-eabi\include\c++\10.2.1\bits\basic_string.h ****       {
 231:c:\users\toesc\documents\daisytoolchain\windows\arm-none-eabi\include\c++\10.2.1\bits\basic_string.h **** 	if (!_M_is_local())
 232:c:\users\toesc\documents\daisytoolchain\windows\arm-none-eabi\include\c++\10.2.1\bits\basic_string.h **** 	  _M_destroy(_M_allocated_capacity);
 233:c:\users\toesc\documents\daisytoolchain\windows\arm-none-eabi\include\c++\10.2.1\bits\basic_string.h ****       }
 234:c:\users\toesc\documents\daisytoolchain\windows\arm-none-eabi\include\c++\10.2.1\bits\basic_string.h **** 
 235:c:\users\toesc\documents\daisytoolchain\windows\arm-none-eabi\include\c++\10.2.1\bits\basic_string.h ****       void
 236:c:\users\toesc\documents\daisytoolchain\windows\arm-none-eabi\include\c++\10.2.1\bits\basic_string.h ****       _M_destroy(size_type __size) throw()
 237:c:\users\toesc\documents\daisytoolchain\windows\arm-none-eabi\include\c++\10.2.1\bits\basic_string.h ****       { _Alloc_traits::deallocate(_M_get_allocator(), _M_data(), __size + 1); }
 238:c:\users\toesc\documents\daisytoolchain\windows\arm-none-eabi\include\c++\10.2.1\bits\basic_string.h **** 
 239:c:\users\toesc\documents\daisytoolchain\windows\arm-none-eabi\include\c++\10.2.1\bits\basic_string.h ****       // _M_construct_aux is used to implement the 21.3.1 para 15 which
 240:c:\users\toesc\documents\daisytoolchain\windows\arm-none-eabi\include\c++\10.2.1\bits\basic_string.h ****       // requires special behaviour if _InIterator is an integral type
 241:c:\users\toesc\documents\daisytoolchain\windows\arm-none-eabi\include\c++\10.2.1\bits\basic_string.h ****       template<typename _InIterator>
 242:c:\users\toesc\documents\daisytoolchain\windows\arm-none-eabi\include\c++\10.2.1\bits\basic_string.h ****         void
 243:c:\users\toesc\documents\daisytoolchain\windows\arm-none-eabi\include\c++\10.2.1\bits\basic_string.h ****         _M_construct_aux(_InIterator __beg, _InIterator __end,
 244:c:\users\toesc\documents\daisytoolchain\windows\arm-none-eabi\include\c++\10.2.1\bits\basic_string.h **** 			 std::__false_type)
 245:c:\users\toesc\documents\daisytoolchain\windows\arm-none-eabi\include\c++\10.2.1\bits\basic_string.h **** 	{
 246:c:\users\toesc\documents\daisytoolchain\windows\arm-none-eabi\include\c++\10.2.1\bits\basic_string.h ****           typedef typename iterator_traits<_InIterator>::iterator_category _Tag;
 247:c:\users\toesc\documents\daisytoolchain\windows\arm-none-eabi\include\c++\10.2.1\bits\basic_string.h ****           _M_construct(__beg, __end, _Tag());
 248:c:\users\toesc\documents\daisytoolchain\windows\arm-none-eabi\include\c++\10.2.1\bits\basic_string.h **** 	}
 249:c:\users\toesc\documents\daisytoolchain\windows\arm-none-eabi\include\c++\10.2.1\bits\basic_string.h **** 
 250:c:\users\toesc\documents\daisytoolchain\windows\arm-none-eabi\include\c++\10.2.1\bits\basic_string.h ****       // _GLIBCXX_RESOLVE_LIB_DEFECTS
 251:c:\users\toesc\documents\daisytoolchain\windows\arm-none-eabi\include\c++\10.2.1\bits\basic_string.h ****       // 438. Ambiguity in the "do the right thing" clause
 252:c:\users\toesc\documents\daisytoolchain\windows\arm-none-eabi\include\c++\10.2.1\bits\basic_string.h ****       template<typename _Integer>
 253:c:\users\toesc\documents\daisytoolchain\windows\arm-none-eabi\include\c++\10.2.1\bits\basic_string.h ****         void
 254:c:\users\toesc\documents\daisytoolchain\windows\arm-none-eabi\include\c++\10.2.1\bits\basic_string.h ****         _M_construct_aux(_Integer __beg, _Integer __end, std::__true_type)
ARM GAS  C:\Users\toesc\AppData\Local\Temp\ccZujPQb.s 			page 43


 255:c:\users\toesc\documents\daisytoolchain\windows\arm-none-eabi\include\c++\10.2.1\bits\basic_string.h **** 	{ _M_construct_aux_2(static_cast<size_type>(__beg), __end); }
 256:c:\users\toesc\documents\daisytoolchain\windows\arm-none-eabi\include\c++\10.2.1\bits\basic_string.h **** 
 257:c:\users\toesc\documents\daisytoolchain\windows\arm-none-eabi\include\c++\10.2.1\bits\basic_string.h ****       void
 258:c:\users\toesc\documents\daisytoolchain\windows\arm-none-eabi\include\c++\10.2.1\bits\basic_string.h ****       _M_construct_aux_2(size_type __req, _CharT __c)
 259:c:\users\toesc\documents\daisytoolchain\windows\arm-none-eabi\include\c++\10.2.1\bits\basic_string.h ****       { _M_construct(__req, __c); }
 260:c:\users\toesc\documents\daisytoolchain\windows\arm-none-eabi\include\c++\10.2.1\bits\basic_string.h **** 
 261:c:\users\toesc\documents\daisytoolchain\windows\arm-none-eabi\include\c++\10.2.1\bits\basic_string.h ****       template<typename _InIterator>
 262:c:\users\toesc\documents\daisytoolchain\windows\arm-none-eabi\include\c++\10.2.1\bits\basic_string.h ****         void
 263:c:\users\toesc\documents\daisytoolchain\windows\arm-none-eabi\include\c++\10.2.1\bits\basic_string.h ****         _M_construct(_InIterator __beg, _InIterator __end)
 264:c:\users\toesc\documents\daisytoolchain\windows\arm-none-eabi\include\c++\10.2.1\bits\basic_string.h **** 	{
 265:c:\users\toesc\documents\daisytoolchain\windows\arm-none-eabi\include\c++\10.2.1\bits\basic_string.h **** 	  typedef typename std::__is_integer<_InIterator>::__type _Integral;
 266:c:\users\toesc\documents\daisytoolchain\windows\arm-none-eabi\include\c++\10.2.1\bits\basic_string.h **** 	  _M_construct_aux(__beg, __end, _Integral());
 267:c:\users\toesc\documents\daisytoolchain\windows\arm-none-eabi\include\c++\10.2.1\bits\basic_string.h ****         }
 268:c:\users\toesc\documents\daisytoolchain\windows\arm-none-eabi\include\c++\10.2.1\bits\basic_string.h **** 
 269:c:\users\toesc\documents\daisytoolchain\windows\arm-none-eabi\include\c++\10.2.1\bits\basic_string.h ****       // For Input Iterators, used in istreambuf_iterators, etc.
 270:c:\users\toesc\documents\daisytoolchain\windows\arm-none-eabi\include\c++\10.2.1\bits\basic_string.h ****       template<typename _InIterator>
 271:c:\users\toesc\documents\daisytoolchain\windows\arm-none-eabi\include\c++\10.2.1\bits\basic_string.h ****         void
 272:c:\users\toesc\documents\daisytoolchain\windows\arm-none-eabi\include\c++\10.2.1\bits\basic_string.h ****         _M_construct(_InIterator __beg, _InIterator __end,
 273:c:\users\toesc\documents\daisytoolchain\windows\arm-none-eabi\include\c++\10.2.1\bits\basic_string.h **** 		     std::input_iterator_tag);
 274:c:\users\toesc\documents\daisytoolchain\windows\arm-none-eabi\include\c++\10.2.1\bits\basic_string.h **** 
 275:c:\users\toesc\documents\daisytoolchain\windows\arm-none-eabi\include\c++\10.2.1\bits\basic_string.h ****       // For forward_iterators up to random_access_iterators, used for
 276:c:\users\toesc\documents\daisytoolchain\windows\arm-none-eabi\include\c++\10.2.1\bits\basic_string.h ****       // string::iterator, _CharT*, etc.
 277:c:\users\toesc\documents\daisytoolchain\windows\arm-none-eabi\include\c++\10.2.1\bits\basic_string.h ****       template<typename _FwdIterator>
 278:c:\users\toesc\documents\daisytoolchain\windows\arm-none-eabi\include\c++\10.2.1\bits\basic_string.h ****         void
 279:c:\users\toesc\documents\daisytoolchain\windows\arm-none-eabi\include\c++\10.2.1\bits\basic_string.h ****         _M_construct(_FwdIterator __beg, _FwdIterator __end,
 280:c:\users\toesc\documents\daisytoolchain\windows\arm-none-eabi\include\c++\10.2.1\bits\basic_string.h **** 		     std::forward_iterator_tag);
 281:c:\users\toesc\documents\daisytoolchain\windows\arm-none-eabi\include\c++\10.2.1\bits\basic_string.h **** 
 282:c:\users\toesc\documents\daisytoolchain\windows\arm-none-eabi\include\c++\10.2.1\bits\basic_string.h ****       void
 283:c:\users\toesc\documents\daisytoolchain\windows\arm-none-eabi\include\c++\10.2.1\bits\basic_string.h ****       _M_construct(size_type __req, _CharT __c);
 284:c:\users\toesc\documents\daisytoolchain\windows\arm-none-eabi\include\c++\10.2.1\bits\basic_string.h **** 
 285:c:\users\toesc\documents\daisytoolchain\windows\arm-none-eabi\include\c++\10.2.1\bits\basic_string.h ****       allocator_type&
 286:c:\users\toesc\documents\daisytoolchain\windows\arm-none-eabi\include\c++\10.2.1\bits\basic_string.h ****       _M_get_allocator()
 287:c:\users\toesc\documents\daisytoolchain\windows\arm-none-eabi\include\c++\10.2.1\bits\basic_string.h ****       { return _M_dataplus; }
 288:c:\users\toesc\documents\daisytoolchain\windows\arm-none-eabi\include\c++\10.2.1\bits\basic_string.h **** 
 289:c:\users\toesc\documents\daisytoolchain\windows\arm-none-eabi\include\c++\10.2.1\bits\basic_string.h ****       const allocator_type&
 290:c:\users\toesc\documents\daisytoolchain\windows\arm-none-eabi\include\c++\10.2.1\bits\basic_string.h ****       _M_get_allocator() const
 291:c:\users\toesc\documents\daisytoolchain\windows\arm-none-eabi\include\c++\10.2.1\bits\basic_string.h ****       { return _M_dataplus; }
 292:c:\users\toesc\documents\daisytoolchain\windows\arm-none-eabi\include\c++\10.2.1\bits\basic_string.h **** 
 293:c:\users\toesc\documents\daisytoolchain\windows\arm-none-eabi\include\c++\10.2.1\bits\basic_string.h ****     private:
 294:c:\users\toesc\documents\daisytoolchain\windows\arm-none-eabi\include\c++\10.2.1\bits\basic_string.h **** 
 295:c:\users\toesc\documents\daisytoolchain\windows\arm-none-eabi\include\c++\10.2.1\bits\basic_string.h **** #ifdef _GLIBCXX_DISAMBIGUATE_REPLACE_INST
 296:c:\users\toesc\documents\daisytoolchain\windows\arm-none-eabi\include\c++\10.2.1\bits\basic_string.h ****       // The explicit instantiations in misc-inst.cc require this due to
 297:c:\users\toesc\documents\daisytoolchain\windows\arm-none-eabi\include\c++\10.2.1\bits\basic_string.h ****       // https://gcc.gnu.org/bugzilla/show_bug.cgi?id=64063
 298:c:\users\toesc\documents\daisytoolchain\windows\arm-none-eabi\include\c++\10.2.1\bits\basic_string.h ****       template<typename _Tp, bool _Requires =
 299:c:\users\toesc\documents\daisytoolchain\windows\arm-none-eabi\include\c++\10.2.1\bits\basic_string.h **** 	       !__are_same<_Tp, _CharT*>::__value
 300:c:\users\toesc\documents\daisytoolchain\windows\arm-none-eabi\include\c++\10.2.1\bits\basic_string.h **** 	       && !__are_same<_Tp, const _CharT*>::__value
 301:c:\users\toesc\documents\daisytoolchain\windows\arm-none-eabi\include\c++\10.2.1\bits\basic_string.h **** 	       && !__are_same<_Tp, iterator>::__value
 302:c:\users\toesc\documents\daisytoolchain\windows\arm-none-eabi\include\c++\10.2.1\bits\basic_string.h **** 	       && !__are_same<_Tp, const_iterator>::__value>
 303:c:\users\toesc\documents\daisytoolchain\windows\arm-none-eabi\include\c++\10.2.1\bits\basic_string.h **** 	struct __enable_if_not_native_iterator
 304:c:\users\toesc\documents\daisytoolchain\windows\arm-none-eabi\include\c++\10.2.1\bits\basic_string.h **** 	{ typedef basic_string& __type; };
 305:c:\users\toesc\documents\daisytoolchain\windows\arm-none-eabi\include\c++\10.2.1\bits\basic_string.h ****       template<typename _Tp>
 306:c:\users\toesc\documents\daisytoolchain\windows\arm-none-eabi\include\c++\10.2.1\bits\basic_string.h **** 	struct __enable_if_not_native_iterator<_Tp, false> { };
 307:c:\users\toesc\documents\daisytoolchain\windows\arm-none-eabi\include\c++\10.2.1\bits\basic_string.h **** #endif
 308:c:\users\toesc\documents\daisytoolchain\windows\arm-none-eabi\include\c++\10.2.1\bits\basic_string.h **** 
 309:c:\users\toesc\documents\daisytoolchain\windows\arm-none-eabi\include\c++\10.2.1\bits\basic_string.h ****       size_type
 310:c:\users\toesc\documents\daisytoolchain\windows\arm-none-eabi\include\c++\10.2.1\bits\basic_string.h ****       _M_check(size_type __pos, const char* __s) const
 311:c:\users\toesc\documents\daisytoolchain\windows\arm-none-eabi\include\c++\10.2.1\bits\basic_string.h ****       {
ARM GAS  C:\Users\toesc\AppData\Local\Temp\ccZujPQb.s 			page 44


 312:c:\users\toesc\documents\daisytoolchain\windows\arm-none-eabi\include\c++\10.2.1\bits\basic_string.h **** 	if (__pos > this->size())
 313:c:\users\toesc\documents\daisytoolchain\windows\arm-none-eabi\include\c++\10.2.1\bits\basic_string.h **** 	  __throw_out_of_range_fmt(__N("%s: __pos (which is %zu) > "
 314:c:\users\toesc\documents\daisytoolchain\windows\arm-none-eabi\include\c++\10.2.1\bits\basic_string.h **** 				       "this->size() (which is %zu)"),
 315:c:\users\toesc\documents\daisytoolchain\windows\arm-none-eabi\include\c++\10.2.1\bits\basic_string.h **** 				   __s, __pos, this->size());
 316:c:\users\toesc\documents\daisytoolchain\windows\arm-none-eabi\include\c++\10.2.1\bits\basic_string.h **** 	return __pos;
 317:c:\users\toesc\documents\daisytoolchain\windows\arm-none-eabi\include\c++\10.2.1\bits\basic_string.h ****       }
 318:c:\users\toesc\documents\daisytoolchain\windows\arm-none-eabi\include\c++\10.2.1\bits\basic_string.h **** 
 319:c:\users\toesc\documents\daisytoolchain\windows\arm-none-eabi\include\c++\10.2.1\bits\basic_string.h ****       void
 320:c:\users\toesc\documents\daisytoolchain\windows\arm-none-eabi\include\c++\10.2.1\bits\basic_string.h ****       _M_check_length(size_type __n1, size_type __n2, const char* __s) const
 321:c:\users\toesc\documents\daisytoolchain\windows\arm-none-eabi\include\c++\10.2.1\bits\basic_string.h ****       {
 322:c:\users\toesc\documents\daisytoolchain\windows\arm-none-eabi\include\c++\10.2.1\bits\basic_string.h **** 	if (this->max_size() - (this->size() - __n1) < __n2)
 323:c:\users\toesc\documents\daisytoolchain\windows\arm-none-eabi\include\c++\10.2.1\bits\basic_string.h **** 	  __throw_length_error(__N(__s));
 324:c:\users\toesc\documents\daisytoolchain\windows\arm-none-eabi\include\c++\10.2.1\bits\basic_string.h ****       }
 325:c:\users\toesc\documents\daisytoolchain\windows\arm-none-eabi\include\c++\10.2.1\bits\basic_string.h **** 
 326:c:\users\toesc\documents\daisytoolchain\windows\arm-none-eabi\include\c++\10.2.1\bits\basic_string.h **** 
 327:c:\users\toesc\documents\daisytoolchain\windows\arm-none-eabi\include\c++\10.2.1\bits\basic_string.h ****       // NB: _M_limit doesn't check for a bad __pos value.
 328:c:\users\toesc\documents\daisytoolchain\windows\arm-none-eabi\include\c++\10.2.1\bits\basic_string.h ****       size_type
 329:c:\users\toesc\documents\daisytoolchain\windows\arm-none-eabi\include\c++\10.2.1\bits\basic_string.h ****       _M_limit(size_type __pos, size_type __off) const _GLIBCXX_NOEXCEPT
 330:c:\users\toesc\documents\daisytoolchain\windows\arm-none-eabi\include\c++\10.2.1\bits\basic_string.h ****       {
 331:c:\users\toesc\documents\daisytoolchain\windows\arm-none-eabi\include\c++\10.2.1\bits\basic_string.h **** 	const bool __testoff =  __off < this->size() - __pos;
 332:c:\users\toesc\documents\daisytoolchain\windows\arm-none-eabi\include\c++\10.2.1\bits\basic_string.h **** 	return __testoff ? __off : this->size() - __pos;
 333:c:\users\toesc\documents\daisytoolchain\windows\arm-none-eabi\include\c++\10.2.1\bits\basic_string.h ****       }
 334:c:\users\toesc\documents\daisytoolchain\windows\arm-none-eabi\include\c++\10.2.1\bits\basic_string.h **** 
 335:c:\users\toesc\documents\daisytoolchain\windows\arm-none-eabi\include\c++\10.2.1\bits\basic_string.h ****       // True if _Rep and source do not overlap.
 336:c:\users\toesc\documents\daisytoolchain\windows\arm-none-eabi\include\c++\10.2.1\bits\basic_string.h ****       bool
 337:c:\users\toesc\documents\daisytoolchain\windows\arm-none-eabi\include\c++\10.2.1\bits\basic_string.h ****       _M_disjunct(const _CharT* __s) const _GLIBCXX_NOEXCEPT
 338:c:\users\toesc\documents\daisytoolchain\windows\arm-none-eabi\include\c++\10.2.1\bits\basic_string.h ****       {
 339:c:\users\toesc\documents\daisytoolchain\windows\arm-none-eabi\include\c++\10.2.1\bits\basic_string.h **** 	return (less<const _CharT*>()(__s, _M_data())
 340:c:\users\toesc\documents\daisytoolchain\windows\arm-none-eabi\include\c++\10.2.1\bits\basic_string.h **** 		|| less<const _CharT*>()(_M_data() + this->size(), __s));
 341:c:\users\toesc\documents\daisytoolchain\windows\arm-none-eabi\include\c++\10.2.1\bits\basic_string.h ****       }
 342:c:\users\toesc\documents\daisytoolchain\windows\arm-none-eabi\include\c++\10.2.1\bits\basic_string.h **** 
 343:c:\users\toesc\documents\daisytoolchain\windows\arm-none-eabi\include\c++\10.2.1\bits\basic_string.h ****       // When __n = 1 way faster than the general multichar
 344:c:\users\toesc\documents\daisytoolchain\windows\arm-none-eabi\include\c++\10.2.1\bits\basic_string.h ****       // traits_type::copy/move/assign.
 345:c:\users\toesc\documents\daisytoolchain\windows\arm-none-eabi\include\c++\10.2.1\bits\basic_string.h ****       static void
 346:c:\users\toesc\documents\daisytoolchain\windows\arm-none-eabi\include\c++\10.2.1\bits\basic_string.h ****       _S_copy(_CharT* __d, const _CharT* __s, size_type __n)
 347:c:\users\toesc\documents\daisytoolchain\windows\arm-none-eabi\include\c++\10.2.1\bits\basic_string.h ****       {
 348:c:\users\toesc\documents\daisytoolchain\windows\arm-none-eabi\include\c++\10.2.1\bits\basic_string.h **** 	if (__n == 1)
 349:c:\users\toesc\documents\daisytoolchain\windows\arm-none-eabi\include\c++\10.2.1\bits\basic_string.h **** 	  traits_type::assign(*__d, *__s);
 350:c:\users\toesc\documents\daisytoolchain\windows\arm-none-eabi\include\c++\10.2.1\bits\basic_string.h **** 	else
 351:c:\users\toesc\documents\daisytoolchain\windows\arm-none-eabi\include\c++\10.2.1\bits\basic_string.h **** 	  traits_type::copy(__d, __s, __n);
 352:c:\users\toesc\documents\daisytoolchain\windows\arm-none-eabi\include\c++\10.2.1\bits\basic_string.h ****       }
 353:c:\users\toesc\documents\daisytoolchain\windows\arm-none-eabi\include\c++\10.2.1\bits\basic_string.h **** 
 354:c:\users\toesc\documents\daisytoolchain\windows\arm-none-eabi\include\c++\10.2.1\bits\basic_string.h ****       static void
 355:c:\users\toesc\documents\daisytoolchain\windows\arm-none-eabi\include\c++\10.2.1\bits\basic_string.h ****       _S_move(_CharT* __d, const _CharT* __s, size_type __n)
 356:c:\users\toesc\documents\daisytoolchain\windows\arm-none-eabi\include\c++\10.2.1\bits\basic_string.h ****       {
 357:c:\users\toesc\documents\daisytoolchain\windows\arm-none-eabi\include\c++\10.2.1\bits\basic_string.h **** 	if (__n == 1)
 358:c:\users\toesc\documents\daisytoolchain\windows\arm-none-eabi\include\c++\10.2.1\bits\basic_string.h **** 	  traits_type::assign(*__d, *__s);
 359:c:\users\toesc\documents\daisytoolchain\windows\arm-none-eabi\include\c++\10.2.1\bits\basic_string.h **** 	else
 360:c:\users\toesc\documents\daisytoolchain\windows\arm-none-eabi\include\c++\10.2.1\bits\basic_string.h **** 	  traits_type::move(__d, __s, __n);
 361:c:\users\toesc\documents\daisytoolchain\windows\arm-none-eabi\include\c++\10.2.1\bits\basic_string.h ****       }
 362:c:\users\toesc\documents\daisytoolchain\windows\arm-none-eabi\include\c++\10.2.1\bits\basic_string.h **** 
 363:c:\users\toesc\documents\daisytoolchain\windows\arm-none-eabi\include\c++\10.2.1\bits\basic_string.h ****       static void
 364:c:\users\toesc\documents\daisytoolchain\windows\arm-none-eabi\include\c++\10.2.1\bits\basic_string.h ****       _S_assign(_CharT* __d, size_type __n, _CharT __c)
 365:c:\users\toesc\documents\daisytoolchain\windows\arm-none-eabi\include\c++\10.2.1\bits\basic_string.h ****       {
 366:c:\users\toesc\documents\daisytoolchain\windows\arm-none-eabi\include\c++\10.2.1\bits\basic_string.h **** 	if (__n == 1)
 367:c:\users\toesc\documents\daisytoolchain\windows\arm-none-eabi\include\c++\10.2.1\bits\basic_string.h **** 	  traits_type::assign(*__d, __c);
 368:c:\users\toesc\documents\daisytoolchain\windows\arm-none-eabi\include\c++\10.2.1\bits\basic_string.h **** 	else
ARM GAS  C:\Users\toesc\AppData\Local\Temp\ccZujPQb.s 			page 45


 369:c:\users\toesc\documents\daisytoolchain\windows\arm-none-eabi\include\c++\10.2.1\bits\basic_string.h **** 	  traits_type::assign(__d, __n, __c);
 370:c:\users\toesc\documents\daisytoolchain\windows\arm-none-eabi\include\c++\10.2.1\bits\basic_string.h ****       }
 371:c:\users\toesc\documents\daisytoolchain\windows\arm-none-eabi\include\c++\10.2.1\bits\basic_string.h **** 
 372:c:\users\toesc\documents\daisytoolchain\windows\arm-none-eabi\include\c++\10.2.1\bits\basic_string.h ****       // _S_copy_chars is a separate template to permit specialization
 373:c:\users\toesc\documents\daisytoolchain\windows\arm-none-eabi\include\c++\10.2.1\bits\basic_string.h ****       // to optimize for the common case of pointers as iterators.
 374:c:\users\toesc\documents\daisytoolchain\windows\arm-none-eabi\include\c++\10.2.1\bits\basic_string.h ****       template<class _Iterator>
 375:c:\users\toesc\documents\daisytoolchain\windows\arm-none-eabi\include\c++\10.2.1\bits\basic_string.h ****         static void
 376:c:\users\toesc\documents\daisytoolchain\windows\arm-none-eabi\include\c++\10.2.1\bits\basic_string.h ****         _S_copy_chars(_CharT* __p, _Iterator __k1, _Iterator __k2)
 377:c:\users\toesc\documents\daisytoolchain\windows\arm-none-eabi\include\c++\10.2.1\bits\basic_string.h ****         {
 378:c:\users\toesc\documents\daisytoolchain\windows\arm-none-eabi\include\c++\10.2.1\bits\basic_string.h **** 	  for (; __k1 != __k2; ++__k1, (void)++__p)
 379:c:\users\toesc\documents\daisytoolchain\windows\arm-none-eabi\include\c++\10.2.1\bits\basic_string.h **** 	    traits_type::assign(*__p, *__k1); // These types are off.
 380:c:\users\toesc\documents\daisytoolchain\windows\arm-none-eabi\include\c++\10.2.1\bits\basic_string.h **** 	}
 381:c:\users\toesc\documents\daisytoolchain\windows\arm-none-eabi\include\c++\10.2.1\bits\basic_string.h **** 
 382:c:\users\toesc\documents\daisytoolchain\windows\arm-none-eabi\include\c++\10.2.1\bits\basic_string.h ****       static void
 383:c:\users\toesc\documents\daisytoolchain\windows\arm-none-eabi\include\c++\10.2.1\bits\basic_string.h ****       _S_copy_chars(_CharT* __p, iterator __k1, iterator __k2) _GLIBCXX_NOEXCEPT
 384:c:\users\toesc\documents\daisytoolchain\windows\arm-none-eabi\include\c++\10.2.1\bits\basic_string.h ****       { _S_copy_chars(__p, __k1.base(), __k2.base()); }
 385:c:\users\toesc\documents\daisytoolchain\windows\arm-none-eabi\include\c++\10.2.1\bits\basic_string.h **** 
 386:c:\users\toesc\documents\daisytoolchain\windows\arm-none-eabi\include\c++\10.2.1\bits\basic_string.h ****       static void
 387:c:\users\toesc\documents\daisytoolchain\windows\arm-none-eabi\include\c++\10.2.1\bits\basic_string.h ****       _S_copy_chars(_CharT* __p, const_iterator __k1, const_iterator __k2)
 388:c:\users\toesc\documents\daisytoolchain\windows\arm-none-eabi\include\c++\10.2.1\bits\basic_string.h ****       _GLIBCXX_NOEXCEPT
 389:c:\users\toesc\documents\daisytoolchain\windows\arm-none-eabi\include\c++\10.2.1\bits\basic_string.h ****       { _S_copy_chars(__p, __k1.base(), __k2.base()); }
 390:c:\users\toesc\documents\daisytoolchain\windows\arm-none-eabi\include\c++\10.2.1\bits\basic_string.h **** 
 391:c:\users\toesc\documents\daisytoolchain\windows\arm-none-eabi\include\c++\10.2.1\bits\basic_string.h ****       static void
 392:c:\users\toesc\documents\daisytoolchain\windows\arm-none-eabi\include\c++\10.2.1\bits\basic_string.h ****       _S_copy_chars(_CharT* __p, _CharT* __k1, _CharT* __k2) _GLIBCXX_NOEXCEPT
 393:c:\users\toesc\documents\daisytoolchain\windows\arm-none-eabi\include\c++\10.2.1\bits\basic_string.h ****       { _S_copy(__p, __k1, __k2 - __k1); }
 394:c:\users\toesc\documents\daisytoolchain\windows\arm-none-eabi\include\c++\10.2.1\bits\basic_string.h **** 
 395:c:\users\toesc\documents\daisytoolchain\windows\arm-none-eabi\include\c++\10.2.1\bits\basic_string.h ****       static void
 396:c:\users\toesc\documents\daisytoolchain\windows\arm-none-eabi\include\c++\10.2.1\bits\basic_string.h ****       _S_copy_chars(_CharT* __p, const _CharT* __k1, const _CharT* __k2)
 397:c:\users\toesc\documents\daisytoolchain\windows\arm-none-eabi\include\c++\10.2.1\bits\basic_string.h ****       _GLIBCXX_NOEXCEPT
 398:c:\users\toesc\documents\daisytoolchain\windows\arm-none-eabi\include\c++\10.2.1\bits\basic_string.h ****       { _S_copy(__p, __k1, __k2 - __k1); }
 399:c:\users\toesc\documents\daisytoolchain\windows\arm-none-eabi\include\c++\10.2.1\bits\basic_string.h **** 
 400:c:\users\toesc\documents\daisytoolchain\windows\arm-none-eabi\include\c++\10.2.1\bits\basic_string.h ****       static int
 401:c:\users\toesc\documents\daisytoolchain\windows\arm-none-eabi\include\c++\10.2.1\bits\basic_string.h ****       _S_compare(size_type __n1, size_type __n2) _GLIBCXX_NOEXCEPT
 402:c:\users\toesc\documents\daisytoolchain\windows\arm-none-eabi\include\c++\10.2.1\bits\basic_string.h ****       {
 403:c:\users\toesc\documents\daisytoolchain\windows\arm-none-eabi\include\c++\10.2.1\bits\basic_string.h **** 	const difference_type __d = difference_type(__n1 - __n2);
 404:c:\users\toesc\documents\daisytoolchain\windows\arm-none-eabi\include\c++\10.2.1\bits\basic_string.h **** 
 405:c:\users\toesc\documents\daisytoolchain\windows\arm-none-eabi\include\c++\10.2.1\bits\basic_string.h **** 	if (__d > __gnu_cxx::__numeric_traits<int>::__max)
 406:c:\users\toesc\documents\daisytoolchain\windows\arm-none-eabi\include\c++\10.2.1\bits\basic_string.h **** 	  return __gnu_cxx::__numeric_traits<int>::__max;
 407:c:\users\toesc\documents\daisytoolchain\windows\arm-none-eabi\include\c++\10.2.1\bits\basic_string.h **** 	else if (__d < __gnu_cxx::__numeric_traits<int>::__min)
 408:c:\users\toesc\documents\daisytoolchain\windows\arm-none-eabi\include\c++\10.2.1\bits\basic_string.h **** 	  return __gnu_cxx::__numeric_traits<int>::__min;
 409:c:\users\toesc\documents\daisytoolchain\windows\arm-none-eabi\include\c++\10.2.1\bits\basic_string.h **** 	else
 410:c:\users\toesc\documents\daisytoolchain\windows\arm-none-eabi\include\c++\10.2.1\bits\basic_string.h **** 	  return int(__d);
 411:c:\users\toesc\documents\daisytoolchain\windows\arm-none-eabi\include\c++\10.2.1\bits\basic_string.h ****       }
 412:c:\users\toesc\documents\daisytoolchain\windows\arm-none-eabi\include\c++\10.2.1\bits\basic_string.h **** 
 413:c:\users\toesc\documents\daisytoolchain\windows\arm-none-eabi\include\c++\10.2.1\bits\basic_string.h ****       void
 414:c:\users\toesc\documents\daisytoolchain\windows\arm-none-eabi\include\c++\10.2.1\bits\basic_string.h ****       _M_assign(const basic_string&);
 415:c:\users\toesc\documents\daisytoolchain\windows\arm-none-eabi\include\c++\10.2.1\bits\basic_string.h **** 
 416:c:\users\toesc\documents\daisytoolchain\windows\arm-none-eabi\include\c++\10.2.1\bits\basic_string.h ****       void
 417:c:\users\toesc\documents\daisytoolchain\windows\arm-none-eabi\include\c++\10.2.1\bits\basic_string.h ****       _M_mutate(size_type __pos, size_type __len1, const _CharT* __s,
 418:c:\users\toesc\documents\daisytoolchain\windows\arm-none-eabi\include\c++\10.2.1\bits\basic_string.h **** 		size_type __len2);
 419:c:\users\toesc\documents\daisytoolchain\windows\arm-none-eabi\include\c++\10.2.1\bits\basic_string.h **** 
 420:c:\users\toesc\documents\daisytoolchain\windows\arm-none-eabi\include\c++\10.2.1\bits\basic_string.h ****       void
 421:c:\users\toesc\documents\daisytoolchain\windows\arm-none-eabi\include\c++\10.2.1\bits\basic_string.h ****       _M_erase(size_type __pos, size_type __n);
 422:c:\users\toesc\documents\daisytoolchain\windows\arm-none-eabi\include\c++\10.2.1\bits\basic_string.h **** 
 423:c:\users\toesc\documents\daisytoolchain\windows\arm-none-eabi\include\c++\10.2.1\bits\basic_string.h ****     public:
 424:c:\users\toesc\documents\daisytoolchain\windows\arm-none-eabi\include\c++\10.2.1\bits\basic_string.h ****       // Construct/copy/destroy:
 425:c:\users\toesc\documents\daisytoolchain\windows\arm-none-eabi\include\c++\10.2.1\bits\basic_string.h ****       // NB: We overload ctors in some cases instead of using default
ARM GAS  C:\Users\toesc\AppData\Local\Temp\ccZujPQb.s 			page 46


 426:c:\users\toesc\documents\daisytoolchain\windows\arm-none-eabi\include\c++\10.2.1\bits\basic_string.h ****       // arguments, per 17.4.4.4 para. 2 item 2.
 427:c:\users\toesc\documents\daisytoolchain\windows\arm-none-eabi\include\c++\10.2.1\bits\basic_string.h **** 
 428:c:\users\toesc\documents\daisytoolchain\windows\arm-none-eabi\include\c++\10.2.1\bits\basic_string.h ****       /**
 429:c:\users\toesc\documents\daisytoolchain\windows\arm-none-eabi\include\c++\10.2.1\bits\basic_string.h ****        *  @brief  Default constructor creates an empty string.
 430:c:\users\toesc\documents\daisytoolchain\windows\arm-none-eabi\include\c++\10.2.1\bits\basic_string.h ****        */
 431:c:\users\toesc\documents\daisytoolchain\windows\arm-none-eabi\include\c++\10.2.1\bits\basic_string.h ****       basic_string()
 432:c:\users\toesc\documents\daisytoolchain\windows\arm-none-eabi\include\c++\10.2.1\bits\basic_string.h ****       _GLIBCXX_NOEXCEPT_IF(is_nothrow_default_constructible<_Alloc>::value)
 433:c:\users\toesc\documents\daisytoolchain\windows\arm-none-eabi\include\c++\10.2.1\bits\basic_string.h ****       : _M_dataplus(_M_local_data())
 434:c:\users\toesc\documents\daisytoolchain\windows\arm-none-eabi\include\c++\10.2.1\bits\basic_string.h ****       { _M_set_length(0); }
 435:c:\users\toesc\documents\daisytoolchain\windows\arm-none-eabi\include\c++\10.2.1\bits\basic_string.h **** 
 436:c:\users\toesc\documents\daisytoolchain\windows\arm-none-eabi\include\c++\10.2.1\bits\basic_string.h ****       /**
 437:c:\users\toesc\documents\daisytoolchain\windows\arm-none-eabi\include\c++\10.2.1\bits\basic_string.h ****        *  @brief  Construct an empty string using allocator @a a.
 438:c:\users\toesc\documents\daisytoolchain\windows\arm-none-eabi\include\c++\10.2.1\bits\basic_string.h ****        */
 439:c:\users\toesc\documents\daisytoolchain\windows\arm-none-eabi\include\c++\10.2.1\bits\basic_string.h ****       explicit
 440:c:\users\toesc\documents\daisytoolchain\windows\arm-none-eabi\include\c++\10.2.1\bits\basic_string.h ****       basic_string(const _Alloc& __a) _GLIBCXX_NOEXCEPT
 441:c:\users\toesc\documents\daisytoolchain\windows\arm-none-eabi\include\c++\10.2.1\bits\basic_string.h ****       : _M_dataplus(_M_local_data(), __a)
 442:c:\users\toesc\documents\daisytoolchain\windows\arm-none-eabi\include\c++\10.2.1\bits\basic_string.h ****       { _M_set_length(0); }
 443:c:\users\toesc\documents\daisytoolchain\windows\arm-none-eabi\include\c++\10.2.1\bits\basic_string.h **** 
 444:c:\users\toesc\documents\daisytoolchain\windows\arm-none-eabi\include\c++\10.2.1\bits\basic_string.h ****       /**
 445:c:\users\toesc\documents\daisytoolchain\windows\arm-none-eabi\include\c++\10.2.1\bits\basic_string.h ****        *  @brief  Construct string with copy of value of @a __str.
 446:c:\users\toesc\documents\daisytoolchain\windows\arm-none-eabi\include\c++\10.2.1\bits\basic_string.h ****        *  @param  __str  Source string.
 447:c:\users\toesc\documents\daisytoolchain\windows\arm-none-eabi\include\c++\10.2.1\bits\basic_string.h ****        */
 448:c:\users\toesc\documents\daisytoolchain\windows\arm-none-eabi\include\c++\10.2.1\bits\basic_string.h ****       basic_string(const basic_string& __str)
 449:c:\users\toesc\documents\daisytoolchain\windows\arm-none-eabi\include\c++\10.2.1\bits\basic_string.h ****       : _M_dataplus(_M_local_data(),
 450:c:\users\toesc\documents\daisytoolchain\windows\arm-none-eabi\include\c++\10.2.1\bits\basic_string.h **** 		    _Alloc_traits::_S_select_on_copy(__str._M_get_allocator()))
 451:c:\users\toesc\documents\daisytoolchain\windows\arm-none-eabi\include\c++\10.2.1\bits\basic_string.h ****       { _M_construct(__str._M_data(), __str._M_data() + __str.length()); }
 452:c:\users\toesc\documents\daisytoolchain\windows\arm-none-eabi\include\c++\10.2.1\bits\basic_string.h **** 
 453:c:\users\toesc\documents\daisytoolchain\windows\arm-none-eabi\include\c++\10.2.1\bits\basic_string.h ****       // _GLIBCXX_RESOLVE_LIB_DEFECTS
 454:c:\users\toesc\documents\daisytoolchain\windows\arm-none-eabi\include\c++\10.2.1\bits\basic_string.h ****       // 2583. no way to supply an allocator for basic_string(str, pos)
 455:c:\users\toesc\documents\daisytoolchain\windows\arm-none-eabi\include\c++\10.2.1\bits\basic_string.h ****       /**
 456:c:\users\toesc\documents\daisytoolchain\windows\arm-none-eabi\include\c++\10.2.1\bits\basic_string.h ****        *  @brief  Construct string as copy of a substring.
 457:c:\users\toesc\documents\daisytoolchain\windows\arm-none-eabi\include\c++\10.2.1\bits\basic_string.h ****        *  @param  __str  Source string.
 458:c:\users\toesc\documents\daisytoolchain\windows\arm-none-eabi\include\c++\10.2.1\bits\basic_string.h ****        *  @param  __pos  Index of first character to copy from.
 459:c:\users\toesc\documents\daisytoolchain\windows\arm-none-eabi\include\c++\10.2.1\bits\basic_string.h ****        *  @param  __a  Allocator to use.
 460:c:\users\toesc\documents\daisytoolchain\windows\arm-none-eabi\include\c++\10.2.1\bits\basic_string.h ****        */
 461:c:\users\toesc\documents\daisytoolchain\windows\arm-none-eabi\include\c++\10.2.1\bits\basic_string.h ****       basic_string(const basic_string& __str, size_type __pos,
 462:c:\users\toesc\documents\daisytoolchain\windows\arm-none-eabi\include\c++\10.2.1\bits\basic_string.h **** 		   const _Alloc& __a = _Alloc())
 463:c:\users\toesc\documents\daisytoolchain\windows\arm-none-eabi\include\c++\10.2.1\bits\basic_string.h ****       : _M_dataplus(_M_local_data(), __a)
 464:c:\users\toesc\documents\daisytoolchain\windows\arm-none-eabi\include\c++\10.2.1\bits\basic_string.h ****       {
 465:c:\users\toesc\documents\daisytoolchain\windows\arm-none-eabi\include\c++\10.2.1\bits\basic_string.h **** 	const _CharT* __start = __str._M_data()
 466:c:\users\toesc\documents\daisytoolchain\windows\arm-none-eabi\include\c++\10.2.1\bits\basic_string.h **** 	  + __str._M_check(__pos, "basic_string::basic_string");
 467:c:\users\toesc\documents\daisytoolchain\windows\arm-none-eabi\include\c++\10.2.1\bits\basic_string.h **** 	_M_construct(__start, __start + __str._M_limit(__pos, npos));
 468:c:\users\toesc\documents\daisytoolchain\windows\arm-none-eabi\include\c++\10.2.1\bits\basic_string.h ****       }
 469:c:\users\toesc\documents\daisytoolchain\windows\arm-none-eabi\include\c++\10.2.1\bits\basic_string.h **** 
 470:c:\users\toesc\documents\daisytoolchain\windows\arm-none-eabi\include\c++\10.2.1\bits\basic_string.h ****       /**
 471:c:\users\toesc\documents\daisytoolchain\windows\arm-none-eabi\include\c++\10.2.1\bits\basic_string.h ****        *  @brief  Construct string as copy of a substring.
 472:c:\users\toesc\documents\daisytoolchain\windows\arm-none-eabi\include\c++\10.2.1\bits\basic_string.h ****        *  @param  __str  Source string.
 473:c:\users\toesc\documents\daisytoolchain\windows\arm-none-eabi\include\c++\10.2.1\bits\basic_string.h ****        *  @param  __pos  Index of first character to copy from.
 474:c:\users\toesc\documents\daisytoolchain\windows\arm-none-eabi\include\c++\10.2.1\bits\basic_string.h ****        *  @param  __n  Number of characters to copy.
 475:c:\users\toesc\documents\daisytoolchain\windows\arm-none-eabi\include\c++\10.2.1\bits\basic_string.h ****        */
 476:c:\users\toesc\documents\daisytoolchain\windows\arm-none-eabi\include\c++\10.2.1\bits\basic_string.h ****       basic_string(const basic_string& __str, size_type __pos,
 477:c:\users\toesc\documents\daisytoolchain\windows\arm-none-eabi\include\c++\10.2.1\bits\basic_string.h **** 		   size_type __n)
 478:c:\users\toesc\documents\daisytoolchain\windows\arm-none-eabi\include\c++\10.2.1\bits\basic_string.h ****       : _M_dataplus(_M_local_data())
 479:c:\users\toesc\documents\daisytoolchain\windows\arm-none-eabi\include\c++\10.2.1\bits\basic_string.h ****       {
 480:c:\users\toesc\documents\daisytoolchain\windows\arm-none-eabi\include\c++\10.2.1\bits\basic_string.h **** 	const _CharT* __start = __str._M_data()
 481:c:\users\toesc\documents\daisytoolchain\windows\arm-none-eabi\include\c++\10.2.1\bits\basic_string.h **** 	  + __str._M_check(__pos, "basic_string::basic_string");
 482:c:\users\toesc\documents\daisytoolchain\windows\arm-none-eabi\include\c++\10.2.1\bits\basic_string.h **** 	_M_construct(__start, __start + __str._M_limit(__pos, __n));
ARM GAS  C:\Users\toesc\AppData\Local\Temp\ccZujPQb.s 			page 47


 483:c:\users\toesc\documents\daisytoolchain\windows\arm-none-eabi\include\c++\10.2.1\bits\basic_string.h ****       }
 484:c:\users\toesc\documents\daisytoolchain\windows\arm-none-eabi\include\c++\10.2.1\bits\basic_string.h **** 
 485:c:\users\toesc\documents\daisytoolchain\windows\arm-none-eabi\include\c++\10.2.1\bits\basic_string.h ****       /**
 486:c:\users\toesc\documents\daisytoolchain\windows\arm-none-eabi\include\c++\10.2.1\bits\basic_string.h ****        *  @brief  Construct string as copy of a substring.
 487:c:\users\toesc\documents\daisytoolchain\windows\arm-none-eabi\include\c++\10.2.1\bits\basic_string.h ****        *  @param  __str  Source string.
 488:c:\users\toesc\documents\daisytoolchain\windows\arm-none-eabi\include\c++\10.2.1\bits\basic_string.h ****        *  @param  __pos  Index of first character to copy from.
 489:c:\users\toesc\documents\daisytoolchain\windows\arm-none-eabi\include\c++\10.2.1\bits\basic_string.h ****        *  @param  __n  Number of characters to copy.
 490:c:\users\toesc\documents\daisytoolchain\windows\arm-none-eabi\include\c++\10.2.1\bits\basic_string.h ****        *  @param  __a  Allocator to use.
 491:c:\users\toesc\documents\daisytoolchain\windows\arm-none-eabi\include\c++\10.2.1\bits\basic_string.h ****        */
 492:c:\users\toesc\documents\daisytoolchain\windows\arm-none-eabi\include\c++\10.2.1\bits\basic_string.h ****       basic_string(const basic_string& __str, size_type __pos,
 493:c:\users\toesc\documents\daisytoolchain\windows\arm-none-eabi\include\c++\10.2.1\bits\basic_string.h **** 		   size_type __n, const _Alloc& __a)
 494:c:\users\toesc\documents\daisytoolchain\windows\arm-none-eabi\include\c++\10.2.1\bits\basic_string.h ****       : _M_dataplus(_M_local_data(), __a)
 495:c:\users\toesc\documents\daisytoolchain\windows\arm-none-eabi\include\c++\10.2.1\bits\basic_string.h ****       {
 496:c:\users\toesc\documents\daisytoolchain\windows\arm-none-eabi\include\c++\10.2.1\bits\basic_string.h **** 	const _CharT* __start
 497:c:\users\toesc\documents\daisytoolchain\windows\arm-none-eabi\include\c++\10.2.1\bits\basic_string.h **** 	  = __str._M_data() + __str._M_check(__pos, "string::string");
 498:c:\users\toesc\documents\daisytoolchain\windows\arm-none-eabi\include\c++\10.2.1\bits\basic_string.h **** 	_M_construct(__start, __start + __str._M_limit(__pos, __n));
 499:c:\users\toesc\documents\daisytoolchain\windows\arm-none-eabi\include\c++\10.2.1\bits\basic_string.h ****       }
 500:c:\users\toesc\documents\daisytoolchain\windows\arm-none-eabi\include\c++\10.2.1\bits\basic_string.h **** 
 501:c:\users\toesc\documents\daisytoolchain\windows\arm-none-eabi\include\c++\10.2.1\bits\basic_string.h ****       /**
 502:c:\users\toesc\documents\daisytoolchain\windows\arm-none-eabi\include\c++\10.2.1\bits\basic_string.h ****        *  @brief  Construct string initialized by a character %array.
 503:c:\users\toesc\documents\daisytoolchain\windows\arm-none-eabi\include\c++\10.2.1\bits\basic_string.h ****        *  @param  __s  Source character %array.
 504:c:\users\toesc\documents\daisytoolchain\windows\arm-none-eabi\include\c++\10.2.1\bits\basic_string.h ****        *  @param  __n  Number of characters to copy.
 505:c:\users\toesc\documents\daisytoolchain\windows\arm-none-eabi\include\c++\10.2.1\bits\basic_string.h ****        *  @param  __a  Allocator to use (default is default allocator).
 506:c:\users\toesc\documents\daisytoolchain\windows\arm-none-eabi\include\c++\10.2.1\bits\basic_string.h ****        *
 507:c:\users\toesc\documents\daisytoolchain\windows\arm-none-eabi\include\c++\10.2.1\bits\basic_string.h ****        *  NB: @a __s must have at least @a __n characters, &apos;\\0&apos;
 508:c:\users\toesc\documents\daisytoolchain\windows\arm-none-eabi\include\c++\10.2.1\bits\basic_string.h ****        *  has no special meaning.
 509:c:\users\toesc\documents\daisytoolchain\windows\arm-none-eabi\include\c++\10.2.1\bits\basic_string.h ****        */
 510:c:\users\toesc\documents\daisytoolchain\windows\arm-none-eabi\include\c++\10.2.1\bits\basic_string.h ****       basic_string(const _CharT* __s, size_type __n,
 511:c:\users\toesc\documents\daisytoolchain\windows\arm-none-eabi\include\c++\10.2.1\bits\basic_string.h **** 		   const _Alloc& __a = _Alloc())
 512:c:\users\toesc\documents\daisytoolchain\windows\arm-none-eabi\include\c++\10.2.1\bits\basic_string.h ****       : _M_dataplus(_M_local_data(), __a)
 513:c:\users\toesc\documents\daisytoolchain\windows\arm-none-eabi\include\c++\10.2.1\bits\basic_string.h ****       { _M_construct(__s, __s + __n); }
 514:c:\users\toesc\documents\daisytoolchain\windows\arm-none-eabi\include\c++\10.2.1\bits\basic_string.h **** 
 515:c:\users\toesc\documents\daisytoolchain\windows\arm-none-eabi\include\c++\10.2.1\bits\basic_string.h ****       /**
 516:c:\users\toesc\documents\daisytoolchain\windows\arm-none-eabi\include\c++\10.2.1\bits\basic_string.h ****        *  @brief  Construct string as copy of a C string.
 517:c:\users\toesc\documents\daisytoolchain\windows\arm-none-eabi\include\c++\10.2.1\bits\basic_string.h ****        *  @param  __s  Source C string.
 518:c:\users\toesc\documents\daisytoolchain\windows\arm-none-eabi\include\c++\10.2.1\bits\basic_string.h ****        *  @param  __a  Allocator to use (default is default allocator).
 519:c:\users\toesc\documents\daisytoolchain\windows\arm-none-eabi\include\c++\10.2.1\bits\basic_string.h ****        */
 520:c:\users\toesc\documents\daisytoolchain\windows\arm-none-eabi\include\c++\10.2.1\bits\basic_string.h **** #if __cpp_deduction_guides && ! defined _GLIBCXX_DEFINING_STRING_INSTANTIATIONS
 521:c:\users\toesc\documents\daisytoolchain\windows\arm-none-eabi\include\c++\10.2.1\bits\basic_string.h ****       // _GLIBCXX_RESOLVE_LIB_DEFECTS
 522:c:\users\toesc\documents\daisytoolchain\windows\arm-none-eabi\include\c++\10.2.1\bits\basic_string.h ****       // 3076. basic_string CTAD ambiguity
 523:c:\users\toesc\documents\daisytoolchain\windows\arm-none-eabi\include\c++\10.2.1\bits\basic_string.h ****       template<typename = _RequireAllocator<_Alloc>>
 524:c:\users\toesc\documents\daisytoolchain\windows\arm-none-eabi\include\c++\10.2.1\bits\basic_string.h **** #endif
 525:c:\users\toesc\documents\daisytoolchain\windows\arm-none-eabi\include\c++\10.2.1\bits\basic_string.h ****       basic_string(const _CharT* __s, const _Alloc& __a = _Alloc())
 781              		.loc 17 525 7 is_stmt 1 view -0
 782              		.cfi_startproc
 783              		@ args = 0, pretend = 0, frame = 8
 784              		@ frame_needed = 0, uses_anonymous_args = 0
 785              	.LBB1298:
 786              	.LBB1299:
 787              	.LBI1299:
 190:c:\users\toesc\documents\daisytoolchain\windows\arm-none-eabi\include\c++\10.2.1\bits\basic_string.h ****       {
 788              		.loc 17 190 7 view .LVU162
 789              	.LBE1299:
 790              	.LBE1298:
 791              		.loc 17 525 7 is_stmt 0 view .LVU163
 792 0000 F0B5     		push	{r4, r5, r6, r7, lr}
 793              		.cfi_def_cfa_offset 20
ARM GAS  C:\Users\toesc\AppData\Local\Temp\ccZujPQb.s 			page 48


 794              		.cfi_offset 4, -20
 795              		.cfi_offset 5, -16
 796              		.cfi_offset 6, -12
 797              		.cfi_offset 7, -8
 798              		.cfi_offset 14, -4
 799              	.LBB1350:
 800              	.LBB1301:
 801              	.LBB1300:
 193:c:\users\toesc\documents\daisytoolchain\windows\arm-none-eabi\include\c++\10.2.1\bits\basic_string.h **** #else
 802              		.loc 17 193 51 view .LVU164
 803 0002 00F10806 		add	r6, r0, #8
 804              	.LVL42:
 193:c:\users\toesc\documents\daisytoolchain\windows\arm-none-eabi\include\c++\10.2.1\bits\basic_string.h **** #else
 805              		.loc 17 193 51 view .LVU165
 806              	.LBE1300:
 807              	.LBE1301:
 808              	.LBB1302:
 809              	.LBI1302:
 156:c:\users\toesc\documents\daisytoolchain\windows\arm-none-eabi\include\c++\10.2.1\bits\basic_string.h **** 	: allocator_type(__a), _M_p(__dat) { }
 810              		.loc 17 156 2 is_stmt 1 view .LVU166
 811              	.LBB1303:
 812              	.LBB1304:
 813              	.LBI1304:
 814              		.file 18 "c:\\users\\toesc\\documents\\daisytoolchain\\windows\\arm-none-eabi\\include\\c++\\10.2.
   1:c:\users\toesc\documents\daisytoolchain\windows\arm-none-eabi\include\c++\10.2.1\bits\allocator.h **** // Allocators -*- C++ -*-
   2:c:\users\toesc\documents\daisytoolchain\windows\arm-none-eabi\include\c++\10.2.1\bits\allocator.h **** 
   3:c:\users\toesc\documents\daisytoolchain\windows\arm-none-eabi\include\c++\10.2.1\bits\allocator.h **** // Copyright (C) 2001-2020 Free Software Foundation, Inc.
   4:c:\users\toesc\documents\daisytoolchain\windows\arm-none-eabi\include\c++\10.2.1\bits\allocator.h **** //
   5:c:\users\toesc\documents\daisytoolchain\windows\arm-none-eabi\include\c++\10.2.1\bits\allocator.h **** // This file is part of the GNU ISO C++ Library.  This library is free
   6:c:\users\toesc\documents\daisytoolchain\windows\arm-none-eabi\include\c++\10.2.1\bits\allocator.h **** // software; you can redistribute it and/or modify it under the
   7:c:\users\toesc\documents\daisytoolchain\windows\arm-none-eabi\include\c++\10.2.1\bits\allocator.h **** // terms of the GNU General Public License as published by the
   8:c:\users\toesc\documents\daisytoolchain\windows\arm-none-eabi\include\c++\10.2.1\bits\allocator.h **** // Free Software Foundation; either version 3, or (at your option)
   9:c:\users\toesc\documents\daisytoolchain\windows\arm-none-eabi\include\c++\10.2.1\bits\allocator.h **** // any later version.
  10:c:\users\toesc\documents\daisytoolchain\windows\arm-none-eabi\include\c++\10.2.1\bits\allocator.h **** 
  11:c:\users\toesc\documents\daisytoolchain\windows\arm-none-eabi\include\c++\10.2.1\bits\allocator.h **** // This library is distributed in the hope that it will be useful,
  12:c:\users\toesc\documents\daisytoolchain\windows\arm-none-eabi\include\c++\10.2.1\bits\allocator.h **** // but WITHOUT ANY WARRANTY; without even the implied warranty of
  13:c:\users\toesc\documents\daisytoolchain\windows\arm-none-eabi\include\c++\10.2.1\bits\allocator.h **** // MERCHANTABILITY or FITNESS FOR A PARTICULAR PURPOSE.  See the
  14:c:\users\toesc\documents\daisytoolchain\windows\arm-none-eabi\include\c++\10.2.1\bits\allocator.h **** // GNU General Public License for more details.
  15:c:\users\toesc\documents\daisytoolchain\windows\arm-none-eabi\include\c++\10.2.1\bits\allocator.h **** 
  16:c:\users\toesc\documents\daisytoolchain\windows\arm-none-eabi\include\c++\10.2.1\bits\allocator.h **** // Under Section 7 of GPL version 3, you are granted additional
  17:c:\users\toesc\documents\daisytoolchain\windows\arm-none-eabi\include\c++\10.2.1\bits\allocator.h **** // permissions described in the GCC Runtime Library Exception, version
  18:c:\users\toesc\documents\daisytoolchain\windows\arm-none-eabi\include\c++\10.2.1\bits\allocator.h **** // 3.1, as published by the Free Software Foundation.
  19:c:\users\toesc\documents\daisytoolchain\windows\arm-none-eabi\include\c++\10.2.1\bits\allocator.h **** 
  20:c:\users\toesc\documents\daisytoolchain\windows\arm-none-eabi\include\c++\10.2.1\bits\allocator.h **** // You should have received a copy of the GNU General Public License and
  21:c:\users\toesc\documents\daisytoolchain\windows\arm-none-eabi\include\c++\10.2.1\bits\allocator.h **** // a copy of the GCC Runtime Library Exception along with this program;
  22:c:\users\toesc\documents\daisytoolchain\windows\arm-none-eabi\include\c++\10.2.1\bits\allocator.h **** // see the files COPYING3 and COPYING.RUNTIME respectively.  If not, see
  23:c:\users\toesc\documents\daisytoolchain\windows\arm-none-eabi\include\c++\10.2.1\bits\allocator.h **** // <http://www.gnu.org/licenses/>.
  24:c:\users\toesc\documents\daisytoolchain\windows\arm-none-eabi\include\c++\10.2.1\bits\allocator.h **** 
  25:c:\users\toesc\documents\daisytoolchain\windows\arm-none-eabi\include\c++\10.2.1\bits\allocator.h **** /*
  26:c:\users\toesc\documents\daisytoolchain\windows\arm-none-eabi\include\c++\10.2.1\bits\allocator.h ****  * Copyright (c) 1996-1997
  27:c:\users\toesc\documents\daisytoolchain\windows\arm-none-eabi\include\c++\10.2.1\bits\allocator.h ****  * Silicon Graphics Computer Systems, Inc.
  28:c:\users\toesc\documents\daisytoolchain\windows\arm-none-eabi\include\c++\10.2.1\bits\allocator.h ****  *
  29:c:\users\toesc\documents\daisytoolchain\windows\arm-none-eabi\include\c++\10.2.1\bits\allocator.h ****  * Permission to use, copy, modify, distribute and sell this software
  30:c:\users\toesc\documents\daisytoolchain\windows\arm-none-eabi\include\c++\10.2.1\bits\allocator.h ****  * and its documentation for any purpose is hereby granted without fee,
  31:c:\users\toesc\documents\daisytoolchain\windows\arm-none-eabi\include\c++\10.2.1\bits\allocator.h ****  * provided that the above copyright notice appear in all copies and
  32:c:\users\toesc\documents\daisytoolchain\windows\arm-none-eabi\include\c++\10.2.1\bits\allocator.h ****  * that both that copyright notice and this permission notice appear
  33:c:\users\toesc\documents\daisytoolchain\windows\arm-none-eabi\include\c++\10.2.1\bits\allocator.h ****  * in supporting documentation.  Silicon Graphics makes no
ARM GAS  C:\Users\toesc\AppData\Local\Temp\ccZujPQb.s 			page 49


  34:c:\users\toesc\documents\daisytoolchain\windows\arm-none-eabi\include\c++\10.2.1\bits\allocator.h ****  * representations about the suitability of this software for any
  35:c:\users\toesc\documents\daisytoolchain\windows\arm-none-eabi\include\c++\10.2.1\bits\allocator.h ****  * purpose.  It is provided "as is" without express or implied warranty.
  36:c:\users\toesc\documents\daisytoolchain\windows\arm-none-eabi\include\c++\10.2.1\bits\allocator.h ****  */
  37:c:\users\toesc\documents\daisytoolchain\windows\arm-none-eabi\include\c++\10.2.1\bits\allocator.h **** 
  38:c:\users\toesc\documents\daisytoolchain\windows\arm-none-eabi\include\c++\10.2.1\bits\allocator.h **** /** @file bits/allocator.h
  39:c:\users\toesc\documents\daisytoolchain\windows\arm-none-eabi\include\c++\10.2.1\bits\allocator.h ****  *  This is an internal header file, included by other library headers.
  40:c:\users\toesc\documents\daisytoolchain\windows\arm-none-eabi\include\c++\10.2.1\bits\allocator.h ****  *  Do not attempt to use it directly. @headername{memory}
  41:c:\users\toesc\documents\daisytoolchain\windows\arm-none-eabi\include\c++\10.2.1\bits\allocator.h ****  */
  42:c:\users\toesc\documents\daisytoolchain\windows\arm-none-eabi\include\c++\10.2.1\bits\allocator.h **** 
  43:c:\users\toesc\documents\daisytoolchain\windows\arm-none-eabi\include\c++\10.2.1\bits\allocator.h **** #ifndef _ALLOCATOR_H
  44:c:\users\toesc\documents\daisytoolchain\windows\arm-none-eabi\include\c++\10.2.1\bits\allocator.h **** #define _ALLOCATOR_H 1
  45:c:\users\toesc\documents\daisytoolchain\windows\arm-none-eabi\include\c++\10.2.1\bits\allocator.h **** 
  46:c:\users\toesc\documents\daisytoolchain\windows\arm-none-eabi\include\c++\10.2.1\bits\allocator.h **** #include <bits/c++allocator.h> // Define the base class to std::allocator.
  47:c:\users\toesc\documents\daisytoolchain\windows\arm-none-eabi\include\c++\10.2.1\bits\allocator.h **** #include <bits/memoryfwd.h>
  48:c:\users\toesc\documents\daisytoolchain\windows\arm-none-eabi\include\c++\10.2.1\bits\allocator.h **** #if __cplusplus >= 201103L
  49:c:\users\toesc\documents\daisytoolchain\windows\arm-none-eabi\include\c++\10.2.1\bits\allocator.h **** #include <type_traits>
  50:c:\users\toesc\documents\daisytoolchain\windows\arm-none-eabi\include\c++\10.2.1\bits\allocator.h **** #endif
  51:c:\users\toesc\documents\daisytoolchain\windows\arm-none-eabi\include\c++\10.2.1\bits\allocator.h **** 
  52:c:\users\toesc\documents\daisytoolchain\windows\arm-none-eabi\include\c++\10.2.1\bits\allocator.h **** #define __cpp_lib_incomplete_container_elements 201505
  53:c:\users\toesc\documents\daisytoolchain\windows\arm-none-eabi\include\c++\10.2.1\bits\allocator.h **** 
  54:c:\users\toesc\documents\daisytoolchain\windows\arm-none-eabi\include\c++\10.2.1\bits\allocator.h **** namespace std _GLIBCXX_VISIBILITY(default)
  55:c:\users\toesc\documents\daisytoolchain\windows\arm-none-eabi\include\c++\10.2.1\bits\allocator.h **** {
  56:c:\users\toesc\documents\daisytoolchain\windows\arm-none-eabi\include\c++\10.2.1\bits\allocator.h **** _GLIBCXX_BEGIN_NAMESPACE_VERSION
  57:c:\users\toesc\documents\daisytoolchain\windows\arm-none-eabi\include\c++\10.2.1\bits\allocator.h **** 
  58:c:\users\toesc\documents\daisytoolchain\windows\arm-none-eabi\include\c++\10.2.1\bits\allocator.h ****   /**
  59:c:\users\toesc\documents\daisytoolchain\windows\arm-none-eabi\include\c++\10.2.1\bits\allocator.h ****    *  @addtogroup allocators
  60:c:\users\toesc\documents\daisytoolchain\windows\arm-none-eabi\include\c++\10.2.1\bits\allocator.h ****    *  @{
  61:c:\users\toesc\documents\daisytoolchain\windows\arm-none-eabi\include\c++\10.2.1\bits\allocator.h ****    */
  62:c:\users\toesc\documents\daisytoolchain\windows\arm-none-eabi\include\c++\10.2.1\bits\allocator.h **** 
  63:c:\users\toesc\documents\daisytoolchain\windows\arm-none-eabi\include\c++\10.2.1\bits\allocator.h ****   /// allocator<void> specialization.
  64:c:\users\toesc\documents\daisytoolchain\windows\arm-none-eabi\include\c++\10.2.1\bits\allocator.h ****   template<>
  65:c:\users\toesc\documents\daisytoolchain\windows\arm-none-eabi\include\c++\10.2.1\bits\allocator.h ****     class allocator<void>
  66:c:\users\toesc\documents\daisytoolchain\windows\arm-none-eabi\include\c++\10.2.1\bits\allocator.h ****     {
  67:c:\users\toesc\documents\daisytoolchain\windows\arm-none-eabi\include\c++\10.2.1\bits\allocator.h ****     public:
  68:c:\users\toesc\documents\daisytoolchain\windows\arm-none-eabi\include\c++\10.2.1\bits\allocator.h ****       typedef void        value_type;
  69:c:\users\toesc\documents\daisytoolchain\windows\arm-none-eabi\include\c++\10.2.1\bits\allocator.h ****       typedef size_t      size_type;
  70:c:\users\toesc\documents\daisytoolchain\windows\arm-none-eabi\include\c++\10.2.1\bits\allocator.h ****       typedef ptrdiff_t   difference_type;
  71:c:\users\toesc\documents\daisytoolchain\windows\arm-none-eabi\include\c++\10.2.1\bits\allocator.h **** #if __cplusplus <= 201703L
  72:c:\users\toesc\documents\daisytoolchain\windows\arm-none-eabi\include\c++\10.2.1\bits\allocator.h ****       typedef void*       pointer;
  73:c:\users\toesc\documents\daisytoolchain\windows\arm-none-eabi\include\c++\10.2.1\bits\allocator.h ****       typedef const void* const_pointer;
  74:c:\users\toesc\documents\daisytoolchain\windows\arm-none-eabi\include\c++\10.2.1\bits\allocator.h **** 
  75:c:\users\toesc\documents\daisytoolchain\windows\arm-none-eabi\include\c++\10.2.1\bits\allocator.h ****       template<typename _Tp1>
  76:c:\users\toesc\documents\daisytoolchain\windows\arm-none-eabi\include\c++\10.2.1\bits\allocator.h **** 	struct rebind
  77:c:\users\toesc\documents\daisytoolchain\windows\arm-none-eabi\include\c++\10.2.1\bits\allocator.h **** 	{ typedef allocator<_Tp1> other; };
  78:c:\users\toesc\documents\daisytoolchain\windows\arm-none-eabi\include\c++\10.2.1\bits\allocator.h **** #else
  79:c:\users\toesc\documents\daisytoolchain\windows\arm-none-eabi\include\c++\10.2.1\bits\allocator.h ****       allocator() = default;
  80:c:\users\toesc\documents\daisytoolchain\windows\arm-none-eabi\include\c++\10.2.1\bits\allocator.h **** 
  81:c:\users\toesc\documents\daisytoolchain\windows\arm-none-eabi\include\c++\10.2.1\bits\allocator.h ****       template<typename _Up>
  82:c:\users\toesc\documents\daisytoolchain\windows\arm-none-eabi\include\c++\10.2.1\bits\allocator.h **** 	constexpr
  83:c:\users\toesc\documents\daisytoolchain\windows\arm-none-eabi\include\c++\10.2.1\bits\allocator.h **** 	allocator(const allocator<_Up>&) { }
  84:c:\users\toesc\documents\daisytoolchain\windows\arm-none-eabi\include\c++\10.2.1\bits\allocator.h **** #endif // ! C++20
  85:c:\users\toesc\documents\daisytoolchain\windows\arm-none-eabi\include\c++\10.2.1\bits\allocator.h **** 
  86:c:\users\toesc\documents\daisytoolchain\windows\arm-none-eabi\include\c++\10.2.1\bits\allocator.h **** #if __cplusplus >= 201103L && __cplusplus <= 201703L
  87:c:\users\toesc\documents\daisytoolchain\windows\arm-none-eabi\include\c++\10.2.1\bits\allocator.h ****       // _GLIBCXX_RESOLVE_LIB_DEFECTS
  88:c:\users\toesc\documents\daisytoolchain\windows\arm-none-eabi\include\c++\10.2.1\bits\allocator.h ****       // 2103. std::allocator propagate_on_container_move_assignment
  89:c:\users\toesc\documents\daisytoolchain\windows\arm-none-eabi\include\c++\10.2.1\bits\allocator.h ****       typedef true_type propagate_on_container_move_assignment;
  90:c:\users\toesc\documents\daisytoolchain\windows\arm-none-eabi\include\c++\10.2.1\bits\allocator.h **** 
ARM GAS  C:\Users\toesc\AppData\Local\Temp\ccZujPQb.s 			page 50


  91:c:\users\toesc\documents\daisytoolchain\windows\arm-none-eabi\include\c++\10.2.1\bits\allocator.h ****       typedef true_type is_always_equal;
  92:c:\users\toesc\documents\daisytoolchain\windows\arm-none-eabi\include\c++\10.2.1\bits\allocator.h **** 
  93:c:\users\toesc\documents\daisytoolchain\windows\arm-none-eabi\include\c++\10.2.1\bits\allocator.h ****       template<typename _Up, typename... _Args>
  94:c:\users\toesc\documents\daisytoolchain\windows\arm-none-eabi\include\c++\10.2.1\bits\allocator.h **** 	void
  95:c:\users\toesc\documents\daisytoolchain\windows\arm-none-eabi\include\c++\10.2.1\bits\allocator.h **** 	construct(_Up* __p, _Args&&... __args)
  96:c:\users\toesc\documents\daisytoolchain\windows\arm-none-eabi\include\c++\10.2.1\bits\allocator.h **** 	noexcept(std::is_nothrow_constructible<_Up, _Args...>::value)
  97:c:\users\toesc\documents\daisytoolchain\windows\arm-none-eabi\include\c++\10.2.1\bits\allocator.h **** 	{ ::new((void *)__p) _Up(std::forward<_Args>(__args)...); }
  98:c:\users\toesc\documents\daisytoolchain\windows\arm-none-eabi\include\c++\10.2.1\bits\allocator.h **** 
  99:c:\users\toesc\documents\daisytoolchain\windows\arm-none-eabi\include\c++\10.2.1\bits\allocator.h ****       template<typename _Up>
 100:c:\users\toesc\documents\daisytoolchain\windows\arm-none-eabi\include\c++\10.2.1\bits\allocator.h **** 	void
 101:c:\users\toesc\documents\daisytoolchain\windows\arm-none-eabi\include\c++\10.2.1\bits\allocator.h **** 	destroy(_Up* __p)
 102:c:\users\toesc\documents\daisytoolchain\windows\arm-none-eabi\include\c++\10.2.1\bits\allocator.h **** 	noexcept(std::is_nothrow_destructible<_Up>::value)
 103:c:\users\toesc\documents\daisytoolchain\windows\arm-none-eabi\include\c++\10.2.1\bits\allocator.h **** 	{ __p->~_Up(); }
 104:c:\users\toesc\documents\daisytoolchain\windows\arm-none-eabi\include\c++\10.2.1\bits\allocator.h **** #endif // C++11 to C++17
 105:c:\users\toesc\documents\daisytoolchain\windows\arm-none-eabi\include\c++\10.2.1\bits\allocator.h ****     };
 106:c:\users\toesc\documents\daisytoolchain\windows\arm-none-eabi\include\c++\10.2.1\bits\allocator.h **** 
 107:c:\users\toesc\documents\daisytoolchain\windows\arm-none-eabi\include\c++\10.2.1\bits\allocator.h ****   /**
 108:c:\users\toesc\documents\daisytoolchain\windows\arm-none-eabi\include\c++\10.2.1\bits\allocator.h ****    * @brief  The @a standard allocator, as per [20.4].
 109:c:\users\toesc\documents\daisytoolchain\windows\arm-none-eabi\include\c++\10.2.1\bits\allocator.h ****    *
 110:c:\users\toesc\documents\daisytoolchain\windows\arm-none-eabi\include\c++\10.2.1\bits\allocator.h ****    *  See https://gcc.gnu.org/onlinedocs/libstdc++/manual/memory.html#std.util.memory.allocator
 111:c:\users\toesc\documents\daisytoolchain\windows\arm-none-eabi\include\c++\10.2.1\bits\allocator.h ****    *  for further details.
 112:c:\users\toesc\documents\daisytoolchain\windows\arm-none-eabi\include\c++\10.2.1\bits\allocator.h ****    *
 113:c:\users\toesc\documents\daisytoolchain\windows\arm-none-eabi\include\c++\10.2.1\bits\allocator.h ****    *  @tparam  _Tp  Type of allocated object.
 114:c:\users\toesc\documents\daisytoolchain\windows\arm-none-eabi\include\c++\10.2.1\bits\allocator.h ****    */
 115:c:\users\toesc\documents\daisytoolchain\windows\arm-none-eabi\include\c++\10.2.1\bits\allocator.h ****   template<typename _Tp>
 116:c:\users\toesc\documents\daisytoolchain\windows\arm-none-eabi\include\c++\10.2.1\bits\allocator.h ****     class allocator : public __allocator_base<_Tp>
 117:c:\users\toesc\documents\daisytoolchain\windows\arm-none-eabi\include\c++\10.2.1\bits\allocator.h ****     {
 118:c:\users\toesc\documents\daisytoolchain\windows\arm-none-eabi\include\c++\10.2.1\bits\allocator.h ****     public:
 119:c:\users\toesc\documents\daisytoolchain\windows\arm-none-eabi\include\c++\10.2.1\bits\allocator.h ****       typedef _Tp        value_type;
 120:c:\users\toesc\documents\daisytoolchain\windows\arm-none-eabi\include\c++\10.2.1\bits\allocator.h ****       typedef size_t     size_type;
 121:c:\users\toesc\documents\daisytoolchain\windows\arm-none-eabi\include\c++\10.2.1\bits\allocator.h ****       typedef ptrdiff_t  difference_type;
 122:c:\users\toesc\documents\daisytoolchain\windows\arm-none-eabi\include\c++\10.2.1\bits\allocator.h **** #if __cplusplus <= 201703L
 123:c:\users\toesc\documents\daisytoolchain\windows\arm-none-eabi\include\c++\10.2.1\bits\allocator.h ****       typedef _Tp*       pointer;
 124:c:\users\toesc\documents\daisytoolchain\windows\arm-none-eabi\include\c++\10.2.1\bits\allocator.h ****       typedef const _Tp* const_pointer;
 125:c:\users\toesc\documents\daisytoolchain\windows\arm-none-eabi\include\c++\10.2.1\bits\allocator.h ****       typedef _Tp&       reference;
 126:c:\users\toesc\documents\daisytoolchain\windows\arm-none-eabi\include\c++\10.2.1\bits\allocator.h ****       typedef const _Tp& const_reference;
 127:c:\users\toesc\documents\daisytoolchain\windows\arm-none-eabi\include\c++\10.2.1\bits\allocator.h **** 
 128:c:\users\toesc\documents\daisytoolchain\windows\arm-none-eabi\include\c++\10.2.1\bits\allocator.h ****       template<typename _Tp1>
 129:c:\users\toesc\documents\daisytoolchain\windows\arm-none-eabi\include\c++\10.2.1\bits\allocator.h **** 	struct rebind
 130:c:\users\toesc\documents\daisytoolchain\windows\arm-none-eabi\include\c++\10.2.1\bits\allocator.h **** 	{ typedef allocator<_Tp1> other; };
 131:c:\users\toesc\documents\daisytoolchain\windows\arm-none-eabi\include\c++\10.2.1\bits\allocator.h **** #endif
 132:c:\users\toesc\documents\daisytoolchain\windows\arm-none-eabi\include\c++\10.2.1\bits\allocator.h **** 
 133:c:\users\toesc\documents\daisytoolchain\windows\arm-none-eabi\include\c++\10.2.1\bits\allocator.h **** #if __cplusplus >= 201103L
 134:c:\users\toesc\documents\daisytoolchain\windows\arm-none-eabi\include\c++\10.2.1\bits\allocator.h ****       // _GLIBCXX_RESOLVE_LIB_DEFECTS
 135:c:\users\toesc\documents\daisytoolchain\windows\arm-none-eabi\include\c++\10.2.1\bits\allocator.h ****       // 2103. std::allocator propagate_on_container_move_assignment
 136:c:\users\toesc\documents\daisytoolchain\windows\arm-none-eabi\include\c++\10.2.1\bits\allocator.h ****       typedef true_type propagate_on_container_move_assignment;
 137:c:\users\toesc\documents\daisytoolchain\windows\arm-none-eabi\include\c++\10.2.1\bits\allocator.h **** 
 138:c:\users\toesc\documents\daisytoolchain\windows\arm-none-eabi\include\c++\10.2.1\bits\allocator.h ****       typedef true_type is_always_equal;
 139:c:\users\toesc\documents\daisytoolchain\windows\arm-none-eabi\include\c++\10.2.1\bits\allocator.h **** #endif
 140:c:\users\toesc\documents\daisytoolchain\windows\arm-none-eabi\include\c++\10.2.1\bits\allocator.h **** 
 141:c:\users\toesc\documents\daisytoolchain\windows\arm-none-eabi\include\c++\10.2.1\bits\allocator.h ****       // _GLIBCXX_RESOLVE_LIB_DEFECTS
 142:c:\users\toesc\documents\daisytoolchain\windows\arm-none-eabi\include\c++\10.2.1\bits\allocator.h ****       // 3035. std::allocator's constructors should be constexpr
 143:c:\users\toesc\documents\daisytoolchain\windows\arm-none-eabi\include\c++\10.2.1\bits\allocator.h ****       _GLIBCXX20_CONSTEXPR
 144:c:\users\toesc\documents\daisytoolchain\windows\arm-none-eabi\include\c++\10.2.1\bits\allocator.h ****       allocator() _GLIBCXX_NOTHROW { }
 145:c:\users\toesc\documents\daisytoolchain\windows\arm-none-eabi\include\c++\10.2.1\bits\allocator.h **** 
 146:c:\users\toesc\documents\daisytoolchain\windows\arm-none-eabi\include\c++\10.2.1\bits\allocator.h ****       _GLIBCXX20_CONSTEXPR
 147:c:\users\toesc\documents\daisytoolchain\windows\arm-none-eabi\include\c++\10.2.1\bits\allocator.h ****       allocator(const allocator& __a) _GLIBCXX_NOTHROW
ARM GAS  C:\Users\toesc\AppData\Local\Temp\ccZujPQb.s 			page 51


 815              		.loc 18 147 7 view .LVU167
 816              	.LBB1305:
 817              	.LBI1305:
 818              		.file 19 "c:\\users\\toesc\\documents\\daisytoolchain\\windows\\arm-none-eabi\\include\\c++\\10.2.
   1:c:\users\toesc\documents\daisytoolchain\windows\arm-none-eabi\include\c++\10.2.1\ext\new_allocator.h **** // Allocator that wraps operator new -*- C++ -*-
   2:c:\users\toesc\documents\daisytoolchain\windows\arm-none-eabi\include\c++\10.2.1\ext\new_allocator.h **** 
   3:c:\users\toesc\documents\daisytoolchain\windows\arm-none-eabi\include\c++\10.2.1\ext\new_allocator.h **** // Copyright (C) 2001-2020 Free Software Foundation, Inc.
   4:c:\users\toesc\documents\daisytoolchain\windows\arm-none-eabi\include\c++\10.2.1\ext\new_allocator.h **** //
   5:c:\users\toesc\documents\daisytoolchain\windows\arm-none-eabi\include\c++\10.2.1\ext\new_allocator.h **** // This file is part of the GNU ISO C++ Library.  This library is free
   6:c:\users\toesc\documents\daisytoolchain\windows\arm-none-eabi\include\c++\10.2.1\ext\new_allocator.h **** // software; you can redistribute it and/or modify it under the
   7:c:\users\toesc\documents\daisytoolchain\windows\arm-none-eabi\include\c++\10.2.1\ext\new_allocator.h **** // terms of the GNU General Public License as published by the
   8:c:\users\toesc\documents\daisytoolchain\windows\arm-none-eabi\include\c++\10.2.1\ext\new_allocator.h **** // Free Software Foundation; either version 3, or (at your option)
   9:c:\users\toesc\documents\daisytoolchain\windows\arm-none-eabi\include\c++\10.2.1\ext\new_allocator.h **** // any later version.
  10:c:\users\toesc\documents\daisytoolchain\windows\arm-none-eabi\include\c++\10.2.1\ext\new_allocator.h **** 
  11:c:\users\toesc\documents\daisytoolchain\windows\arm-none-eabi\include\c++\10.2.1\ext\new_allocator.h **** // This library is distributed in the hope that it will be useful,
  12:c:\users\toesc\documents\daisytoolchain\windows\arm-none-eabi\include\c++\10.2.1\ext\new_allocator.h **** // but WITHOUT ANY WARRANTY; without even the implied warranty of
  13:c:\users\toesc\documents\daisytoolchain\windows\arm-none-eabi\include\c++\10.2.1\ext\new_allocator.h **** // MERCHANTABILITY or FITNESS FOR A PARTICULAR PURPOSE.  See the
  14:c:\users\toesc\documents\daisytoolchain\windows\arm-none-eabi\include\c++\10.2.1\ext\new_allocator.h **** // GNU General Public License for more details.
  15:c:\users\toesc\documents\daisytoolchain\windows\arm-none-eabi\include\c++\10.2.1\ext\new_allocator.h **** 
  16:c:\users\toesc\documents\daisytoolchain\windows\arm-none-eabi\include\c++\10.2.1\ext\new_allocator.h **** // Under Section 7 of GPL version 3, you are granted additional
  17:c:\users\toesc\documents\daisytoolchain\windows\arm-none-eabi\include\c++\10.2.1\ext\new_allocator.h **** // permissions described in the GCC Runtime Library Exception, version
  18:c:\users\toesc\documents\daisytoolchain\windows\arm-none-eabi\include\c++\10.2.1\ext\new_allocator.h **** // 3.1, as published by the Free Software Foundation.
  19:c:\users\toesc\documents\daisytoolchain\windows\arm-none-eabi\include\c++\10.2.1\ext\new_allocator.h **** 
  20:c:\users\toesc\documents\daisytoolchain\windows\arm-none-eabi\include\c++\10.2.1\ext\new_allocator.h **** // You should have received a copy of the GNU General Public License and
  21:c:\users\toesc\documents\daisytoolchain\windows\arm-none-eabi\include\c++\10.2.1\ext\new_allocator.h **** // a copy of the GCC Runtime Library Exception along with this program;
  22:c:\users\toesc\documents\daisytoolchain\windows\arm-none-eabi\include\c++\10.2.1\ext\new_allocator.h **** // see the files COPYING3 and COPYING.RUNTIME respectively.  If not, see
  23:c:\users\toesc\documents\daisytoolchain\windows\arm-none-eabi\include\c++\10.2.1\ext\new_allocator.h **** // <http://www.gnu.org/licenses/>.
  24:c:\users\toesc\documents\daisytoolchain\windows\arm-none-eabi\include\c++\10.2.1\ext\new_allocator.h **** 
  25:c:\users\toesc\documents\daisytoolchain\windows\arm-none-eabi\include\c++\10.2.1\ext\new_allocator.h **** /** @file ext/new_allocator.h
  26:c:\users\toesc\documents\daisytoolchain\windows\arm-none-eabi\include\c++\10.2.1\ext\new_allocator.h ****  *  This file is a GNU extension to the Standard C++ Library.
  27:c:\users\toesc\documents\daisytoolchain\windows\arm-none-eabi\include\c++\10.2.1\ext\new_allocator.h ****  */
  28:c:\users\toesc\documents\daisytoolchain\windows\arm-none-eabi\include\c++\10.2.1\ext\new_allocator.h **** 
  29:c:\users\toesc\documents\daisytoolchain\windows\arm-none-eabi\include\c++\10.2.1\ext\new_allocator.h **** #ifndef _NEW_ALLOCATOR_H
  30:c:\users\toesc\documents\daisytoolchain\windows\arm-none-eabi\include\c++\10.2.1\ext\new_allocator.h **** #define _NEW_ALLOCATOR_H 1
  31:c:\users\toesc\documents\daisytoolchain\windows\arm-none-eabi\include\c++\10.2.1\ext\new_allocator.h **** 
  32:c:\users\toesc\documents\daisytoolchain\windows\arm-none-eabi\include\c++\10.2.1\ext\new_allocator.h **** #include <bits/c++config.h>
  33:c:\users\toesc\documents\daisytoolchain\windows\arm-none-eabi\include\c++\10.2.1\ext\new_allocator.h **** #include <new>
  34:c:\users\toesc\documents\daisytoolchain\windows\arm-none-eabi\include\c++\10.2.1\ext\new_allocator.h **** #include <bits/functexcept.h>
  35:c:\users\toesc\documents\daisytoolchain\windows\arm-none-eabi\include\c++\10.2.1\ext\new_allocator.h **** #include <bits/move.h>
  36:c:\users\toesc\documents\daisytoolchain\windows\arm-none-eabi\include\c++\10.2.1\ext\new_allocator.h **** #if __cplusplus >= 201103L
  37:c:\users\toesc\documents\daisytoolchain\windows\arm-none-eabi\include\c++\10.2.1\ext\new_allocator.h **** #include <type_traits>
  38:c:\users\toesc\documents\daisytoolchain\windows\arm-none-eabi\include\c++\10.2.1\ext\new_allocator.h **** #endif
  39:c:\users\toesc\documents\daisytoolchain\windows\arm-none-eabi\include\c++\10.2.1\ext\new_allocator.h **** 
  40:c:\users\toesc\documents\daisytoolchain\windows\arm-none-eabi\include\c++\10.2.1\ext\new_allocator.h **** namespace __gnu_cxx _GLIBCXX_VISIBILITY(default)
  41:c:\users\toesc\documents\daisytoolchain\windows\arm-none-eabi\include\c++\10.2.1\ext\new_allocator.h **** {
  42:c:\users\toesc\documents\daisytoolchain\windows\arm-none-eabi\include\c++\10.2.1\ext\new_allocator.h **** _GLIBCXX_BEGIN_NAMESPACE_VERSION
  43:c:\users\toesc\documents\daisytoolchain\windows\arm-none-eabi\include\c++\10.2.1\ext\new_allocator.h **** 
  44:c:\users\toesc\documents\daisytoolchain\windows\arm-none-eabi\include\c++\10.2.1\ext\new_allocator.h ****   /**
  45:c:\users\toesc\documents\daisytoolchain\windows\arm-none-eabi\include\c++\10.2.1\ext\new_allocator.h ****    *  @brief  An allocator that uses global new, as per [20.4].
  46:c:\users\toesc\documents\daisytoolchain\windows\arm-none-eabi\include\c++\10.2.1\ext\new_allocator.h ****    *  @ingroup allocators
  47:c:\users\toesc\documents\daisytoolchain\windows\arm-none-eabi\include\c++\10.2.1\ext\new_allocator.h ****    *
  48:c:\users\toesc\documents\daisytoolchain\windows\arm-none-eabi\include\c++\10.2.1\ext\new_allocator.h ****    *  This is precisely the allocator defined in the C++ Standard.
  49:c:\users\toesc\documents\daisytoolchain\windows\arm-none-eabi\include\c++\10.2.1\ext\new_allocator.h ****    *    - all allocation calls operator new
  50:c:\users\toesc\documents\daisytoolchain\windows\arm-none-eabi\include\c++\10.2.1\ext\new_allocator.h ****    *    - all deallocation calls operator delete
  51:c:\users\toesc\documents\daisytoolchain\windows\arm-none-eabi\include\c++\10.2.1\ext\new_allocator.h ****    *
  52:c:\users\toesc\documents\daisytoolchain\windows\arm-none-eabi\include\c++\10.2.1\ext\new_allocator.h ****    *  @tparam  _Tp  Type of allocated object.
  53:c:\users\toesc\documents\daisytoolchain\windows\arm-none-eabi\include\c++\10.2.1\ext\new_allocator.h ****    */
ARM GAS  C:\Users\toesc\AppData\Local\Temp\ccZujPQb.s 			page 52


  54:c:\users\toesc\documents\daisytoolchain\windows\arm-none-eabi\include\c++\10.2.1\ext\new_allocator.h ****   template<typename _Tp>
  55:c:\users\toesc\documents\daisytoolchain\windows\arm-none-eabi\include\c++\10.2.1\ext\new_allocator.h ****     class new_allocator
  56:c:\users\toesc\documents\daisytoolchain\windows\arm-none-eabi\include\c++\10.2.1\ext\new_allocator.h ****     {
  57:c:\users\toesc\documents\daisytoolchain\windows\arm-none-eabi\include\c++\10.2.1\ext\new_allocator.h ****     public:
  58:c:\users\toesc\documents\daisytoolchain\windows\arm-none-eabi\include\c++\10.2.1\ext\new_allocator.h ****       typedef _Tp        value_type;
  59:c:\users\toesc\documents\daisytoolchain\windows\arm-none-eabi\include\c++\10.2.1\ext\new_allocator.h ****       typedef std::size_t     size_type;
  60:c:\users\toesc\documents\daisytoolchain\windows\arm-none-eabi\include\c++\10.2.1\ext\new_allocator.h ****       typedef std::ptrdiff_t  difference_type;
  61:c:\users\toesc\documents\daisytoolchain\windows\arm-none-eabi\include\c++\10.2.1\ext\new_allocator.h **** #if __cplusplus <= 201703L
  62:c:\users\toesc\documents\daisytoolchain\windows\arm-none-eabi\include\c++\10.2.1\ext\new_allocator.h ****       typedef _Tp*       pointer;
  63:c:\users\toesc\documents\daisytoolchain\windows\arm-none-eabi\include\c++\10.2.1\ext\new_allocator.h ****       typedef const _Tp* const_pointer;
  64:c:\users\toesc\documents\daisytoolchain\windows\arm-none-eabi\include\c++\10.2.1\ext\new_allocator.h ****       typedef _Tp&       reference;
  65:c:\users\toesc\documents\daisytoolchain\windows\arm-none-eabi\include\c++\10.2.1\ext\new_allocator.h ****       typedef const _Tp& const_reference;
  66:c:\users\toesc\documents\daisytoolchain\windows\arm-none-eabi\include\c++\10.2.1\ext\new_allocator.h **** 
  67:c:\users\toesc\documents\daisytoolchain\windows\arm-none-eabi\include\c++\10.2.1\ext\new_allocator.h ****       template<typename _Tp1>
  68:c:\users\toesc\documents\daisytoolchain\windows\arm-none-eabi\include\c++\10.2.1\ext\new_allocator.h **** 	struct rebind
  69:c:\users\toesc\documents\daisytoolchain\windows\arm-none-eabi\include\c++\10.2.1\ext\new_allocator.h **** 	{ typedef new_allocator<_Tp1> other; };
  70:c:\users\toesc\documents\daisytoolchain\windows\arm-none-eabi\include\c++\10.2.1\ext\new_allocator.h **** #endif
  71:c:\users\toesc\documents\daisytoolchain\windows\arm-none-eabi\include\c++\10.2.1\ext\new_allocator.h **** 
  72:c:\users\toesc\documents\daisytoolchain\windows\arm-none-eabi\include\c++\10.2.1\ext\new_allocator.h **** #if __cplusplus >= 201103L
  73:c:\users\toesc\documents\daisytoolchain\windows\arm-none-eabi\include\c++\10.2.1\ext\new_allocator.h ****       // _GLIBCXX_RESOLVE_LIB_DEFECTS
  74:c:\users\toesc\documents\daisytoolchain\windows\arm-none-eabi\include\c++\10.2.1\ext\new_allocator.h ****       // 2103. propagate_on_container_move_assignment
  75:c:\users\toesc\documents\daisytoolchain\windows\arm-none-eabi\include\c++\10.2.1\ext\new_allocator.h ****       typedef std::true_type propagate_on_container_move_assignment;
  76:c:\users\toesc\documents\daisytoolchain\windows\arm-none-eabi\include\c++\10.2.1\ext\new_allocator.h **** #endif
  77:c:\users\toesc\documents\daisytoolchain\windows\arm-none-eabi\include\c++\10.2.1\ext\new_allocator.h **** 
  78:c:\users\toesc\documents\daisytoolchain\windows\arm-none-eabi\include\c++\10.2.1\ext\new_allocator.h ****       _GLIBCXX20_CONSTEXPR
  79:c:\users\toesc\documents\daisytoolchain\windows\arm-none-eabi\include\c++\10.2.1\ext\new_allocator.h ****       new_allocator() _GLIBCXX_USE_NOEXCEPT { }
  80:c:\users\toesc\documents\daisytoolchain\windows\arm-none-eabi\include\c++\10.2.1\ext\new_allocator.h **** 
