ARM GAS  C:\Users\toesc\AppData\Local\Temp\ccOgcMME.s 			page 1


   1              		.cpu cortex-m7
   2              		.eabi_attribute 28, 1
   3              		.eabi_attribute 20, 1
   4              		.eabi_attribute 21, 1
   5              		.eabi_attribute 23, 3
   6              		.eabi_attribute 24, 1
   7              		.eabi_attribute 25, 1
   8              		.eabi_attribute 26, 1
   9              		.eabi_attribute 30, 2
  10              		.eabi_attribute 34, 1
  11              		.eabi_attribute 18, 4
  12              		.file	"adsr.cpp"
  13              		.text
  14              	.Ltext0:
  15              		.cfi_sections	.debug_frame
  16              		.section	.text._ZN7daisysp4AdsrD2Ev,"axG",%progbits,_ZN7daisysp4AdsrD5Ev,comdat
  17              		.align	1
  18              		.p2align 2,,3
  19              		.weak	_ZN7daisysp4AdsrD2Ev
  20              		.arch armv7e-m
  21              		.syntax unified
  22              		.thumb
  23              		.thumb_func
  24              		.fpu fpv5-d16
  26              	_ZN7daisysp4AdsrD2Ev:
  27              	.LVL0:
  28              	.LFB562:
  29              		.file 1 "../../../DaisySP/Source/Control/adsr.h"
   1:../../../DaisySP/Source/Control/adsr.h **** #pragma once
   2:../../../DaisySP/Source/Control/adsr.h **** #ifndef DSY_ADSR_H
   3:../../../DaisySP/Source/Control/adsr.h **** #define DSY_ADSR_H
   4:../../../DaisySP/Source/Control/adsr.h **** 
   5:../../../DaisySP/Source/Control/adsr.h **** #include <stdint.h>
   6:../../../DaisySP/Source/Control/adsr.h **** #ifdef __cplusplus
   7:../../../DaisySP/Source/Control/adsr.h **** 
   8:../../../DaisySP/Source/Control/adsr.h **** namespace daisysp
   9:../../../DaisySP/Source/Control/adsr.h **** {
  10:../../../DaisySP/Source/Control/adsr.h **** /** Distinct stages that the phase of the envelope can be located in.
  11:../../../DaisySP/Source/Control/adsr.h **** - IDLE   = located at phase location 0, and not currently running
  12:../../../DaisySP/Source/Control/adsr.h **** - ATTACK  = First segment of envelope where phase moves from 0 to 1
  13:../../../DaisySP/Source/Control/adsr.h **** - DECAY   = Second segment of envelope where phase moves from 1 to SUSTAIN value
  14:../../../DaisySP/Source/Control/adsr.h **** - RELEASE =     Fourth segment of envelop where phase moves from SUSTAIN to 0
  15:../../../DaisySP/Source/Control/adsr.h **** */
  16:../../../DaisySP/Source/Control/adsr.h **** enum
  17:../../../DaisySP/Source/Control/adsr.h **** {
  18:../../../DaisySP/Source/Control/adsr.h ****     ADSR_SEG_IDLE    = 0,
  19:../../../DaisySP/Source/Control/adsr.h ****     ADSR_SEG_ATTACK  = 1,
  20:../../../DaisySP/Source/Control/adsr.h ****     ADSR_SEG_DECAY   = 2,
  21:../../../DaisySP/Source/Control/adsr.h ****     ADSR_SEG_RELEASE = 4
  22:../../../DaisySP/Source/Control/adsr.h **** };
  23:../../../DaisySP/Source/Control/adsr.h **** 
  24:../../../DaisySP/Source/Control/adsr.h **** 
  25:../../../DaisySP/Source/Control/adsr.h **** /** adsr envelope module
  26:../../../DaisySP/Source/Control/adsr.h **** 
  27:../../../DaisySP/Source/Control/adsr.h **** Original author(s) : Paul Batchelor
  28:../../../DaisySP/Source/Control/adsr.h **** 
  29:../../../DaisySP/Source/Control/adsr.h **** Ported from Soundpipe by Ben Sergentanis, May 2020
ARM GAS  C:\Users\toesc\AppData\Local\Temp\ccOgcMME.s 			page 2


  30:../../../DaisySP/Source/Control/adsr.h ****  
  31:../../../DaisySP/Source/Control/adsr.h **** Remake by Steffan DIedrichsen, May 2021
  32:../../../DaisySP/Source/Control/adsr.h **** */
  33:../../../DaisySP/Source/Control/adsr.h **** class Adsr
  34:../../../DaisySP/Source/Control/adsr.h **** {
  35:../../../DaisySP/Source/Control/adsr.h ****   public:
  36:../../../DaisySP/Source/Control/adsr.h ****     Adsr() {}
  37:../../../DaisySP/Source/Control/adsr.h ****     ~Adsr() {}
  30              		.loc 1 37 5 view -0
  31              		.cfi_startproc
  32              		@ args = 0, pretend = 0, frame = 0
  33              		@ frame_needed = 0, uses_anonymous_args = 0
  34              		@ link register save eliminated.
  35              		.loc 1 37 14 is_stmt 0 view .LVU1
  36 0000 7047     		bx	lr
  37              		.cfi_endproc
  38              	.LFE562:
  40              		.weak	_ZN7daisysp4AdsrD1Ev
  41              		.thumb_set _ZN7daisysp4AdsrD1Ev,_ZN7daisysp4AdsrD2Ev
  42 0002 00BF     		.section	.text._ZN7daisysp10OscillatorD2Ev,"axG",%progbits,_ZN7daisysp10OscillatorD5Ev,comdat
  43              		.align	1
  44              		.p2align 2,,3
  45              		.weak	_ZN7daisysp10OscillatorD2Ev
  46              		.syntax unified
  47              		.thumb
  48              		.thumb_func
  49              		.fpu fpv5-d16
  51              	_ZN7daisysp10OscillatorD2Ev:
  52              	.LVL1:
  53              	.LFB2830:
  54              		.file 2 "../../../DaisySP/Source/Synthesis/oscillator.h"
   1:../../../DaisySP/Source/Synthesis/oscillator.h **** #pragma once
   2:../../../DaisySP/Source/Synthesis/oscillator.h **** #ifndef DSY_OSCILLATOR_H
   3:../../../DaisySP/Source/Synthesis/oscillator.h **** #define DSY_OSCILLATOR_H
   4:../../../DaisySP/Source/Synthesis/oscillator.h **** #include <stdint.h>
   5:../../../DaisySP/Source/Synthesis/oscillator.h **** #include "Utility/dsp.h"
   6:../../../DaisySP/Source/Synthesis/oscillator.h **** #ifdef __cplusplus
   7:../../../DaisySP/Source/Synthesis/oscillator.h **** 
   8:../../../DaisySP/Source/Synthesis/oscillator.h **** namespace daisysp
   9:../../../DaisySP/Source/Synthesis/oscillator.h **** {
  10:../../../DaisySP/Source/Synthesis/oscillator.h **** /** Synthesis of several waveforms, including polyBLEP bandlimited waveforms.
  11:../../../DaisySP/Source/Synthesis/oscillator.h **** */
  12:../../../DaisySP/Source/Synthesis/oscillator.h **** class Oscillator
  13:../../../DaisySP/Source/Synthesis/oscillator.h **** {
  14:../../../DaisySP/Source/Synthesis/oscillator.h ****   public:
  15:../../../DaisySP/Source/Synthesis/oscillator.h ****     Oscillator() {}
  16:../../../DaisySP/Source/Synthesis/oscillator.h ****     ~Oscillator() {}
  55              		.loc 2 16 5 is_stmt 1 view -0
  56              		.cfi_startproc
  57              		@ args = 0, pretend = 0, frame = 0
  58              		@ frame_needed = 0, uses_anonymous_args = 0
  59              		@ link register save eliminated.
  60              		.loc 2 16 20 is_stmt 0 view .LVU3
  61 0000 7047     		bx	lr
  62              		.cfi_endproc
  63              	.LFE2830:
  65              		.weak	_ZN7daisysp10OscillatorD1Ev
ARM GAS  C:\Users\toesc\AppData\Local\Temp\ccOgcMME.s 			page 3


  66              		.thumb_set _ZN7daisysp10OscillatorD1Ev,_ZN7daisysp10OscillatorD2Ev
  67              		.section	.text._ZN7daisysp8ReverbScD2Ev,"axG",%progbits,_ZN7daisysp8ReverbScD5Ev,comdat
  68              		.align	1
  69              		.p2align 2,,3
  70              		.weak	_ZN7daisysp8ReverbScD2Ev
  71              		.syntax unified
  72              		.thumb
  73              		.thumb_func
  74              		.fpu fpv5-d16
  76              	_ZN7daisysp8ReverbScD2Ev:
  77              	.LVL2:
  78              	.LFB3033:
  79              		.file 3 "../../../DaisySP/Source/Effects/reverbsc.h"
   1:../../../DaisySP/Source/Effects/reverbsc.h **** #pragma once
   2:../../../DaisySP/Source/Effects/reverbsc.h **** #ifndef DSYSP_REVERBSC_H
   3:../../../DaisySP/Source/Effects/reverbsc.h **** #define DSYSP_REVERBSC_H
   4:../../../DaisySP/Source/Effects/reverbsc.h **** 
   5:../../../DaisySP/Source/Effects/reverbsc.h **** #define DSY_REVERBSC_MAX_SIZE 98936
   6:../../../DaisySP/Source/Effects/reverbsc.h **** 
   7:../../../DaisySP/Source/Effects/reverbsc.h **** namespace daisysp
   8:../../../DaisySP/Source/Effects/reverbsc.h **** {
   9:../../../DaisySP/Source/Effects/reverbsc.h **** /**Delay line for internal reverb use
  10:../../../DaisySP/Source/Effects/reverbsc.h **** */
  11:../../../DaisySP/Source/Effects/reverbsc.h **** typedef struct
  12:../../../DaisySP/Source/Effects/reverbsc.h **** {
  13:../../../DaisySP/Source/Effects/reverbsc.h ****     int    write_pos;         /**< write position */
  14:../../../DaisySP/Source/Effects/reverbsc.h ****     int    buffer_size;       /**< buffer size */
  15:../../../DaisySP/Source/Effects/reverbsc.h ****     int    read_pos;          /**< read position */
  16:../../../DaisySP/Source/Effects/reverbsc.h ****     int    read_pos_frac;     /**< fractional component of read pos */
  17:../../../DaisySP/Source/Effects/reverbsc.h ****     int    read_pos_frac_inc; /**< increment for fractional */
  18:../../../DaisySP/Source/Effects/reverbsc.h ****     int    dummy;             /**<  dummy var */
  19:../../../DaisySP/Source/Effects/reverbsc.h ****     int    seed_val;          /**< randseed */
  20:../../../DaisySP/Source/Effects/reverbsc.h ****     int    rand_line_cnt;     /**< number of random lines */
  21:../../../DaisySP/Source/Effects/reverbsc.h ****     float  filter_state;      /**< state of filter */
  22:../../../DaisySP/Source/Effects/reverbsc.h ****     float *buf;               /**< buffer ptr */
  23:../../../DaisySP/Source/Effects/reverbsc.h **** } ReverbScDl;
  24:../../../DaisySP/Source/Effects/reverbsc.h **** 
  25:../../../DaisySP/Source/Effects/reverbsc.h **** /** Stereo Reverb
  26:../../../DaisySP/Source/Effects/reverbsc.h **** 
  27:../../../DaisySP/Source/Effects/reverbsc.h **** Reverb SC:               Ported from csound/soundpipe
  28:../../../DaisySP/Source/Effects/reverbsc.h **** 
  29:../../../DaisySP/Source/Effects/reverbsc.h **** Original author(s):        Sean Costello, Istvan Varga
  30:../../../DaisySP/Source/Effects/reverbsc.h **** 
  31:../../../DaisySP/Source/Effects/reverbsc.h **** Year:                    1999, 2005
  32:../../../DaisySP/Source/Effects/reverbsc.h **** 
  33:../../../DaisySP/Source/Effects/reverbsc.h **** Ported to soundpipe by:  Paul Batchelor
  34:../../../DaisySP/Source/Effects/reverbsc.h **** 
  35:../../../DaisySP/Source/Effects/reverbsc.h **** Ported by:                Stephen Hensley
  36:../../../DaisySP/Source/Effects/reverbsc.h **** */
  37:../../../DaisySP/Source/Effects/reverbsc.h **** class ReverbSc
  38:../../../DaisySP/Source/Effects/reverbsc.h **** {
  39:../../../DaisySP/Source/Effects/reverbsc.h ****   public:
  40:../../../DaisySP/Source/Effects/reverbsc.h ****     ReverbSc() {}
  41:../../../DaisySP/Source/Effects/reverbsc.h ****     ~ReverbSc() {}
  80              		.loc 3 41 5 is_stmt 1 view -0
  81              		.cfi_startproc
  82              		@ args = 0, pretend = 0, frame = 0
ARM GAS  C:\Users\toesc\AppData\Local\Temp\ccOgcMME.s 			page 4


  83              		@ frame_needed = 0, uses_anonymous_args = 0
  84              		@ link register save eliminated.
  85              		.loc 3 41 18 is_stmt 0 view .LVU5
  86 0000 7047     		bx	lr
  87              		.cfi_endproc
  88              	.LFE3033:
  90              		.weak	_ZN7daisysp8ReverbScD1Ev
  91              		.thumb_set _ZN7daisysp8ReverbScD1Ev,_ZN7daisysp8ReverbScD2Ev
  92              		.section	.text._ZN7daisysp10MoogLadderD2Ev,"axG",%progbits,_ZN7daisysp10MoogLadderD5Ev,comdat
  93              		.align	1
  94              		.p2align 2,,3
  95              		.weak	_ZN7daisysp10MoogLadderD2Ev
  96              		.syntax unified
  97              		.thumb
  98              		.thumb_func
  99              		.fpu fpv5-d16
 101              	_ZN7daisysp10MoogLadderD2Ev:
 102              	.LVL3:
 103              	.LFB3118:
 104              		.file 4 "../../../DaisySP/Source/Filters/moogladder.h"
   1:../../../DaisySP/Source/Filters/moogladder.h **** #pragma once
   2:../../../DaisySP/Source/Filters/moogladder.h **** #ifndef DSY_MOOGLADDER_H
   3:../../../DaisySP/Source/Filters/moogladder.h **** #define DSY_MOOGLADDER_H
   4:../../../DaisySP/Source/Filters/moogladder.h **** 
   5:../../../DaisySP/Source/Filters/moogladder.h **** #include <stdint.h>
   6:../../../DaisySP/Source/Filters/moogladder.h **** #ifdef __cplusplus
   7:../../../DaisySP/Source/Filters/moogladder.h **** 
   8:../../../DaisySP/Source/Filters/moogladder.h **** namespace daisysp
   9:../../../DaisySP/Source/Filters/moogladder.h **** {
  10:../../../DaisySP/Source/Filters/moogladder.h **** /** Moog ladder filter module
  11:../../../DaisySP/Source/Filters/moogladder.h **** 
  12:../../../DaisySP/Source/Filters/moogladder.h **** Ported from soundpipe
  13:../../../DaisySP/Source/Filters/moogladder.h **** 
  14:../../../DaisySP/Source/Filters/moogladder.h **** Original author(s) : Victor Lazzarini, John ffitch (fast tanh), Bob Moog
  15:../../../DaisySP/Source/Filters/moogladder.h **** 
  16:../../../DaisySP/Source/Filters/moogladder.h **** */
  17:../../../DaisySP/Source/Filters/moogladder.h **** class MoogLadder
  18:../../../DaisySP/Source/Filters/moogladder.h **** {
  19:../../../DaisySP/Source/Filters/moogladder.h ****   public:
  20:../../../DaisySP/Source/Filters/moogladder.h ****     MoogLadder() {}
  21:../../../DaisySP/Source/Filters/moogladder.h ****     ~MoogLadder() {}
 105              		.loc 4 21 5 is_stmt 1 view -0
 106              		.cfi_startproc
 107              		@ args = 0, pretend = 0, frame = 0
 108              		@ frame_needed = 0, uses_anonymous_args = 0
 109              		@ link register save eliminated.
 110              		.loc 4 21 20 is_stmt 0 view .LVU7
 111 0000 7047     		bx	lr
 112              		.cfi_endproc
 113              	.LFE3118:
 115              		.weak	_ZN7daisysp10MoogLadderD1Ev
 116              		.thumb_set _ZN7daisysp10MoogLadderD1Ev,_ZN7daisysp10MoogLadderD2Ev
 117              		.section	.text._ZN7daisysp5BlOscD2Ev,"axG",%progbits,_ZN7daisysp5BlOscD5Ev,comdat
 118              		.align	1
 119              		.p2align 2,,3
 120              		.weak	_ZN7daisysp5BlOscD2Ev
 121              		.syntax unified
ARM GAS  C:\Users\toesc\AppData\Local\Temp\ccOgcMME.s 			page 5


 122              		.thumb
 123              		.thumb_func
 124              		.fpu fpv5-d16
 126              	_ZN7daisysp5BlOscD2Ev:
 127              	.LVL4:
 128              	.LFB3290:
 129              		.file 5 "../../../DaisySP/Source/Synthesis/blosc.h"
   1:../../../DaisySP/Source/Synthesis/blosc.h **** #pragma once
   2:../../../DaisySP/Source/Synthesis/blosc.h **** #ifndef DSY_BLOSC_H
   3:../../../DaisySP/Source/Synthesis/blosc.h **** #define DSY_BLOSC_H
   4:../../../DaisySP/Source/Synthesis/blosc.h **** 
   5:../../../DaisySP/Source/Synthesis/blosc.h **** #include <stdint.h>
   6:../../../DaisySP/Source/Synthesis/blosc.h **** #ifdef __cplusplus
   7:../../../DaisySP/Source/Synthesis/blosc.h **** 
   8:../../../DaisySP/Source/Synthesis/blosc.h **** namespace daisysp
   9:../../../DaisySP/Source/Synthesis/blosc.h **** {
  10:../../../DaisySP/Source/Synthesis/blosc.h **** /** Band Limited Oscillator
  11:../../../DaisySP/Source/Synthesis/blosc.h **** 
  12:../../../DaisySP/Source/Synthesis/blosc.h ****  Based on bltriangle, blsaw, blsquare from soundpipe
  13:../../../DaisySP/Source/Synthesis/blosc.h **** 
  14:../../../DaisySP/Source/Synthesis/blosc.h ****  Original Author(s): Paul Batchelor, saw2 Faust by Julius Smith
  15:../../../DaisySP/Source/Synthesis/blosc.h **** 
  16:../../../DaisySP/Source/Synthesis/blosc.h ****  Ported by Ben Sergentanis, May 2020
  17:../../../DaisySP/Source/Synthesis/blosc.h **** */
  18:../../../DaisySP/Source/Synthesis/blosc.h **** class BlOsc
  19:../../../DaisySP/Source/Synthesis/blosc.h **** {
  20:../../../DaisySP/Source/Synthesis/blosc.h ****   public:
  21:../../../DaisySP/Source/Synthesis/blosc.h ****     BlOsc() {}
  22:../../../DaisySP/Source/Synthesis/blosc.h ****     ~BlOsc() {}
 130              		.loc 5 22 5 is_stmt 1 view -0
 131              		.cfi_startproc
 132              		@ args = 0, pretend = 0, frame = 0
 133              		@ frame_needed = 0, uses_anonymous_args = 0
 134              		@ link register save eliminated.
 135              		.loc 5 22 15 is_stmt 0 view .LVU9
 136 0000 7047     		bx	lr
 137              		.cfi_endproc
 138              	.LFE3290:
 140              		.weak	_ZN7daisysp5BlOscD1Ev
 141              		.thumb_set _ZN7daisysp5BlOscD1Ev,_ZN7daisysp5BlOscD2Ev
 142              		.section	.text._ZN5daisy9DaisySeedD2Ev,"axG",%progbits,_ZN5daisy9DaisySeedD5Ev,comdat
 143              		.align	1
 144              		.p2align 2,,3
 145              		.weak	_ZN5daisy9DaisySeedD2Ev
 146              		.syntax unified
 147              		.thumb
 148              		.thumb_func
 149              		.fpu fpv5-d16
 151              	_ZN5daisy9DaisySeedD2Ev:
 152              	.LVL5:
 153              	.LFB4774:
 154              		.file 6 "../../../libDaisy/src/daisy_seed.h"
   1:../../../libDaisy/src/daisy_seed.h **** #pragma once
   2:../../../libDaisy/src/daisy_seed.h **** #ifndef DSY_SEED_H
   3:../../../libDaisy/src/daisy_seed.h **** #define DSY_SEED_H
   4:../../../libDaisy/src/daisy_seed.h **** 
   5:../../../libDaisy/src/daisy_seed.h **** #include "daisy.h"
ARM GAS  C:\Users\toesc\AppData\Local\Temp\ccOgcMME.s 			page 6


   6:../../../libDaisy/src/daisy_seed.h **** 
   7:../../../libDaisy/src/daisy_seed.h **** //Uncomment this out if you're still using the rev2 hardware
   8:../../../libDaisy/src/daisy_seed.h **** //#define SEED_REV2
   9:../../../libDaisy/src/daisy_seed.h **** 
  10:../../../libDaisy/src/daisy_seed.h **** namespace daisy
  11:../../../libDaisy/src/daisy_seed.h **** {
  12:../../../libDaisy/src/daisy_seed.h **** /**
  13:../../../libDaisy/src/daisy_seed.h ****    @brief This is the higher-level interface for the Daisy board. \n 
  14:../../../libDaisy/src/daisy_seed.h ****     All basic peripheral configuration/initialization is setup here. \n
  15:../../../libDaisy/src/daisy_seed.h **** 
  16:../../../libDaisy/src/daisy_seed.h ****    @ingroup boards
  17:../../../libDaisy/src/daisy_seed.h **** */
  18:../../../libDaisy/src/daisy_seed.h **** class DaisySeed
  19:../../../libDaisy/src/daisy_seed.h **** {
  20:../../../libDaisy/src/daisy_seed.h ****   public:
  21:../../../libDaisy/src/daisy_seed.h ****     DaisySeed() {}
  22:../../../libDaisy/src/daisy_seed.h ****     ~DaisySeed() {}
 155              		.loc 6 22 5 is_stmt 1 view -0
 156              		.cfi_startproc
 157              		@ args = 0, pretend = 0, frame = 0
 158              		@ frame_needed = 0, uses_anonymous_args = 0
 159              		@ link register save eliminated.
 160              	.LBB301:
 161              	.LBI301:
 162              		.file 7 "../../../libDaisy/src/sys/system.h"
   1:../../../libDaisy/src/sys/system.h **** #ifndef DSY_SYSTEM_H
   2:../../../libDaisy/src/sys/system.h **** #define DSY_SYSTEM_H
   3:../../../libDaisy/src/sys/system.h **** 
   4:../../../libDaisy/src/sys/system.h **** #ifndef UNIT_TEST // for unit tests, a dummy implementation is provided below
   5:../../../libDaisy/src/sys/system.h **** 
   6:../../../libDaisy/src/sys/system.h **** #include <cstdint>
   7:../../../libDaisy/src/sys/system.h **** #include "per/tim.h"
   8:../../../libDaisy/src/sys/system.h **** 
   9:../../../libDaisy/src/sys/system.h **** namespace daisy
  10:../../../libDaisy/src/sys/system.h **** {
  11:../../../libDaisy/src/sys/system.h **** /** A handle for interacting with the Core System. 
  12:../../../libDaisy/src/sys/system.h ****  ** This includes the Clock tree, MPU, global DMA initialization,
  13:../../../libDaisy/src/sys/system.h ****  ** cache handling, and any other necessary global initiailzation
  14:../../../libDaisy/src/sys/system.h ****  **
  15:../../../libDaisy/src/sys/system.h ****  ** @author shensley
  16:../../../libDaisy/src/sys/system.h ****  ** @ingroup system
  17:../../../libDaisy/src/sys/system.h ****  */
  18:../../../libDaisy/src/sys/system.h **** class System
  19:../../../libDaisy/src/sys/system.h **** {
  20:../../../libDaisy/src/sys/system.h ****   public:
  21:../../../libDaisy/src/sys/system.h ****     /** Contains settings for initializing the System */
  22:../../../libDaisy/src/sys/system.h ****     struct Config
  23:../../../libDaisy/src/sys/system.h ****     {
  24:../../../libDaisy/src/sys/system.h ****         /** Specifies the system clock frequency that feeds APB/AHB clocks, etc. */
  25:../../../libDaisy/src/sys/system.h ****         enum class SysClkFreq
  26:../../../libDaisy/src/sys/system.h ****         {
  27:../../../libDaisy/src/sys/system.h ****             FREQ_400MHZ,
  28:../../../libDaisy/src/sys/system.h ****             FREQ_480MHZ,
  29:../../../libDaisy/src/sys/system.h ****         };
  30:../../../libDaisy/src/sys/system.h **** 
  31:../../../libDaisy/src/sys/system.h ****         /** Method to call on the struct to set to defaults
  32:../../../libDaisy/src/sys/system.h ****          ** CPU Freq set to 400MHz
ARM GAS  C:\Users\toesc\AppData\Local\Temp\ccOgcMME.s 			page 7


  33:../../../libDaisy/src/sys/system.h ****          ** Cache Enabled 
  34:../../../libDaisy/src/sys/system.h ****          ** */
  35:../../../libDaisy/src/sys/system.h ****         void Defaults()
  36:../../../libDaisy/src/sys/system.h ****         {
  37:../../../libDaisy/src/sys/system.h ****             cpu_freq    = SysClkFreq::FREQ_400MHZ;
  38:../../../libDaisy/src/sys/system.h ****             use_dcache  = true;
  39:../../../libDaisy/src/sys/system.h ****             use_icache  = true;
  40:../../../libDaisy/src/sys/system.h ****             skip_clocks = false;
  41:../../../libDaisy/src/sys/system.h ****         }
  42:../../../libDaisy/src/sys/system.h **** 
  43:../../../libDaisy/src/sys/system.h ****         /** Method to call on the struct to set to boost mode:
  44:../../../libDaisy/src/sys/system.h ****          ** CPU Freq set to 480MHz
  45:../../../libDaisy/src/sys/system.h ****          ** Cache Enabled 
  46:../../../libDaisy/src/sys/system.h ****          ** */
  47:../../../libDaisy/src/sys/system.h ****         void Boost()
  48:../../../libDaisy/src/sys/system.h ****         {
  49:../../../libDaisy/src/sys/system.h ****             cpu_freq    = SysClkFreq::FREQ_480MHZ;
  50:../../../libDaisy/src/sys/system.h ****             use_dcache  = true;
  51:../../../libDaisy/src/sys/system.h ****             use_icache  = true;
  52:../../../libDaisy/src/sys/system.h ****             skip_clocks = false;
  53:../../../libDaisy/src/sys/system.h ****         }
  54:../../../libDaisy/src/sys/system.h **** 
  55:../../../libDaisy/src/sys/system.h ****         SysClkFreq cpu_freq;
  56:../../../libDaisy/src/sys/system.h ****         bool       use_dcache;
  57:../../../libDaisy/src/sys/system.h ****         bool       use_icache;
  58:../../../libDaisy/src/sys/system.h ****         bool       skip_clocks;
  59:../../../libDaisy/src/sys/system.h ****     };
  60:../../../libDaisy/src/sys/system.h **** 
  61:../../../libDaisy/src/sys/system.h ****     /** Describes the different regions of memory available to the Daisy
  62:../../../libDaisy/src/sys/system.h ****      * 
  63:../../../libDaisy/src/sys/system.h ****      */
  64:../../../libDaisy/src/sys/system.h ****     enum MemoryRegion
  65:../../../libDaisy/src/sys/system.h ****     {
  66:../../../libDaisy/src/sys/system.h ****         INTERNAL_FLASH = 0,
  67:../../../libDaisy/src/sys/system.h ****         ITCMRAM,
  68:../../../libDaisy/src/sys/system.h ****         DTCMRAM,
  69:../../../libDaisy/src/sys/system.h ****         SRAM_D1,
  70:../../../libDaisy/src/sys/system.h ****         SRAM_D2,
  71:../../../libDaisy/src/sys/system.h ****         SRAM_D3,
  72:../../../libDaisy/src/sys/system.h ****         SDRAM,
  73:../../../libDaisy/src/sys/system.h ****         QSPI,
  74:../../../libDaisy/src/sys/system.h ****         INVALID_ADDRESS,
  75:../../../libDaisy/src/sys/system.h ****     };
  76:../../../libDaisy/src/sys/system.h **** 
  77:../../../libDaisy/src/sys/system.h ****     System() {}
  78:../../../libDaisy/src/sys/system.h ****     ~System() {}
 163              		.loc 7 78 5 view .LVU11
 164              		.loc 7 78 5 is_stmt 0 view .LVU12
 165              	.LBE301:
 166              	.LBB302:
 167              	.LBI302:
 168              		.file 8 "../../../libDaisy/src/hid/usb.h"
   1:../../../libDaisy/src/hid/usb.h **** #pragma once
   2:../../../libDaisy/src/hid/usb.h **** #ifndef DSY_HID_USB_H
   3:../../../libDaisy/src/hid/usb.h **** #define DSY_HID_USB_H
   4:../../../libDaisy/src/hid/usb.h **** #include <stdint.h>
   5:../../../libDaisy/src/hid/usb.h **** #include <stdlib.h>
ARM GAS  C:\Users\toesc\AppData\Local\Temp\ccOgcMME.s 			page 8


   6:../../../libDaisy/src/hid/usb.h **** 
   7:../../../libDaisy/src/hid/usb.h **** namespace daisy
   8:../../../libDaisy/src/hid/usb.h **** /** @addtogroup human_interface
   9:../../../libDaisy/src/hid/usb.h ****     @{
  10:../../../libDaisy/src/hid/usb.h **** */
  11:../../../libDaisy/src/hid/usb.h **** 
  12:../../../libDaisy/src/hid/usb.h **** {
  13:../../../libDaisy/src/hid/usb.h **** /** 
  14:../../../libDaisy/src/hid/usb.h ****     @brief Interface for initializing and using the USB Peripherals on the daisy
  15:../../../libDaisy/src/hid/usb.h ****     @author Stephen Hensley
  16:../../../libDaisy/src/hid/usb.h ****     @date December 2019
  17:../../../libDaisy/src/hid/usb.h **** */
  18:../../../libDaisy/src/hid/usb.h **** class UsbHandle
  19:../../../libDaisy/src/hid/usb.h **** {
  20:../../../libDaisy/src/hid/usb.h ****   public:
  21:../../../libDaisy/src/hid/usb.h ****     /** Return values for USBHandle Functions */
  22:../../../libDaisy/src/hid/usb.h ****     enum class Result
  23:../../../libDaisy/src/hid/usb.h ****     {
  24:../../../libDaisy/src/hid/usb.h ****         OK,
  25:../../../libDaisy/src/hid/usb.h ****         ERR,
  26:../../../libDaisy/src/hid/usb.h ****     };
  27:../../../libDaisy/src/hid/usb.h **** 
  28:../../../libDaisy/src/hid/usb.h ****     /** Specified which of the two USB Peripherals to initialize. */
  29:../../../libDaisy/src/hid/usb.h ****     enum UsbPeriph
  30:../../../libDaisy/src/hid/usb.h ****     {
  31:../../../libDaisy/src/hid/usb.h ****         FS_INTERNAL, /**< Internal pin */
  32:../../../libDaisy/src/hid/usb.h ****         FS_EXTERNAL, /**< FS External D+ pin is Pin 38 (GPIO32). FS External D- pin is Pin 37 (GPIO
  33:../../../libDaisy/src/hid/usb.h ****         FS_BOTH,     /**< Both */
  34:../../../libDaisy/src/hid/usb.h ****     };
  35:../../../libDaisy/src/hid/usb.h **** 
  36:../../../libDaisy/src/hid/usb.h **** 
  37:../../../libDaisy/src/hid/usb.h ****     /** Function called upon reception of a buffer */
  38:../../../libDaisy/src/hid/usb.h ****     typedef void (*ReceiveCallback)(uint8_t* buff, uint32_t* len);
  39:../../../libDaisy/src/hid/usb.h **** 
  40:../../../libDaisy/src/hid/usb.h ****     UsbHandle() {}
  41:../../../libDaisy/src/hid/usb.h **** 
  42:../../../libDaisy/src/hid/usb.h ****     ~UsbHandle() {}
 169              		.loc 8 42 5 is_stmt 1 view .LVU13
 170              		.loc 8 42 5 is_stmt 0 view .LVU14
 171              	.LBE302:
 172              	.LBB303:
 173              	.LBI303:
 174              		.file 9 "../../../libDaisy/src/per/adc.h"
   1:../../../libDaisy/src/per/adc.h **** #pragma once
   2:../../../libDaisy/src/per/adc.h **** #ifndef DSY_ADC_H
   3:../../../libDaisy/src/per/adc.h **** #define DSY_ADC_H /**< Macro */
   4:../../../libDaisy/src/per/adc.h **** #include <stdint.h>
   5:../../../libDaisy/src/per/adc.h **** #include <stdlib.h>
   6:../../../libDaisy/src/per/adc.h **** #include "daisy_core.h"
   7:../../../libDaisy/src/per/adc.h **** #include "per/gpio.h"
   8:../../../libDaisy/src/per/adc.h **** 
   9:../../../libDaisy/src/per/adc.h **** #define DSY_ADC_MAX_CHANNELS 16 /**< Maximum number of ADC channels */
  10:../../../libDaisy/src/per/adc.h **** 
  11:../../../libDaisy/src/per/adc.h **** namespace daisy
  12:../../../libDaisy/src/per/adc.h **** {
  13:../../../libDaisy/src/per/adc.h **** /** @addtogroup per_analog
  14:../../../libDaisy/src/per/adc.h ****     @{
ARM GAS  C:\Users\toesc\AppData\Local\Temp\ccOgcMME.s 			page 9


  15:../../../libDaisy/src/per/adc.h **** */
  16:../../../libDaisy/src/per/adc.h **** 
  17:../../../libDaisy/src/per/adc.h **** /* While there may not be many configuration options here,
  18:../../../libDaisy/src/per/adc.h **** using a struct like this allows us to add more configuration
  19:../../../libDaisy/src/per/adc.h **** later without breaking existing functionality.
  20:../../../libDaisy/src/per/adc.h **** */
  21:../../../libDaisy/src/per/adc.h **** 
  22:../../../libDaisy/src/per/adc.h **** /** @brief   Configuration Structure for an ADC Channel 
  23:../../../libDaisy/src/per/adc.h ****  *  @details This can be used to configure a a single input, 
  24:../../../libDaisy/src/per/adc.h ****  *           or a multiplexed input, allowing up to 8 inputs on 
  25:../../../libDaisy/src/per/adc.h ****  *           one channel.
  26:../../../libDaisy/src/per/adc.h ****  *  @note    Sharing data lines to multiple muxes _is_ possible, but
  27:../../../libDaisy/src/per/adc.h ****  *           each channel sharing data lines must be set to the maximum
  28:../../../libDaisy/src/per/adc.h ****  *           number of channels, even if some multiplexers have fewer
  29:../../../libDaisy/src/per/adc.h ****  *           inputs connected.
  30:../../../libDaisy/src/per/adc.h **** */
  31:../../../libDaisy/src/per/adc.h **** struct AdcChannelConfig
  32:../../../libDaisy/src/per/adc.h **** {
  33:../../../libDaisy/src/per/adc.h ****     /** Which pin to use for multiplexing */
  34:../../../libDaisy/src/per/adc.h ****     enum MuxPin
  35:../../../libDaisy/src/per/adc.h ****     {
  36:../../../libDaisy/src/per/adc.h ****         MUX_SEL_0,    /**< & */
  37:../../../libDaisy/src/per/adc.h ****         MUX_SEL_1,    /**< & */
  38:../../../libDaisy/src/per/adc.h ****         MUX_SEL_2,    /**< & */
  39:../../../libDaisy/src/per/adc.h ****         MUX_SEL_LAST, /**< & */
  40:../../../libDaisy/src/per/adc.h ****     };
  41:../../../libDaisy/src/per/adc.h **** 
  42:../../../libDaisy/src/per/adc.h ****     /** Initializes a single ADC pin as an ADC. 
  43:../../../libDaisy/src/per/adc.h ****     \param pin Pin to init.
  44:../../../libDaisy/src/per/adc.h ****      */
  45:../../../libDaisy/src/per/adc.h ****     void InitSingle(dsy_gpio_pin pin);
  46:../../../libDaisy/src/per/adc.h **** 
  47:../../../libDaisy/src/per/adc.h ****     /** 
  48:../../../libDaisy/src/per/adc.h ****     Initializes a single ADC pin as a Multiplexed ADC.
  49:../../../libDaisy/src/per/adc.h ****     Requires a CD405X Multiplexer connected to the pin.
  50:../../../libDaisy/src/per/adc.h ****     You only need to supply the mux pins that are required,
  51:../../../libDaisy/src/per/adc.h ****     e.g. a 4052 mux would only require mux_0 and mux_1.
  52:../../../libDaisy/src/per/adc.h ****     Internal Callbacks handle the pin addressing.
  53:../../../libDaisy/src/per/adc.h ****     \param mux_channels must be 1-8
  54:../../../libDaisy/src/per/adc.h ****     \param mux_0 First mux pin
  55:../../../libDaisy/src/per/adc.h ****     \param mux_1 Second mux pin
  56:../../../libDaisy/src/per/adc.h ****     \param mux_2 Third mux pin
  57:../../../libDaisy/src/per/adc.h ****     \param adc_pin &
  58:../../../libDaisy/src/per/adc.h ****     */
  59:../../../libDaisy/src/per/adc.h ****     void InitMux(dsy_gpio_pin adc_pin,
  60:../../../libDaisy/src/per/adc.h ****                  size_t       mux_channels,
  61:../../../libDaisy/src/per/adc.h ****                  dsy_gpio_pin mux_0,
  62:../../../libDaisy/src/per/adc.h ****                  dsy_gpio_pin mux_1 = {DSY_GPIOX, 0},
  63:../../../libDaisy/src/per/adc.h ****                  dsy_gpio_pin mux_2 = {DSY_GPIOX, 0});
  64:../../../libDaisy/src/per/adc.h **** 
  65:../../../libDaisy/src/per/adc.h ****     dsy_gpio pin_;                   /**< & */
  66:../../../libDaisy/src/per/adc.h ****     dsy_gpio mux_pin_[MUX_SEL_LAST]; /**< & */
  67:../../../libDaisy/src/per/adc.h ****     uint8_t  mux_channels_;          /**< & */
  68:../../../libDaisy/src/per/adc.h **** };
  69:../../../libDaisy/src/per/adc.h **** 
  70:../../../libDaisy/src/per/adc.h **** /**
  71:../../../libDaisy/src/per/adc.h ****    @brief Handler for analog to digital conversion
ARM GAS  C:\Users\toesc\AppData\Local\Temp\ccOgcMME.s 			page 10


  72:../../../libDaisy/src/per/adc.h **** */
  73:../../../libDaisy/src/per/adc.h **** class AdcHandle
  74:../../../libDaisy/src/per/adc.h **** {
  75:../../../libDaisy/src/per/adc.h ****   public:
  76:../../../libDaisy/src/per/adc.h ****     /** Supported oversampling amounts */
  77:../../../libDaisy/src/per/adc.h ****     enum OverSampling
  78:../../../libDaisy/src/per/adc.h ****     {
  79:../../../libDaisy/src/per/adc.h ****         OVS_NONE, /**< & */
  80:../../../libDaisy/src/per/adc.h ****         OVS_4,    /**< & */
  81:../../../libDaisy/src/per/adc.h ****         OVS_8,    /**< & */
  82:../../../libDaisy/src/per/adc.h ****         OVS_16,   /**< & */
  83:../../../libDaisy/src/per/adc.h ****         OVS_32,   /**< & */
  84:../../../libDaisy/src/per/adc.h ****         OVS_64,   /**< & */
  85:../../../libDaisy/src/per/adc.h ****         OVS_128,  /**< & */
  86:../../../libDaisy/src/per/adc.h ****         OVS_256,  /**< & */
  87:../../../libDaisy/src/per/adc.h ****         OVS_512,  /**< & */
  88:../../../libDaisy/src/per/adc.h ****         OVS_1024, /**< & */
  89:../../../libDaisy/src/per/adc.h ****         OVS_LAST, /**< & */
  90:../../../libDaisy/src/per/adc.h ****     };
  91:../../../libDaisy/src/per/adc.h **** 
  92:../../../libDaisy/src/per/adc.h ****     AdcHandle() {}
  93:../../../libDaisy/src/per/adc.h ****     ~AdcHandle() {}
 175              		.loc 9 93 5 is_stmt 1 view .LVU15
 176              		.loc 9 93 5 is_stmt 0 view .LVU16
 177              	.LBE303:
 178              	.LBB304:
 179              	.LBI304:
 180              		.file 10 "../../../libDaisy/src/hid/audio.h"
   1:../../../libDaisy/src/hid/audio.h **** #ifndef DSY_AUDIO_H
   2:../../../libDaisy/src/hid/audio.h **** #define DSY_AUDIO_H /**< & */
   3:../../../libDaisy/src/hid/audio.h **** 
   4:../../../libDaisy/src/hid/audio.h **** #include "per/sai.h"
   5:../../../libDaisy/src/hid/audio.h **** 
   6:../../../libDaisy/src/hid/audio.h **** namespace daisy
   7:../../../libDaisy/src/hid/audio.h **** {
   8:../../../libDaisy/src/hid/audio.h **** /** @brief Audio Engine Handle
   9:../../../libDaisy/src/hid/audio.h ****  *  @ingroup audio 
  10:../../../libDaisy/src/hid/audio.h ****  *  @details This class allows for higher level access to an audio engine.
  11:../../../libDaisy/src/hid/audio.h ****  *           If you're using a SOM like the DaisySeed or DaisyPatchSM (or any 
  12:../../../libDaisy/src/hid/audio.h ****  *            board that includes one of those objects) then the intialization
  13:../../../libDaisy/src/hid/audio.h ****  *            is already taken  care of.
  14:../../../libDaisy/src/hid/audio.h ****  *           If you're setting up your own custom hardware, or need to make changes
  15:../../../libDaisy/src/hid/audio.h ****  *           you will have to take the following steps:
  16:../../../libDaisy/src/hid/audio.h ****  *             1. Create and Initialize an SaiHandle or two depending on your requirements
  17:../../../libDaisy/src/hid/audio.h ****  *             2. Initialize the Audio Handle with the desired settings and the Initialized SaiHand
  18:../../../libDaisy/src/hid/audio.h ****  *             3. If the connected codec requires special configuration or initialization, do so
  19:../../../libDaisy/src/hid/audio.h ****  *             4. Write a callback method using either the AudioCallback or the InterleavingAudioCa
  20:../../../libDaisy/src/hid/audio.h ****  *             5. Start the Audio using one of the StartAudio function
  21:../../../libDaisy/src/hid/audio.h ****  */
  22:../../../libDaisy/src/hid/audio.h **** class AudioHandle
  23:../../../libDaisy/src/hid/audio.h **** {
  24:../../../libDaisy/src/hid/audio.h ****   public:
  25:../../../libDaisy/src/hid/audio.h ****     /** Manually configurable details about the Audio Engine */
  26:../../../libDaisy/src/hid/audio.h ****     /** TODO: Figure out how to get samplerate in here. */
  27:../../../libDaisy/src/hid/audio.h ****     struct Config
  28:../../../libDaisy/src/hid/audio.h ****     {
  29:../../../libDaisy/src/hid/audio.h ****         /** number of samples to process per callback */
ARM GAS  C:\Users\toesc\AppData\Local\Temp\ccOgcMME.s 			page 11


  30:../../../libDaisy/src/hid/audio.h ****         size_t blocksize;
  31:../../../libDaisy/src/hid/audio.h **** 
  32:../../../libDaisy/src/hid/audio.h ****         /**< Sample rate of audio */
  33:../../../libDaisy/src/hid/audio.h ****         SaiHandle::Config::SampleRate samplerate;
  34:../../../libDaisy/src/hid/audio.h **** 
  35:../../../libDaisy/src/hid/audio.h ****         /** factor for adjustment before and after callback for hardware that may have extra headro
  36:../../../libDaisy/src/hid/audio.h ****         float postgain;
  37:../../../libDaisy/src/hid/audio.h **** 
  38:../../../libDaisy/src/hid/audio.h ****         /** factor for additional one-sided compensation to audio path for hardware that may
  39:../../../libDaisy/src/hid/audio.h ****          *  have unequal input/output ranges
  40:../../../libDaisy/src/hid/audio.h ****          */
  41:../../../libDaisy/src/hid/audio.h ****         float output_compensation;
  42:../../../libDaisy/src/hid/audio.h **** 
  43:../../../libDaisy/src/hid/audio.h ****         /** Sets default values for config struct */
  44:../../../libDaisy/src/hid/audio.h ****         Config()
  45:../../../libDaisy/src/hid/audio.h ****         : blocksize(48),
  46:../../../libDaisy/src/hid/audio.h ****           samplerate(SaiHandle::Config::SampleRate::SAI_48KHZ),
  47:../../../libDaisy/src/hid/audio.h ****           postgain(1.f),
  48:../../../libDaisy/src/hid/audio.h ****           output_compensation(1.f)
  49:../../../libDaisy/src/hid/audio.h ****         {
  50:../../../libDaisy/src/hid/audio.h ****         }
  51:../../../libDaisy/src/hid/audio.h ****     };
  52:../../../libDaisy/src/hid/audio.h **** 
  53:../../../libDaisy/src/hid/audio.h ****     enum class Result
  54:../../../libDaisy/src/hid/audio.h ****     {
  55:../../../libDaisy/src/hid/audio.h ****         OK,
  56:../../../libDaisy/src/hid/audio.h ****         ERR,
  57:../../../libDaisy/src/hid/audio.h ****     };
  58:../../../libDaisy/src/hid/audio.h **** 
  59:../../../libDaisy/src/hid/audio.h ****     /** Non-Interleaving input buffer
  60:../../../libDaisy/src/hid/audio.h ****      * Buffer arranged by float[chn][sample] 
  61:../../../libDaisy/src/hid/audio.h ****      * const so that the user can't modify the input
  62:../../../libDaisy/src/hid/audio.h ****      */
  63:../../../libDaisy/src/hid/audio.h ****     typedef const float* const* InputBuffer;
  64:../../../libDaisy/src/hid/audio.h **** 
  65:../../../libDaisy/src/hid/audio.h ****     /** Non-Interleaving output buffer
  66:../../../libDaisy/src/hid/audio.h ****      * Arranged by float[chn][sample] 
  67:../../../libDaisy/src/hid/audio.h ****      */
  68:../../../libDaisy/src/hid/audio.h ****     typedef float** OutputBuffer;
  69:../../../libDaisy/src/hid/audio.h **** 
  70:../../../libDaisy/src/hid/audio.h ****     /** Type for a Non-Interleaving audio callback 
  71:../../../libDaisy/src/hid/audio.h ****      * Non-Interleaving audio callbacks in daisy will be of this type
  72:../../../libDaisy/src/hid/audio.h ****      */
  73:../../../libDaisy/src/hid/audio.h ****     typedef void (*AudioCallback)(InputBuffer  in,
  74:../../../libDaisy/src/hid/audio.h ****                                   OutputBuffer out,
  75:../../../libDaisy/src/hid/audio.h ****                                   size_t       size);
  76:../../../libDaisy/src/hid/audio.h **** 
  77:../../../libDaisy/src/hid/audio.h ****     /** Interleaving Input buffer
  78:../../../libDaisy/src/hid/audio.h ****      ** audio is prepared as { L0, R0, L1, R1, . . . LN, RN }]
  79:../../../libDaisy/src/hid/audio.h ****      ** this is const, as the user shouldn't modify it
  80:../../../libDaisy/src/hid/audio.h ****     */
  81:../../../libDaisy/src/hid/audio.h ****     typedef const float* InterleavingInputBuffer;
  82:../../../libDaisy/src/hid/audio.h **** 
  83:../../../libDaisy/src/hid/audio.h ****     /** Interleaving Output buffer 
  84:../../../libDaisy/src/hid/audio.h ****      ** audio is prepared as { L0, R0, L1, R1, . . . LN, RN }
  85:../../../libDaisy/src/hid/audio.h ****     */
  86:../../../libDaisy/src/hid/audio.h ****     typedef float* InterleavingOutputBuffer;
ARM GAS  C:\Users\toesc\AppData\Local\Temp\ccOgcMME.s 			page 12


  87:../../../libDaisy/src/hid/audio.h **** 
  88:../../../libDaisy/src/hid/audio.h ****     /** Interleaving Audio Callback 
  89:../../../libDaisy/src/hid/audio.h ****      * Interleaving audio callbacks in daisy must be of this type
  90:../../../libDaisy/src/hid/audio.h ****      */
  91:../../../libDaisy/src/hid/audio.h ****     typedef void (*InterleavingAudioCallback)(InterleavingInputBuffer  in,
  92:../../../libDaisy/src/hid/audio.h ****                                               InterleavingOutputBuffer out,
  93:../../../libDaisy/src/hid/audio.h ****                                               size_t                   size);
  94:../../../libDaisy/src/hid/audio.h **** 
  95:../../../libDaisy/src/hid/audio.h ****     AudioHandle() : pimpl_(nullptr) {}
  96:../../../libDaisy/src/hid/audio.h ****     ~AudioHandle() {}
 181              		.loc 10 96 5 is_stmt 1 view .LVU17
 182              		.loc 10 96 5 is_stmt 0 view .LVU18
 183              	.LBE304:
 184              		.loc 6 22 19 view .LVU19
 185 0000 7047     		bx	lr
 186              		.cfi_endproc
 187              	.LFE4774:
 189              		.weak	_ZN5daisy9DaisySeedD1Ev
 190              		.thumb_set _ZN5daisy9DaisySeedD1Ev,_ZN5daisy9DaisySeedD2Ev
 191 0002 00BF     		.section	.text._ZN5daisy11MidiHandlerINS_16MidiUsbTransportEED2Ev,"axG",%progbits,_ZN5daisy11MidiH
 192              		.align	1
 193              		.p2align 2,,3
 194              		.weak	_ZN5daisy11MidiHandlerINS_16MidiUsbTransportEED2Ev
 195              		.syntax unified
 196              		.thumb
 197              		.thumb_func
 198              		.fpu fpv5-d16
 200              	_ZN5daisy11MidiHandlerINS_16MidiUsbTransportEED2Ev:
 201              	.LVL6:
 202              	.LFB5360:
 203              		.file 11 "../../../libDaisy/src/hid/midi.h"
   1:../../../libDaisy/src/hid/midi.h **** #pragma once
   2:../../../libDaisy/src/hid/midi.h **** #ifndef DSY_MIDI_H
   3:../../../libDaisy/src/hid/midi.h **** #define DSY_MIDI_H
   4:../../../libDaisy/src/hid/midi.h **** 
   5:../../../libDaisy/src/hid/midi.h **** // TODO: make this adjustable
   6:../../../libDaisy/src/hid/midi.h **** #define SYSEX_BUFFER_LEN 128
   7:../../../libDaisy/src/hid/midi.h **** 
   8:../../../libDaisy/src/hid/midi.h **** #include <stdint.h>
   9:../../../libDaisy/src/hid/midi.h **** #include <stdlib.h>
  10:../../../libDaisy/src/hid/midi.h **** #include "per/uart.h"
  11:../../../libDaisy/src/hid/midi.h **** #include "util/ringbuffer.h"
  12:../../../libDaisy/src/hid/midi.h **** #include "hid/MidiEvent.h"
  13:../../../libDaisy/src/hid/midi.h **** #include "hid/usb_midi.h"
  14:../../../libDaisy/src/hid/midi.h **** #include "sys/system.h"
  15:../../../libDaisy/src/hid/midi.h **** 
  16:../../../libDaisy/src/hid/midi.h **** namespace daisy
  17:../../../libDaisy/src/hid/midi.h **** {
  18:../../../libDaisy/src/hid/midi.h **** /** @brief   Transport layer for sending and receiving MIDI data over UART 
  19:../../../libDaisy/src/hid/midi.h ****  *  @details This is the mode of communication used for TRS and DIN MIDI
  20:../../../libDaisy/src/hid/midi.h ****  *  @ingroup midi
  21:../../../libDaisy/src/hid/midi.h **** */
  22:../../../libDaisy/src/hid/midi.h **** class MidiUartTransport
  23:../../../libDaisy/src/hid/midi.h **** {
  24:../../../libDaisy/src/hid/midi.h ****   public:
  25:../../../libDaisy/src/hid/midi.h ****     MidiUartTransport() {}
  26:../../../libDaisy/src/hid/midi.h ****     ~MidiUartTransport() {}
ARM GAS  C:\Users\toesc\AppData\Local\Temp\ccOgcMME.s 			page 13


  27:../../../libDaisy/src/hid/midi.h **** 
  28:../../../libDaisy/src/hid/midi.h ****     struct Config
  29:../../../libDaisy/src/hid/midi.h ****     {
  30:../../../libDaisy/src/hid/midi.h ****         UartHandler::Config::Peripheral periph;
  31:../../../libDaisy/src/hid/midi.h ****         dsy_gpio_pin                    rx;
  32:../../../libDaisy/src/hid/midi.h ****         dsy_gpio_pin                    tx;
  33:../../../libDaisy/src/hid/midi.h **** 
  34:../../../libDaisy/src/hid/midi.h ****         Config()
  35:../../../libDaisy/src/hid/midi.h ****         {
  36:../../../libDaisy/src/hid/midi.h ****             periph = UartHandler::Config::Peripheral::USART_1;
  37:../../../libDaisy/src/hid/midi.h ****             rx     = {DSY_GPIOB, 7};
  38:../../../libDaisy/src/hid/midi.h ****             tx     = {DSY_GPIOB, 6};
  39:../../../libDaisy/src/hid/midi.h ****         }
  40:../../../libDaisy/src/hid/midi.h ****     };
  41:../../../libDaisy/src/hid/midi.h **** 
  42:../../../libDaisy/src/hid/midi.h ****     inline void Init(Config config)
  43:../../../libDaisy/src/hid/midi.h ****     {
  44:../../../libDaisy/src/hid/midi.h ****         UartHandler::Config uart_config;
  45:../../../libDaisy/src/hid/midi.h **** 
  46:../../../libDaisy/src/hid/midi.h ****         //defaults
  47:../../../libDaisy/src/hid/midi.h ****         uart_config.baudrate   = 31250;
  48:../../../libDaisy/src/hid/midi.h ****         uart_config.stopbits   = UartHandler::Config::StopBits::BITS_1;
  49:../../../libDaisy/src/hid/midi.h ****         uart_config.parity     = UartHandler::Config::Parity::NONE;
  50:../../../libDaisy/src/hid/midi.h ****         uart_config.mode       = UartHandler::Config::Mode::TX_RX;
  51:../../../libDaisy/src/hid/midi.h ****         uart_config.wordlength = UartHandler::Config::WordLength::BITS_8;
  52:../../../libDaisy/src/hid/midi.h **** 
  53:../../../libDaisy/src/hid/midi.h ****         //user settings
  54:../../../libDaisy/src/hid/midi.h ****         uart_config.periph        = config.periph;
  55:../../../libDaisy/src/hid/midi.h ****         uart_config.pin_config.rx = config.rx;
  56:../../../libDaisy/src/hid/midi.h ****         uart_config.pin_config.tx = config.tx;
  57:../../../libDaisy/src/hid/midi.h **** 
  58:../../../libDaisy/src/hid/midi.h ****         uart_.Init(uart_config);
  59:../../../libDaisy/src/hid/midi.h ****     }
  60:../../../libDaisy/src/hid/midi.h **** 
  61:../../../libDaisy/src/hid/midi.h ****     inline void    StartRx() { uart_.StartRx(); }
  62:../../../libDaisy/src/hid/midi.h ****     inline size_t  Readable() { return uart_.Readable(); }
  63:../../../libDaisy/src/hid/midi.h ****     inline uint8_t Rx() { return uart_.PopRx(); }
  64:../../../libDaisy/src/hid/midi.h ****     inline bool    RxActive() { return uart_.RxActive(); }
  65:../../../libDaisy/src/hid/midi.h ****     inline void    FlushRx() { uart_.FlushRx(); }
  66:../../../libDaisy/src/hid/midi.h ****     inline void    Tx(uint8_t* buff, size_t size) { uart_.PollTx(buff, size); }
  67:../../../libDaisy/src/hid/midi.h **** 
  68:../../../libDaisy/src/hid/midi.h ****   private:
  69:../../../libDaisy/src/hid/midi.h ****     UartHandler uart_;
  70:../../../libDaisy/src/hid/midi.h **** };
  71:../../../libDaisy/src/hid/midi.h **** 
  72:../../../libDaisy/src/hid/midi.h **** /** 
  73:../../../libDaisy/src/hid/midi.h ****     @brief Simple MIDI Handler \n 
  74:../../../libDaisy/src/hid/midi.h ****     Parses bytes from an input into valid MidiEvents. \n 
  75:../../../libDaisy/src/hid/midi.h ****     The MidiEvents fill a FIFO queue that the user can pop messages from.
  76:../../../libDaisy/src/hid/midi.h ****     @author shensley
  77:../../../libDaisy/src/hid/midi.h ****     @date March 2020
  78:../../../libDaisy/src/hid/midi.h ****     @ingroup midi
  79:../../../libDaisy/src/hid/midi.h **** */
  80:../../../libDaisy/src/hid/midi.h **** template <typename Transport>
  81:../../../libDaisy/src/hid/midi.h **** class MidiHandler
  82:../../../libDaisy/src/hid/midi.h **** {
  83:../../../libDaisy/src/hid/midi.h ****   public:
ARM GAS  C:\Users\toesc\AppData\Local\Temp\ccOgcMME.s 			page 14


  84:../../../libDaisy/src/hid/midi.h ****     MidiHandler() {}
  85:../../../libDaisy/src/hid/midi.h ****     ~MidiHandler() {}
 204              		.loc 11 85 5 is_stmt 1 view -0
 205              		.cfi_startproc
 206              		@ args = 0, pretend = 0, frame = 0
 207              		@ frame_needed = 0, uses_anonymous_args = 0
 208              		@ link register save eliminated.
 209              	.LBB305:
 210              	.LBI305:
 211              		.file 12 "../../../libDaisy/src/hid/usb_midi.h"
   1:../../../libDaisy/src/hid/usb_midi.h **** #pragma once
   2:../../../libDaisy/src/hid/usb_midi.h **** #ifndef __DSY_MIDIUSBTRANSPORT_H__
   3:../../../libDaisy/src/hid/usb_midi.h **** #define __DSY_MIDIUSBTRANSPORT_H__
   4:../../../libDaisy/src/hid/usb_midi.h **** 
   5:../../../libDaisy/src/hid/usb_midi.h **** #include "hid/usb.h"
   6:../../../libDaisy/src/hid/usb_midi.h **** #include "sys/system.h"
   7:../../../libDaisy/src/hid/usb_midi.h **** #include "util/ringbuffer.h"
   8:../../../libDaisy/src/hid/usb_midi.h **** 
   9:../../../libDaisy/src/hid/usb_midi.h **** namespace daisy
  10:../../../libDaisy/src/hid/usb_midi.h **** {
  11:../../../libDaisy/src/hid/usb_midi.h **** /** @brief USB Transport for MIDI 
  12:../../../libDaisy/src/hid/usb_midi.h ****  *  @ingroup midi
  13:../../../libDaisy/src/hid/usb_midi.h ****  */
  14:../../../libDaisy/src/hid/usb_midi.h **** class MidiUsbTransport
  15:../../../libDaisy/src/hid/usb_midi.h **** {
  16:../../../libDaisy/src/hid/usb_midi.h ****   public:
  17:../../../libDaisy/src/hid/usb_midi.h ****     // MidiUsbTransport() {}
  18:../../../libDaisy/src/hid/usb_midi.h ****     ~MidiUsbTransport() {}
 212              		.loc 12 18 5 view .LVU21
 213              		.loc 12 18 5 is_stmt 0 view .LVU22
 214              	.LBE305:
 215              		.loc 11 85 21 view .LVU23
 216 0000 7047     		bx	lr
 217              		.cfi_endproc
 218              	.LFE5360:
 220              		.weak	_ZN5daisy11MidiHandlerINS_16MidiUsbTransportEED1Ev
 221              		.thumb_set _ZN5daisy11MidiHandlerINS_16MidiUsbTransportEED1Ev,_ZN5daisy11MidiHandlerINS_16MidiUsbT
 222 0002 00BF     		.section	.text._ZL13AudioCallbackPKfPfj,"ax",%progbits
 223              		.align	1
 224              		.p2align 2,,3
 225              		.syntax unified
 226              		.thumb
 227              		.thumb_func
 228              		.fpu fpv5-d16
 230              	_ZL13AudioCallbackPKfPfj:
 231              	.LVL7:
 232              	.LFB4779:
 233              		.file 13 "adsr.cpp"
   1:adsr.cpp      **** // adsr envelope example
   2:adsr.cpp      **** 
   3:adsr.cpp      **** #include "daisysp.h"
   4:adsr.cpp      **** #include "daisy_seed.h"
   5:adsr.cpp      **** 
   6:adsr.cpp      **** // Shortening long macro for sample rate
   7:adsr.cpp      **** #ifndef sample_rate
   8:adsr.cpp      **** 
   9:adsr.cpp      **** #endif
ARM GAS  C:\Users\toesc\AppData\Local\Temp\ccOgcMME.s 			page 15


  10:adsr.cpp      **** 
  11:adsr.cpp      **** // Interleaved audio definitions
  12:adsr.cpp      **** #define LEFT (i)
  13:adsr.cpp      **** #define RIGHT (i + 1)
  14:adsr.cpp      **** 
  15:adsr.cpp      **** using namespace daisysp;
  16:adsr.cpp      **** using namespace daisy;
  17:adsr.cpp      **** 
  18:adsr.cpp      **** static MidiUsbHandler midi;
  19:adsr.cpp      **** static DaisySeed  hw;
  20:adsr.cpp      **** static Adsr       env;
  21:adsr.cpp      **** static Oscillator osc;
  22:adsr.cpp      **** static MoogLadder filter;
  23:adsr.cpp      **** static BlOsc primary;
  24:adsr.cpp      **** bool              mygate;
  25:adsr.cpp      **** static ReverbSc   verb;
  26:adsr.cpp      **** float myattack;
  27:adsr.cpp      **** float myrelease;
  28:adsr.cpp      **** 
  29:adsr.cpp      **** static void AudioCallback(AudioHandle::InterleavingInputBuffer  in,
  30:adsr.cpp      ****                           AudioHandle::InterleavingOutputBuffer out,
  31:adsr.cpp      ****                           size_t                                size)
  32:adsr.cpp      **** {
 234              		.loc 13 32 1 is_stmt 1 view -0
 235              		.cfi_startproc
 236              		@ args = 0, pretend = 0, frame = 8
 237              		@ frame_needed = 0, uses_anonymous_args = 0
  33:adsr.cpp      ****    // float osc_out, env_out;
  34:adsr.cpp      ****   //  for(size_t i = 0; i < size; i += 2)
  35:adsr.cpp      ****   //  {
  36:adsr.cpp      ****         
  37:adsr.cpp      **** 
  38:adsr.cpp      ****         // Use envelope to control the amplitude of the oscillator.
  39:adsr.cpp      ****    //     env_out = env.Process(mygate);
  40:adsr.cpp      ****         
  41:adsr.cpp      ****    //     osc.SetAmp(env_out);
  42:adsr.cpp      ****    //     osc_out = filter.Process(osc.Process());
  43:adsr.cpp      ****         
  44:adsr.cpp      ****    //     verb.Process(osc_out, osc_out, &out[i], &out[i + 1]);
  45:adsr.cpp      **** 
  46:adsr.cpp      ****     float sig, env_out;
 238              		.loc 13 46 5 view .LVU25
  47:adsr.cpp      ****     for( size_t i = 0; i < size; i += 2 ){
 239              		.loc 13 47 5 view .LVU26
 240              	.LBB306:
 241              		.loc 13 47 26 view .LVU27
 242 0000 002A     		cmp	r2, #0
 243 0002 44D0     		beq	.L17
 244 0004 013A     		subs	r2, r2, #1
 245              	.LVL8:
 246              		.loc 13 47 26 is_stmt 0 view .LVU28
 247              	.LBE306:
  32:adsr.cpp      ****    // float osc_out, env_out;
 248              		.loc 13 32 1 view .LVU29
 249 0006 2DE9F043 		push	{r4, r5, r6, r7, r8, r9, lr}
 250              		.cfi_def_cfa_offset 28
 251              		.cfi_offset 4, -28
ARM GAS  C:\Users\toesc\AppData\Local\Temp\ccOgcMME.s 			page 16


 252              		.cfi_offset 5, -24
 253              		.cfi_offset 6, -20
 254              		.cfi_offset 7, -16
 255              		.cfi_offset 8, -12
 256              		.cfi_offset 9, -8
 257              		.cfi_offset 14, -4
 258 000a 0C46     		mov	r4, r1
 259 000c 85B0     		sub	sp, sp, #20
 260              		.cfi_def_cfa_offset 48
 261              	.LBB318:
 262              		.loc 13 47 26 view .LVU30
 263 000e 0025     		movs	r5, #0
 264 0010 DFF89C90 		ldr	r9, .L20+32
 265 0014 5708     		lsrs	r7, r2, #1
 266 0016 DFF88880 		ldr	r8, .L20+16
 267 001a 1F4E     		ldr	r6, .L20+8
 268              	.LVL9:
 269              	.L11:
 270              	.LBB307:
  48:adsr.cpp      ****         env_out = env.Process(mygate);
 271              		.loc 13 48 9 is_stmt 1 discriminator 2 view .LVU31
 272              		.loc 13 48 30 is_stmt 0 discriminator 2 view .LVU32
 273 001c 99F80010 		ldrb	r1, [r9]	@ zero_extendqisi2
 274 0020 1E48     		ldr	r0, .L20+12
 275 0022 FFF7FEFF 		bl	_ZN7daisysp4Adsr7ProcessEb
 276              	.LVL10:
  49:adsr.cpp      ****         osc.SetAmp(env_out);
  50:adsr.cpp      ****         primary.SetAmp(env_out);
  51:adsr.cpp      **** 
  52:adsr.cpp      ****         float lfoState = osc.Process();
 277              		.loc 13 52 37 discriminator 2 view .LVU33
 278 0026 1E48     		ldr	r0, .L20+16
 279              	.LVL11:
  49:adsr.cpp      ****         osc.SetAmp(env_out);
 280              		.loc 13 49 9 is_stmt 1 discriminator 2 view .LVU34
 281              	.LBB308:
 282              	.LBI308:
  17:../../../DaisySP/Source/Synthesis/oscillator.h ****     /** Choices for output waveforms, POLYBLEP are appropriately labeled. Others are naive forms.
  18:../../../DaisySP/Source/Synthesis/oscillator.h ****     */
  19:../../../DaisySP/Source/Synthesis/oscillator.h ****     enum
  20:../../../DaisySP/Source/Synthesis/oscillator.h ****     {
  21:../../../DaisySP/Source/Synthesis/oscillator.h ****         WAVE_SIN,
  22:../../../DaisySP/Source/Synthesis/oscillator.h ****         WAVE_TRI,
  23:../../../DaisySP/Source/Synthesis/oscillator.h ****         WAVE_SAW,
  24:../../../DaisySP/Source/Synthesis/oscillator.h ****         WAVE_RAMP,
  25:../../../DaisySP/Source/Synthesis/oscillator.h ****         WAVE_SQUARE,
  26:../../../DaisySP/Source/Synthesis/oscillator.h ****         WAVE_POLYBLEP_TRI,
  27:../../../DaisySP/Source/Synthesis/oscillator.h ****         WAVE_POLYBLEP_SAW,
  28:../../../DaisySP/Source/Synthesis/oscillator.h ****         WAVE_POLYBLEP_SQUARE,
  29:../../../DaisySP/Source/Synthesis/oscillator.h ****         WAVE_LAST,
  30:../../../DaisySP/Source/Synthesis/oscillator.h ****     };
  31:../../../DaisySP/Source/Synthesis/oscillator.h **** 
  32:../../../DaisySP/Source/Synthesis/oscillator.h **** 
  33:../../../DaisySP/Source/Synthesis/oscillator.h ****     /** Initializes the Oscillator
  34:../../../DaisySP/Source/Synthesis/oscillator.h **** 
  35:../../../DaisySP/Source/Synthesis/oscillator.h ****         \param sample_rate - sample rate of the audio engine being run, and the frequency that the 
  36:../../../DaisySP/Source/Synthesis/oscillator.h **** 
ARM GAS  C:\Users\toesc\AppData\Local\Temp\ccOgcMME.s 			page 17


  37:../../../DaisySP/Source/Synthesis/oscillator.h ****         Defaults:
  38:../../../DaisySP/Source/Synthesis/oscillator.h ****         - freq_ = 100 Hz
  39:../../../DaisySP/Source/Synthesis/oscillator.h ****         - amp_ = 0.5
  40:../../../DaisySP/Source/Synthesis/oscillator.h ****         - waveform_ = sine wave.
  41:../../../DaisySP/Source/Synthesis/oscillator.h ****     */
  42:../../../DaisySP/Source/Synthesis/oscillator.h ****     void Init(float sample_rate)
  43:../../../DaisySP/Source/Synthesis/oscillator.h ****     {
  44:../../../DaisySP/Source/Synthesis/oscillator.h ****         sr_        = sample_rate;
  45:../../../DaisySP/Source/Synthesis/oscillator.h ****         sr_recip_  = 1.0f / sample_rate;
  46:../../../DaisySP/Source/Synthesis/oscillator.h ****         freq_      = 100.0f;
  47:../../../DaisySP/Source/Synthesis/oscillator.h ****         amp_       = 0.5f;
  48:../../../DaisySP/Source/Synthesis/oscillator.h ****         phase_     = 0.0f;
  49:../../../DaisySP/Source/Synthesis/oscillator.h ****         phase_inc_ = CalcPhaseInc(freq_);
  50:../../../DaisySP/Source/Synthesis/oscillator.h ****         waveform_  = WAVE_SIN;
  51:../../../DaisySP/Source/Synthesis/oscillator.h ****         eoc_       = true;
  52:../../../DaisySP/Source/Synthesis/oscillator.h ****         eor_       = true;
  53:../../../DaisySP/Source/Synthesis/oscillator.h ****     }
  54:../../../DaisySP/Source/Synthesis/oscillator.h **** 
  55:../../../DaisySP/Source/Synthesis/oscillator.h **** 
  56:../../../DaisySP/Source/Synthesis/oscillator.h ****     /** Changes the frequency of the Oscillator, and recalculates phase increment.
  57:../../../DaisySP/Source/Synthesis/oscillator.h ****     */
  58:../../../DaisySP/Source/Synthesis/oscillator.h ****     inline void SetFreq(const float f)
  59:../../../DaisySP/Source/Synthesis/oscillator.h ****     {
  60:../../../DaisySP/Source/Synthesis/oscillator.h ****         freq_      = f;
  61:../../../DaisySP/Source/Synthesis/oscillator.h ****         phase_inc_ = CalcPhaseInc(f);
  62:../../../DaisySP/Source/Synthesis/oscillator.h ****     }
  63:../../../DaisySP/Source/Synthesis/oscillator.h **** 
  64:../../../DaisySP/Source/Synthesis/oscillator.h **** 
  65:../../../DaisySP/Source/Synthesis/oscillator.h ****     /** Sets the amplitude of the waveform.
  66:../../../DaisySP/Source/Synthesis/oscillator.h ****     */
  67:../../../DaisySP/Source/Synthesis/oscillator.h ****     inline void SetAmp(const float a) { amp_ = a; }
 283              		.loc 2 67 17 discriminator 2 view .LVU35
 284              	.LBB309:
 285              		.loc 2 67 41 discriminator 2 view .LVU36
 286              		.loc 2 67 46 is_stmt 0 discriminator 2 view .LVU37
 287 0028 88ED010A 		vstr.32	s0, [r8, #4]
 288              	.LVL12:
 289              		.loc 2 67 46 discriminator 2 view .LVU38
 290              	.LBE309:
 291              	.LBE308:
  50:adsr.cpp      **** 
 292              		.loc 13 50 9 is_stmt 1 discriminator 2 view .LVU39
 293              	.LBB310:
 294              	.LBI310:
  23:../../../DaisySP/Source/Synthesis/blosc.h ****     /** Bl Waveforms
  24:../../../DaisySP/Source/Synthesis/blosc.h **** */
  25:../../../DaisySP/Source/Synthesis/blosc.h ****     enum Waveforms
  26:../../../DaisySP/Source/Synthesis/blosc.h ****     {
  27:../../../DaisySP/Source/Synthesis/blosc.h ****         WAVE_TRIANGLE,
  28:../../../DaisySP/Source/Synthesis/blosc.h ****         WAVE_SAW,
  29:../../../DaisySP/Source/Synthesis/blosc.h ****         WAVE_SQUARE,
  30:../../../DaisySP/Source/Synthesis/blosc.h ****         WAVE_OFF,
  31:../../../DaisySP/Source/Synthesis/blosc.h ****     };
  32:../../../DaisySP/Source/Synthesis/blosc.h **** 
  33:../../../DaisySP/Source/Synthesis/blosc.h **** 
  34:../../../DaisySP/Source/Synthesis/blosc.h ****     /** -Initialize oscillator.
  35:../../../DaisySP/Source/Synthesis/blosc.h ****         -Defaults to: 440Hz, .5 amplitude, .5 pw, Triangle.
ARM GAS  C:\Users\toesc\AppData\Local\Temp\ccOgcMME.s 			page 18


  36:../../../DaisySP/Source/Synthesis/blosc.h ****     */
  37:../../../DaisySP/Source/Synthesis/blosc.h ****     void Init(float sample_rate);
  38:../../../DaisySP/Source/Synthesis/blosc.h **** 
  39:../../../DaisySP/Source/Synthesis/blosc.h **** 
  40:../../../DaisySP/Source/Synthesis/blosc.h ****     /** - Get next floating point oscillator sample.
  41:../../../DaisySP/Source/Synthesis/blosc.h ****     */
  42:../../../DaisySP/Source/Synthesis/blosc.h ****     float Process();
  43:../../../DaisySP/Source/Synthesis/blosc.h **** 
  44:../../../DaisySP/Source/Synthesis/blosc.h **** 
  45:../../../DaisySP/Source/Synthesis/blosc.h ****     /** - Float freq: Set oscillator frequency in Hz.
  46:../../../DaisySP/Source/Synthesis/blosc.h ****     */
  47:../../../DaisySP/Source/Synthesis/blosc.h ****     inline void SetFreq(float freq) { freq_ = freq; };
  48:../../../DaisySP/Source/Synthesis/blosc.h ****     /** - Float amp: Set oscillator amplitude, 0 to 1.
  49:../../../DaisySP/Source/Synthesis/blosc.h ****     */
  50:../../../DaisySP/Source/Synthesis/blosc.h ****     inline void SetAmp(float amp) { amp_ = amp; };
 295              		.loc 5 50 17 discriminator 2 view .LVU40
 296              	.LBB311:
 297              		.loc 5 50 37 discriminator 2 view .LVU41
 298              		.loc 5 50 42 is_stmt 0 discriminator 2 view .LVU42
 299 002c 86ED090A 		vstr.32	s0, [r6, #36]
 300              	.LVL13:
 301              		.loc 5 50 42 discriminator 2 view .LVU43
 302              	.LBE311:
 303              	.LBE310:
 304              		.loc 13 52 9 is_stmt 1 discriminator 2 view .LVU44
 305              		.loc 13 52 37 is_stmt 0 discriminator 2 view .LVU45
 306 0030 FFF7FEFF 		bl	_ZN7daisysp10Oscillator7ProcessEv
 307              	.LVL14:
  53:adsr.cpp      ****         primary.SetPw( ( lfoState * 0.3 ) + 0.5 );
 308              		.loc 13 53 9 is_stmt 1 discriminator 2 view .LVU46
 309              		.loc 13 53 43 is_stmt 0 discriminator 2 view .LVU47
 310 0034 B6EE007B 		vmov.f64	d7, #5.0e-1
  54:adsr.cpp      ****         sig = primary.Process();
 311              		.loc 13 54 30 discriminator 2 view .LVU48
 312 0038 1A48     		ldr	r0, .L20+20
  53:adsr.cpp      ****         primary.SetPw( ( lfoState * 0.3 ) + 0.5 );
 313              		.loc 13 53 26 discriminator 2 view .LVU49
 314 003a B7EEC00A 		vcvt.f64.f32	d0, s0
 315              	.LVL15:
 316              	.LBB312:
 317              	.LBB313:
  51:../../../DaisySP/Source/Synthesis/blosc.h ****     /** - Float pw: Set square osc pulsewidth, 0 to 1. (no thru 0 at the moment)
  52:../../../DaisySP/Source/Synthesis/blosc.h ****     */
  53:../../../DaisySP/Source/Synthesis/blosc.h ****     inline void SetPw(float pw) { pw_ = 1 - pw; };
 318              		.loc 5 53 43 discriminator 2 view .LVU50
 319 003e F7EE006A 		vmov.f32	s13, #1.0e+0
 320              	.LBE313:
 321              	.LBE312:
  53:adsr.cpp      ****         sig = primary.Process();
 322              		.loc 13 53 43 discriminator 2 view .LVU51
 323 0042 9FED135B 		vldr.64	d5, .L20
 324 0046 A0EE057B 		vfma.f64	d7, d0, d5
 325              	.LVL16:
 326              	.LBB316:
 327              	.LBI312:
 328              		.loc 5 53 17 is_stmt 1 discriminator 2 view .LVU52
 329              	.LBB314:
ARM GAS  C:\Users\toesc\AppData\Local\Temp\ccOgcMME.s 			page 19


 330              		.loc 5 53 35 discriminator 2 view .LVU53
 331              	.LBE314:
 332              	.LBE316:
  53:adsr.cpp      ****         sig = primary.Process();
 333              		.loc 13 53 22 is_stmt 0 discriminator 2 view .LVU54
 334 004a B7EEC77B 		vcvt.f32.f64	s14, d7
 335              	.LVL17:
 336              	.LBB317:
 337              	.LBB315:
 338              		.loc 5 53 43 discriminator 2 view .LVU55
 339 004e 36EEC77A 		vsub.f32	s14, s13, s14
 340              	.LVL18:
 341              		.loc 5 53 39 discriminator 2 view .LVU56
 342 0052 86ED0A7A 		vstr.32	s14, [r6, #40]
 343              	.LVL19:
 344              		.loc 5 53 39 discriminator 2 view .LVU57
 345              	.LBE315:
 346              	.LBE317:
 347              		.loc 13 54 9 is_stmt 1 discriminator 2 view .LVU58
 348              		.loc 13 54 30 is_stmt 0 discriminator 2 view .LVU59
 349 0056 FFF7FEFF 		bl	_ZN7daisysp5BlOsc7ProcessEv
 350              	.LVL20:
  55:adsr.cpp      ****         sig = filter.Process( sig );
 351              		.loc 13 55 29 discriminator 2 view .LVU60
 352 005a 1348     		ldr	r0, .L20+24
  54:adsr.cpp      ****         sig = filter.Process( sig );
 353              		.loc 13 54 13 discriminator 2 view .LVU61
 354 005c 8DED030A 		vstr.32	s0, [sp, #12]
 355              		.loc 13 55 9 is_stmt 1 discriminator 2 view .LVU62
 356              		.loc 13 55 29 is_stmt 0 discriminator 2 view .LVU63
 357 0060 FFF7FEFF 		bl	_ZN7daisysp10MoogLadder7ProcessEf
 358              	.LVL21:
  56:adsr.cpp      ****         verb.Process(sig, sig, &out[i], &out[i + 1]);
 359              		.loc 13 56 21 discriminator 2 view .LVU64
 360 0064 04F1040C 		add	ip, r4, #4
 361 0068 03AA     		add	r2, sp, #12
 362 006a 2346     		mov	r3, r4
 363 006c 0F48     		ldr	r0, .L20+28
 364 006e 1146     		mov	r1, r2
 365 0070 CDF800C0 		str	ip, [sp]
  55:adsr.cpp      ****         sig = filter.Process( sig );
 366              		.loc 13 55 13 discriminator 2 view .LVU65
 367 0074 8DED030A 		vstr.32	s0, [sp, #12]
 368              		.loc 13 56 9 is_stmt 1 discriminator 2 view .LVU66
 369              		.loc 13 56 21 is_stmt 0 discriminator 2 view .LVU67
 370 0078 FFF7FEFF 		bl	_ZN7daisysp8ReverbSc7ProcessERKfS2_PfS3_
 371              	.LVL22:
 372              	.LBE307:
  47:adsr.cpp      ****         env_out = env.Process(mygate);
 373              		.loc 13 47 5 is_stmt 1 discriminator 2 view .LVU68
  47:adsr.cpp      ****         env_out = env.Process(mygate);
 374              		.loc 13 47 26 discriminator 2 view .LVU69
 375 007c BD42     		cmp	r5, r7
 376 007e 04F10804 		add	r4, r4, #8
 377 0082 05F10105 		add	r5, r5, #1
 378              	.LVL23:
  47:adsr.cpp      ****         env_out = env.Process(mygate);
ARM GAS  C:\Users\toesc\AppData\Local\Temp\ccOgcMME.s 			page 20


 379              		.loc 13 47 26 is_stmt 0 discriminator 2 view .LVU70
 380 0086 C9D1     		bne	.L11
 381              	.LBE318:
  57:adsr.cpp      ****     }
  58:adsr.cpp      **** }
 382              		.loc 13 58 1 view .LVU71
 383 0088 05B0     		add	sp, sp, #20
 384              		.cfi_def_cfa_offset 28
 385              		@ sp needed
 386 008a BDE8F083 		pop	{r4, r5, r6, r7, r8, r9, pc}
 387              	.LVL24:
 388              	.L17:
 389              		.cfi_def_cfa_offset 0
 390              		.cfi_restore 4
 391              		.cfi_restore 5
 392              		.cfi_restore 6
 393              		.cfi_restore 7
 394              		.cfi_restore 8
 395              		.cfi_restore 9
 396              		.cfi_restore 14
 397              		.loc 13 58 1 view .LVU72
 398 008e 7047     		bx	lr
 399              	.L21:
 400              		.align	3
 401              	.L20:
 402 0090 33333333 		.word	858993459
 403 0094 3333D33F 		.word	1070805811
 404 0098 00400000 		.word	_ZL7primary+16384
 405 009c 00000000 		.word	.LANCHOR1
 406 00a0 00000000 		.word	.LANCHOR2
 407 00a4 00000000 		.word	_ZL7primary
 408 00a8 00000000 		.word	.LANCHOR3
 409 00ac 00000000 		.word	_ZL4verb
 410 00b0 00000000 		.word	.LANCHOR0
 411              		.cfi_endproc
 412              	.LFE4779:
 414              		.section	.text._ZN5daisy11MidiHandlerINS_16MidiUsbTransportEE5ParseEh,"axG",%progbits,_ZN5daisy11M
 415              		.align	1
 416              		.p2align 2,,3
 417              		.weak	_ZN5daisy11MidiHandlerINS_16MidiUsbTransportEE5ParseEh
 418              		.syntax unified
 419              		.thumb
 420              		.thumb_func
 421              		.fpu fpv5-d16
 423              	_ZN5daisy11MidiHandlerINS_16MidiUsbTransportEE5ParseEh:
 424              	.LVL25:
 425              	.LFB5212:
  86:../../../libDaisy/src/hid/midi.h **** 
  87:../../../libDaisy/src/hid/midi.h ****     struct Config
  88:../../../libDaisy/src/hid/midi.h ****     {
  89:../../../libDaisy/src/hid/midi.h ****         typename Transport::Config transport_config;
  90:../../../libDaisy/src/hid/midi.h ****     };
  91:../../../libDaisy/src/hid/midi.h **** 
  92:../../../libDaisy/src/hid/midi.h ****     /** Initializes the MidiHandler 
  93:../../../libDaisy/src/hid/midi.h ****      *  \param config Configuration structure used to define specifics to the MIDI Handler.
  94:../../../libDaisy/src/hid/midi.h ****      */
  95:../../../libDaisy/src/hid/midi.h ****     void Init(Config config)
ARM GAS  C:\Users\toesc\AppData\Local\Temp\ccOgcMME.s 			page 21


  96:../../../libDaisy/src/hid/midi.h ****     {
  97:../../../libDaisy/src/hid/midi.h ****         config_ = config;
  98:../../../libDaisy/src/hid/midi.h **** 
  99:../../../libDaisy/src/hid/midi.h ****         transport_.Init(config_.transport_config);
 100:../../../libDaisy/src/hid/midi.h **** 
 101:../../../libDaisy/src/hid/midi.h ****         event_q_.Init();
 102:../../../libDaisy/src/hid/midi.h ****         incoming_message_.type = MessageLast;
 103:../../../libDaisy/src/hid/midi.h ****         pstate_                = ParserEmpty;
 104:../../../libDaisy/src/hid/midi.h ****     }
 105:../../../libDaisy/src/hid/midi.h **** 
 106:../../../libDaisy/src/hid/midi.h ****     /** Starts listening on the selected input mode(s). MidiEvent Queue will begin to fill, and can
 107:../../../libDaisy/src/hid/midi.h ****     void StartReceive() { transport_.StartRx(); }
 108:../../../libDaisy/src/hid/midi.h **** 
 109:../../../libDaisy/src/hid/midi.h ****     /** Start listening */
 110:../../../libDaisy/src/hid/midi.h ****     void Listen()
 111:../../../libDaisy/src/hid/midi.h ****     {
 112:../../../libDaisy/src/hid/midi.h ****         uint32_t now;
 113:../../../libDaisy/src/hid/midi.h ****         now = System::GetNow();
 114:../../../libDaisy/src/hid/midi.h ****         while(transport_.Readable())
 115:../../../libDaisy/src/hid/midi.h ****         {
 116:../../../libDaisy/src/hid/midi.h ****             last_read_ = now;
 117:../../../libDaisy/src/hid/midi.h ****             Parse(transport_.Rx());
 118:../../../libDaisy/src/hid/midi.h ****         }
 119:../../../libDaisy/src/hid/midi.h **** 
 120:../../../libDaisy/src/hid/midi.h ****         // In case of UART Error, (particularly
 121:../../../libDaisy/src/hid/midi.h ****         //  overrun error), UART disables itself.
 122:../../../libDaisy/src/hid/midi.h ****         // Flush the buff, and restart.
 123:../../../libDaisy/src/hid/midi.h ****         if(!transport_.RxActive())
 124:../../../libDaisy/src/hid/midi.h ****         {
 125:../../../libDaisy/src/hid/midi.h ****             pstate_ = ParserEmpty;
 126:../../../libDaisy/src/hid/midi.h ****             transport_.FlushRx();
 127:../../../libDaisy/src/hid/midi.h ****             StartReceive();
 128:../../../libDaisy/src/hid/midi.h ****         }
 129:../../../libDaisy/src/hid/midi.h ****     }
 130:../../../libDaisy/src/hid/midi.h **** 
 131:../../../libDaisy/src/hid/midi.h ****     /** Checks if there are unhandled messages in the queue 
 132:../../../libDaisy/src/hid/midi.h ****     \return True if there are events to be handled, else false.
 133:../../../libDaisy/src/hid/midi.h ****      */
 134:../../../libDaisy/src/hid/midi.h ****     bool HasEvents() const { return event_q_.readable(); }
 135:../../../libDaisy/src/hid/midi.h **** 
 136:../../../libDaisy/src/hid/midi.h **** 
 137:../../../libDaisy/src/hid/midi.h ****     /** Pops the oldest unhandled MidiEvent from the internal queue
 138:../../../libDaisy/src/hid/midi.h ****     \return The event to be handled
 139:../../../libDaisy/src/hid/midi.h ****      */
 140:../../../libDaisy/src/hid/midi.h ****     MidiEvent PopEvent() { return event_q_.Read(); }
 141:../../../libDaisy/src/hid/midi.h **** 
 142:../../../libDaisy/src/hid/midi.h ****     /** SendMessage
 143:../../../libDaisy/src/hid/midi.h ****     Send raw bytes as message
 144:../../../libDaisy/src/hid/midi.h ****     */
 145:../../../libDaisy/src/hid/midi.h ****     void SendMessage(uint8_t* bytes, size_t size)
 146:../../../libDaisy/src/hid/midi.h ****     {
 147:../../../libDaisy/src/hid/midi.h ****         transport_.Tx(bytes, size);
 148:../../../libDaisy/src/hid/midi.h ****     }
 149:../../../libDaisy/src/hid/midi.h **** 
 150:../../../libDaisy/src/hid/midi.h ****     /** Feed in bytes to state machine from a queue.
 151:../../../libDaisy/src/hid/midi.h ****     Populates internal FIFO queue with MIDI Messages
 152:../../../libDaisy/src/hid/midi.h ****     For example with uart:
ARM GAS  C:\Users\toesc\AppData\Local\Temp\ccOgcMME.s 			page 22


 153:../../../libDaisy/src/hid/midi.h ****     midi.Parse(uart.PopRx());
 154:../../../libDaisy/src/hid/midi.h ****     \param byte &
 155:../../../libDaisy/src/hid/midi.h ****     */
 156:../../../libDaisy/src/hid/midi.h ****     void Parse(uint8_t byte)
 426              		.loc 11 156 10 is_stmt 1 view -0
 427              		.cfi_startproc
 428              		@ args = 0, pretend = 0, frame = 288
 429              		@ frame_needed = 0, uses_anonymous_args = 0
 430              		.loc 11 156 10 is_stmt 0 view .LVU74
 431 0000 2DE9F041 		push	{r4, r5, r6, r7, r8, lr}
 432              		.cfi_def_cfa_offset 24
 433              		.cfi_offset 4, -24
 434              		.cfi_offset 5, -20
 435              		.cfi_offset 6, -16
 436              		.cfi_offset 7, -12
 437              		.cfi_offset 8, -8
 438              		.cfi_offset 14, -4
 157:../../../libDaisy/src/hid/midi.h ****     {
 158:../../../libDaisy/src/hid/midi.h ****         // reset parser when status byte is received
 159:../../../libDaisy/src/hid/midi.h ****         if((byte & kStatusByteMask) && pstate_ != ParserSysEx)
 439              		.loc 11 159 20 view .LVU75
 440 0004 00F51044 		add	r4, r0, #36864
 156:../../../libDaisy/src/hid/midi.h ****     {
 441              		.loc 11 156 10 view .LVU76
 442 0008 C8B0     		sub	sp, sp, #288
 443              		.cfi_def_cfa_offset 312
 156:../../../libDaisy/src/hid/midi.h ****     {
 444              		.loc 11 156 10 view .LVU77
 445 000a 0546     		mov	r5, r0
 446              		.loc 11 159 18 view .LVU78
 447 000c 94F8AC30 		ldrb	r3, [r4, #172]	@ zero_extendqisi2
 448              		.loc 11 159 9 view .LVU79
 449 0010 1942     		tst	r1, r3
 450              		.loc 11 159 37 view .LVU80
 451 0012 0379     		ldrb	r3, [r0, #4]	@ zero_extendqisi2
 452              		.loc 11 159 9 view .LVU81
 453 0014 18D0     		beq	.L23
 454              		.loc 11 159 37 discriminator 1 view .LVU82
 455 0016 032B     		cmp	r3, #3
 456 0018 1CD0     		beq	.L24
 160:../../../libDaisy/src/hid/midi.h ****         {
 161:../../../libDaisy/src/hid/midi.h ****             pstate_ = ParserEmpty;
 457              		.loc 11 161 21 view .LVU83
 458 001a 0022     		movs	r2, #0
 459 001c 0271     		strb	r2, [r0, #4]
 162:../../../libDaisy/src/hid/midi.h ****         }
 163:../../../libDaisy/src/hid/midi.h ****         switch(pstate_)
 164:../../../libDaisy/src/hid/midi.h ****         {
 165:../../../libDaisy/src/hid/midi.h ****             case ParserEmpty:
 166:../../../libDaisy/src/hid/midi.h ****                 // check byte for valid Status Byte
 167:../../../libDaisy/src/hid/midi.h ****                 if(byte & kStatusByteMask)
 168:../../../libDaisy/src/hid/midi.h ****                 {
 169:../../../libDaisy/src/hid/midi.h ****                     // Get MessageType, and Channel
 170:../../../libDaisy/src/hid/midi.h ****                     incoming_message_.channel = byte & kChannelMask;
 460              		.loc 11 170 54 view .LVU84
 461 001e 94F8B030 		ldrb	r3, [r4, #176]	@ zero_extendqisi2
 462 0022 0B40     		ands	r3, r3, r1
ARM GAS  C:\Users\toesc\AppData\Local\Temp\ccOgcMME.s 			page 23


 463 0024 C360     		str	r3, [r0, #12]
 171:../../../libDaisy/src/hid/midi.h ****                     incoming_message_.type    = static_cast<MidiMessageType>(
 172:../../../libDaisy/src/hid/midi.h ****                         (byte & kMessageMask) >> 4);
 464              		.loc 11 172 31 view .LVU85
 465 0026 94F8AD30 		ldrb	r3, [r4, #173]	@ zero_extendqisi2
 466              		.loc 11 172 47 view .LVU86
 467 002a 0B40     		ands	r3, r3, r1
 468 002c 1B09     		lsrs	r3, r3, #4
 173:../../../libDaisy/src/hid/midi.h **** 
 174:../../../libDaisy/src/hid/midi.h ****                     // Validate, and move on.
 175:../../../libDaisy/src/hid/midi.h ****                     if(incoming_message_.type < MessageLast)
 469              		.loc 11 175 21 view .LVU87
 470 002e 092B     		cmp	r3, #9
 171:../../../libDaisy/src/hid/midi.h ****                     incoming_message_.type    = static_cast<MidiMessageType>(
 471              		.loc 11 171 47 view .LVU88
 472 0030 0372     		strb	r3, [r0, #8]
 473              		.loc 11 175 21 view .LVU89
 474 0032 06D8     		bhi	.L22
 176:../../../libDaisy/src/hid/midi.h ****                     {
 177:../../../libDaisy/src/hid/midi.h ****                         pstate_ = ParserHasStatus;
 475              		.loc 11 177 33 view .LVU90
 476 0034 0120     		movs	r0, #1
 477              	.LVL26:
 178:../../../libDaisy/src/hid/midi.h ****                         // Mark this status byte as running_status
 179:../../../libDaisy/src/hid/midi.h ****                         running_status_ = incoming_message_.type;
 180:../../../libDaisy/src/hid/midi.h **** 
 181:../../../libDaisy/src/hid/midi.h ****                         if(running_status_ == SystemCommon)
 478              		.loc 11 181 25 view .LVU91
 479 0036 072B     		cmp	r3, #7
 177:../../../libDaisy/src/hid/midi.h ****                         // Mark this status byte as running_status
 480              		.loc 11 177 33 view .LVU92
 481 0038 2871     		strb	r0, [r5, #4]
 179:../../../libDaisy/src/hid/midi.h **** 
 482              		.loc 11 179 41 view .LVU93
 483 003a 84F8A430 		strb	r3, [r4, #164]
 484              		.loc 11 181 25 view .LVU94
 485 003e 00F0E880 		beq	.L80
 486              	.LVL27:
 487              	.L22:
 182:../../../libDaisy/src/hid/midi.h ****                         {
 183:../../../libDaisy/src/hid/midi.h ****                             incoming_message_.channel = 0;
 184:../../../libDaisy/src/hid/midi.h ****                             //system real time = 1111 1xxx
 185:../../../libDaisy/src/hid/midi.h ****                             if(byte & 0x08)
 186:../../../libDaisy/src/hid/midi.h ****                             {
 187:../../../libDaisy/src/hid/midi.h ****                                 incoming_message_.type = SystemRealTime;
 188:../../../libDaisy/src/hid/midi.h ****                                 running_status_        = SystemRealTime;
 189:../../../libDaisy/src/hid/midi.h ****                                 incoming_message_.srt_type
 190:../../../libDaisy/src/hid/midi.h ****                                     = static_cast<SystemRealTimeType>(
 191:../../../libDaisy/src/hid/midi.h ****                                         byte & kSystemRealTimeMask);
 192:../../../libDaisy/src/hid/midi.h **** 
 193:../../../libDaisy/src/hid/midi.h ****                                 //short circuit to start
 194:../../../libDaisy/src/hid/midi.h ****                                 pstate_ = ParserEmpty;
 195:../../../libDaisy/src/hid/midi.h ****                                 event_q_.Write(incoming_message_);
 196:../../../libDaisy/src/hid/midi.h ****                             }
 197:../../../libDaisy/src/hid/midi.h ****                             //system common
 198:../../../libDaisy/src/hid/midi.h ****                             else
 199:../../../libDaisy/src/hid/midi.h ****                             {
ARM GAS  C:\Users\toesc\AppData\Local\Temp\ccOgcMME.s 			page 24


 200:../../../libDaisy/src/hid/midi.h ****                                 incoming_message_.sc_type
 201:../../../libDaisy/src/hid/midi.h ****                                     = static_cast<SystemCommonType>(byte
 202:../../../libDaisy/src/hid/midi.h ****                                                                     & 0x07);
 203:../../../libDaisy/src/hid/midi.h ****                                 //sysex
 204:../../../libDaisy/src/hid/midi.h ****                                 if(incoming_message_.sc_type == SystemExclusive)
 205:../../../libDaisy/src/hid/midi.h ****                                 {
 206:../../../libDaisy/src/hid/midi.h ****                                     pstate_ = ParserSysEx;
 207:../../../libDaisy/src/hid/midi.h ****                                     incoming_message_.sysex_message_len = 0;
 208:../../../libDaisy/src/hid/midi.h ****                                 }
 209:../../../libDaisy/src/hid/midi.h ****                                 //short circuit
 210:../../../libDaisy/src/hid/midi.h ****                                 else if(incoming_message_.sc_type > SongSelect)
 211:../../../libDaisy/src/hid/midi.h ****                                 {
 212:../../../libDaisy/src/hid/midi.h ****                                     pstate_ = ParserEmpty;
 213:../../../libDaisy/src/hid/midi.h ****                                     event_q_.Write(incoming_message_);
 214:../../../libDaisy/src/hid/midi.h ****                                 }
 215:../../../libDaisy/src/hid/midi.h ****                             }
 216:../../../libDaisy/src/hid/midi.h ****                         }
 217:../../../libDaisy/src/hid/midi.h ****                     }
 218:../../../libDaisy/src/hid/midi.h ****                     // Else we'll keep waiting for a valid incoming status byte
 219:../../../libDaisy/src/hid/midi.h ****                 }
 220:../../../libDaisy/src/hid/midi.h ****                 else
 221:../../../libDaisy/src/hid/midi.h ****                 {
 222:../../../libDaisy/src/hid/midi.h ****                     // Handle as running status
 223:../../../libDaisy/src/hid/midi.h ****                     incoming_message_.type    = running_status_;
 224:../../../libDaisy/src/hid/midi.h ****                     incoming_message_.data[0] = byte & kDataByteMask;
 225:../../../libDaisy/src/hid/midi.h ****                     //check for single byte running status, really this only applies to channel pre
 226:../../../libDaisy/src/hid/midi.h ****                     if(running_status_ == ChannelPressure
 227:../../../libDaisy/src/hid/midi.h ****                        || running_status_ == ProgramChange
 228:../../../libDaisy/src/hid/midi.h ****                        || incoming_message_.sc_type == MTCQuarterFrame
 229:../../../libDaisy/src/hid/midi.h ****                        || incoming_message_.sc_type == SongSelect)
 230:../../../libDaisy/src/hid/midi.h ****                     {
 231:../../../libDaisy/src/hid/midi.h ****                         //Send the single byte update
 232:../../../libDaisy/src/hid/midi.h ****                         pstate_ = ParserEmpty;
 233:../../../libDaisy/src/hid/midi.h ****                         event_q_.Write(incoming_message_);
 234:../../../libDaisy/src/hid/midi.h ****                     }
 235:../../../libDaisy/src/hid/midi.h ****                     else
 236:../../../libDaisy/src/hid/midi.h ****                     {
 237:../../../libDaisy/src/hid/midi.h ****                         pstate_
 238:../../../libDaisy/src/hid/midi.h ****                             = ParserHasData0; //we need to get the 2nd byte yet.
 239:../../../libDaisy/src/hid/midi.h ****                     }
 240:../../../libDaisy/src/hid/midi.h ****                 }
 241:../../../libDaisy/src/hid/midi.h ****                 break;
 242:../../../libDaisy/src/hid/midi.h ****             case ParserHasStatus:
 243:../../../libDaisy/src/hid/midi.h ****                 if((byte & kStatusByteMask) == 0)
 244:../../../libDaisy/src/hid/midi.h ****                 {
 245:../../../libDaisy/src/hid/midi.h ****                     incoming_message_.data[0] = byte & kDataByteMask;
 246:../../../libDaisy/src/hid/midi.h ****                     if(running_status_ == ChannelPressure
 247:../../../libDaisy/src/hid/midi.h ****                        || running_status_ == ProgramChange
 248:../../../libDaisy/src/hid/midi.h ****                        || incoming_message_.sc_type == MTCQuarterFrame
 249:../../../libDaisy/src/hid/midi.h ****                        || incoming_message_.sc_type == SongSelect)
 250:../../../libDaisy/src/hid/midi.h ****                     {
 251:../../../libDaisy/src/hid/midi.h ****                         //these are just one data byte, so we short circuit back to start
 252:../../../libDaisy/src/hid/midi.h ****                         pstate_ = ParserEmpty;
 253:../../../libDaisy/src/hid/midi.h ****                         event_q_.Write(incoming_message_);
 254:../../../libDaisy/src/hid/midi.h ****                     }
 255:../../../libDaisy/src/hid/midi.h ****                     else
 256:../../../libDaisy/src/hid/midi.h ****                     {
ARM GAS  C:\Users\toesc\AppData\Local\Temp\ccOgcMME.s 			page 25


 257:../../../libDaisy/src/hid/midi.h ****                         pstate_ = ParserHasData0;
 258:../../../libDaisy/src/hid/midi.h ****                     }
 259:../../../libDaisy/src/hid/midi.h **** 
 260:../../../libDaisy/src/hid/midi.h ****                     //ChannelModeMessages (reserved Control Changes)
 261:../../../libDaisy/src/hid/midi.h ****                     if(running_status_ == ControlChange
 262:../../../libDaisy/src/hid/midi.h ****                        && incoming_message_.data[0] > 119)
 263:../../../libDaisy/src/hid/midi.h ****                     {
 264:../../../libDaisy/src/hid/midi.h ****                         incoming_message_.type = ChannelMode;
 265:../../../libDaisy/src/hid/midi.h ****                         running_status_        = ChannelMode;
 266:../../../libDaisy/src/hid/midi.h ****                         incoming_message_.cm_type
 267:../../../libDaisy/src/hid/midi.h ****                             = static_cast<ChannelModeType>(
 268:../../../libDaisy/src/hid/midi.h ****                                 incoming_message_.data[0] - 120);
 269:../../../libDaisy/src/hid/midi.h ****                     }
 270:../../../libDaisy/src/hid/midi.h ****                 }
 271:../../../libDaisy/src/hid/midi.h ****                 else
 272:../../../libDaisy/src/hid/midi.h ****                 {
 273:../../../libDaisy/src/hid/midi.h ****                     // invalid message go back to start ;p
 274:../../../libDaisy/src/hid/midi.h ****                     pstate_ = ParserEmpty;
 275:../../../libDaisy/src/hid/midi.h ****                 }
 276:../../../libDaisy/src/hid/midi.h ****                 break;
 277:../../../libDaisy/src/hid/midi.h ****             case ParserHasData0:
 278:../../../libDaisy/src/hid/midi.h ****                 if((byte & kStatusByteMask) == 0)
 279:../../../libDaisy/src/hid/midi.h ****                 {
 280:../../../libDaisy/src/hid/midi.h ****                     incoming_message_.data[1] = byte & kDataByteMask;
 281:../../../libDaisy/src/hid/midi.h **** 
 282:../../../libDaisy/src/hid/midi.h ****                     //velocity 0 NoteOns are NoteOffs
 283:../../../libDaisy/src/hid/midi.h ****                     if(running_status_ == NoteOn
 284:../../../libDaisy/src/hid/midi.h ****                        && incoming_message_.data[1] == 0)
 285:../../../libDaisy/src/hid/midi.h ****                     {
 286:../../../libDaisy/src/hid/midi.h ****                         incoming_message_.type = NoteOff;
 287:../../../libDaisy/src/hid/midi.h ****                     }
 288:../../../libDaisy/src/hid/midi.h **** 
 289:../../../libDaisy/src/hid/midi.h ****                     // At this point the message is valid, and we can add this MidiEvent to the que
 290:../../../libDaisy/src/hid/midi.h ****                     event_q_.Write(incoming_message_);
 291:../../../libDaisy/src/hid/midi.h ****                 }
 292:../../../libDaisy/src/hid/midi.h ****                 else
 293:../../../libDaisy/src/hid/midi.h ****                 {
 294:../../../libDaisy/src/hid/midi.h ****                     // invalid message go back to start ;p
 295:../../../libDaisy/src/hid/midi.h ****                     pstate_ = ParserEmpty;
 296:../../../libDaisy/src/hid/midi.h ****                 }
 297:../../../libDaisy/src/hid/midi.h ****                 // Regardless, of whether the data was valid or not we go back to empty
 298:../../../libDaisy/src/hid/midi.h ****                 // because either the message is queued for handling or its not.
 299:../../../libDaisy/src/hid/midi.h ****                 pstate_ = ParserEmpty;
 300:../../../libDaisy/src/hid/midi.h ****                 break;
 301:../../../libDaisy/src/hid/midi.h ****             case ParserSysEx:
 302:../../../libDaisy/src/hid/midi.h ****                 // end of sysex
 303:../../../libDaisy/src/hid/midi.h ****                 if(byte == 0xf7)
 304:../../../libDaisy/src/hid/midi.h ****                 {
 305:../../../libDaisy/src/hid/midi.h ****                     pstate_ = ParserEmpty;
 306:../../../libDaisy/src/hid/midi.h ****                     event_q_.Write(incoming_message_);
 307:../../../libDaisy/src/hid/midi.h ****                 }
 308:../../../libDaisy/src/hid/midi.h ****                 else if(incoming_message_.sysex_message_len < SYSEX_BUFFER_LEN)
 309:../../../libDaisy/src/hid/midi.h ****                 {
 310:../../../libDaisy/src/hid/midi.h ****                     incoming_message_
 311:../../../libDaisy/src/hid/midi.h ****                         .sysex_data[incoming_message_.sysex_message_len]
 312:../../../libDaisy/src/hid/midi.h ****                         = byte;
 313:../../../libDaisy/src/hid/midi.h ****                     incoming_message_.sysex_message_len++;
ARM GAS  C:\Users\toesc\AppData\Local\Temp\ccOgcMME.s 			page 26


 314:../../../libDaisy/src/hid/midi.h ****                 }
 315:../../../libDaisy/src/hid/midi.h ****                 break;
 316:../../../libDaisy/src/hid/midi.h ****             default: break;
 317:../../../libDaisy/src/hid/midi.h ****         }
 318:../../../libDaisy/src/hid/midi.h ****     }
 488              		.loc 11 318 5 view .LVU95
 489 0042 48B0     		add	sp, sp, #288
 490              		.cfi_remember_state
 491              		.cfi_def_cfa_offset 24
 492              		@ sp needed
 493 0044 BDE8F081 		pop	{r4, r5, r6, r7, r8, pc}
 494              	.LVL28:
 495              	.L23:
 496              		.cfi_restore_state
 497              		.loc 11 318 5 view .LVU96
 498 0048 032B     		cmp	r3, #3
 499 004a FAD8     		bhi	.L22
 500 004c DFE803F0 		tbb	[pc, r3]
 501              	.L46:
 502 0050 8D       		.byte	(.L32-.L46)/2
 503 0051 11       		.byte	(.L36-.L46)/2
 504 0052 58       		.byte	(.L41-.L46)/2
 505 0053 02       		.byte	(.L24-.L46)/2
 506              		.p2align 1
 507              	.L24:
 303:../../../libDaisy/src/hid/midi.h ****                 {
 508              		.loc 11 303 17 view .LVU97
 509 0054 F729     		cmp	r1, #247
 510 0056 00F0C380 		beq	.L81
 308:../../../libDaisy/src/hid/midi.h ****                 {
 511              		.loc 11 308 22 view .LVU98
 512 005a 95F99220 		ldrsb	r2, [r5, #146]
 308:../../../libDaisy/src/hid/midi.h ****                 {
 513              		.loc 11 308 43 view .LVU99
 514 005e 95F89230 		ldrb	r3, [r5, #146]	@ zero_extendqisi2
 308:../../../libDaisy/src/hid/midi.h ****                 {
 515              		.loc 11 308 22 view .LVU100
 516 0062 002A     		cmp	r2, #0
 517 0064 EDDB     		blt	.L22
 312:../../../libDaisy/src/hid/midi.h ****                     incoming_message_.sysex_message_len++;
 518              		.loc 11 312 25 view .LVU101
 519 0066 EA18     		adds	r2, r5, r3
 313:../../../libDaisy/src/hid/midi.h ****                 }
 520              		.loc 11 313 21 view .LVU102
 521 0068 0133     		adds	r3, r3, #1
 312:../../../libDaisy/src/hid/midi.h ****                     incoming_message_.sysex_message_len++;
 522              		.loc 11 312 25 view .LVU103
 523 006a 9174     		strb	r1, [r2, #18]
 313:../../../libDaisy/src/hid/midi.h ****                 }
 524              		.loc 11 313 21 view .LVU104
 525 006c 85F89230 		strb	r3, [r5, #146]
 526              		.loc 11 318 5 view .LVU105
 527 0070 E7E7     		b	.L22
 528              	.L36:
 245:../../../libDaisy/src/hid/midi.h ****                     if(running_status_ == ChannelPressure
 529              		.loc 11 245 54 view .LVU106
 530 0072 94F8AE80 		ldrb	r8, [r4, #174]	@ zero_extendqisi2
ARM GAS  C:\Users\toesc\AppData\Local\Temp\ccOgcMME.s 			page 27


 531 0076 01EA0808 		and	r8, r1, r8
 245:../../../libDaisy/src/hid/midi.h ****                     if(running_status_ == ChannelPressure
 532              		.loc 11 245 47 view .LVU107
 533 007a 85F81080 		strb	r8, [r5, #16]
 246:../../../libDaisy/src/hid/midi.h ****                        || running_status_ == ProgramChange
 534              		.loc 11 246 24 view .LVU108
 535 007e 94F8A470 		ldrb	r7, [r4, #164]	@ zero_extendqisi2
 246:../../../libDaisy/src/hid/midi.h ****                        || running_status_ == ProgramChange
 536              		.loc 11 246 21 view .LVU109
 537 0082 3B1F     		subs	r3, r7, #4
 538 0084 012B     		cmp	r3, #1
 539 0086 06D9     		bls	.L37
 248:../../../libDaisy/src/hid/midi.h ****                        || incoming_message_.sc_type == SongSelect)
 540              		.loc 11 248 24 view .LVU110
 541 0088 95F89330 		ldrb	r3, [r5, #147]	@ zero_extendqisi2
 249:../../../libDaisy/src/hid/midi.h ****                     {
 542              		.loc 11 249 24 view .LVU111
 543 008c 03F0FD03 		and	r3, r3, #253
 544 0090 012B     		cmp	r3, #1
 545 0092 40F0BB80 		bne	.L38
 546              	.L37:
 252:../../../libDaisy/src/hid/midi.h ****                         event_q_.Write(incoming_message_);
 547              		.loc 11 252 33 view .LVU112
 548 0096 0023     		movs	r3, #0
 549 0098 6E46     		mov	r6, sp
 550 009a 9022     		movs	r2, #144
 551 009c 05F10801 		add	r1, r5, #8
 552              	.LVL29:
 252:../../../libDaisy/src/hid/midi.h ****                         event_q_.Write(incoming_message_);
 553              		.loc 11 252 33 view .LVU113
 554 00a0 3046     		mov	r0, r6
 555              	.LVL30:
 252:../../../libDaisy/src/hid/midi.h ****                         event_q_.Write(incoming_message_);
 556              		.loc 11 252 33 view .LVU114
 557 00a2 2B71     		strb	r3, [r5, #4]
 558              	.LVL31:
 252:../../../libDaisy/src/hid/midi.h ****                         event_q_.Write(incoming_message_);
 559              		.loc 11 252 33 view .LVU115
 560 00a4 FFF7FEFF 		bl	memcpy
 561              	.LVL32:
 562              	.LBB355:
 563              	.LBI355:
 564              		.file 14 "../../../libDaisy/src/util/ringbuffer.h"
   1:../../../libDaisy/src/util/ringbuffer.h **** #pragma once
   2:../../../libDaisy/src/util/ringbuffer.h **** #ifndef DSY_RINGBUFFER_H
   3:../../../libDaisy/src/util/ringbuffer.h **** #define DSY_RINGBUFFER_H
   4:../../../libDaisy/src/util/ringbuffer.h **** 
   5:../../../libDaisy/src/util/ringbuffer.h **** #include <algorithm>
   6:../../../libDaisy/src/util/ringbuffer.h **** 
   7:../../../libDaisy/src/util/ringbuffer.h **** namespace daisy
   8:../../../libDaisy/src/util/ringbuffer.h **** {
   9:../../../libDaisy/src/util/ringbuffer.h **** /** @addtogroup utility
  10:../../../libDaisy/src/util/ringbuffer.h ****     @{
  11:../../../libDaisy/src/util/ringbuffer.h **** */
  12:../../../libDaisy/src/util/ringbuffer.h **** 
  13:../../../libDaisy/src/util/ringbuffer.h **** /**
  14:../../../libDaisy/src/util/ringbuffer.h **** Utility Ring Buffer \n 
ARM GAS  C:\Users\toesc\AppData\Local\Temp\ccOgcMME.s 			page 28


  15:../../../libDaisy/src/util/ringbuffer.h **** imported from pichenettes/stmlib
  16:../../../libDaisy/src/util/ringbuffer.h **** */
  17:../../../libDaisy/src/util/ringbuffer.h **** template <typename T, size_t size>
  18:../../../libDaisy/src/util/ringbuffer.h **** class RingBuffer
  19:../../../libDaisy/src/util/ringbuffer.h **** {
  20:../../../libDaisy/src/util/ringbuffer.h ****   public:
  21:../../../libDaisy/src/util/ringbuffer.h ****     RingBuffer() {}
  22:../../../libDaisy/src/util/ringbuffer.h **** 
  23:../../../libDaisy/src/util/ringbuffer.h ****     /** Initializes the Ring Buffer */
  24:../../../libDaisy/src/util/ringbuffer.h ****     inline void Init() { read_ptr_ = write_ptr_ = 0; }
  25:../../../libDaisy/src/util/ringbuffer.h **** 
  26:../../../libDaisy/src/util/ringbuffer.h ****     /** \return The total size of the ring buffer */
  27:../../../libDaisy/src/util/ringbuffer.h ****     inline size_t capacity() const { return size; }
  28:../../../libDaisy/src/util/ringbuffer.h **** 
  29:../../../libDaisy/src/util/ringbuffer.h ****     /** \return the number of samples that can be written to ring buffer without overwriting unread
  30:../../../libDaisy/src/util/ringbuffer.h ****     inline size_t writable() const
  31:../../../libDaisy/src/util/ringbuffer.h ****     {
  32:../../../libDaisy/src/util/ringbuffer.h ****         return (read_ptr_ - write_ptr_ - 1) % size;
  33:../../../libDaisy/src/util/ringbuffer.h ****     }
  34:../../../libDaisy/src/util/ringbuffer.h **** 
  35:../../../libDaisy/src/util/ringbuffer.h ****     /** \return number of unread elements in ring buffer */
  36:../../../libDaisy/src/util/ringbuffer.h ****     inline size_t readable() const { return (write_ptr_ - read_ptr_) % size; }
  37:../../../libDaisy/src/util/ringbuffer.h **** 
  38:../../../libDaisy/src/util/ringbuffer.h ****     /** \returns True, if the buffer is empty. */
  39:../../../libDaisy/src/util/ringbuffer.h ****     inline bool isEmpty() const { return write_ptr_ == read_ptr_; }
  40:../../../libDaisy/src/util/ringbuffer.h **** 
  41:../../../libDaisy/src/util/ringbuffer.h ****     /** Writes the value to the next available position in the ring buffer
  42:../../../libDaisy/src/util/ringbuffer.h ****     \param v Value to write
  43:../../../libDaisy/src/util/ringbuffer.h ****     */
  44:../../../libDaisy/src/util/ringbuffer.h ****     inline void Write(T v)
 565              		.loc 14 44 17 is_stmt 1 view .LVU116
 566              	.L39:
 567              	.LBB356:
  45:../../../libDaisy/src/util/ringbuffer.h ****     {
  46:../../../libDaisy/src/util/ringbuffer.h ****         while(!writable())
 568              		.loc 14 46 24 view .LVU117
 569              	.LBB357:
 570              	.LBI357:
  30:../../../libDaisy/src/util/ringbuffer.h ****     {
 571              		.loc 14 30 19 view .LVU118
 572              	.LBB358:
  32:../../../libDaisy/src/util/ringbuffer.h ****     }
 573              		.loc 14 32 17 is_stmt 0 view .LVU119
 574 00a8 D4F89830 		ldr	r3, [r4, #152]
  32:../../../libDaisy/src/util/ringbuffer.h ****     }
 575              		.loc 14 32 29 view .LVU120
 576 00ac D4F89C20 		ldr	r2, [r4, #156]
 577              	.LVL33:
  32:../../../libDaisy/src/util/ringbuffer.h ****     }
 578              		.loc 14 32 40 view .LVU121
 579 00b0 013B     		subs	r3, r3, #1
 580 00b2 9B1A     		subs	r3, r3, r2
  32:../../../libDaisy/src/util/ringbuffer.h ****     }
 581              		.loc 14 32 47 view .LVU122
 582 00b4 DBB2     		uxtb	r3, r3
 583              	.LBE358:
 584              	.LBE357:
ARM GAS  C:\Users\toesc\AppData\Local\Temp\ccOgcMME.s 			page 29


 585              		.loc 14 46 24 view .LVU123
 586 00b6 002B     		cmp	r3, #0
 587 00b8 F6D0     		beq	.L39
 588              	.LVL34:
 589              		.loc 14 46 24 view .LVU124
 590 00ba 9022     		movs	r2, #144
 591 00bc 3146     		mov	r1, r6
 592 00be 0DEB0200 		add	r0, sp, r2
 593 00c2 FFF7FEFF 		bl	memcpy
 594              	.LVL35:
 595              	.LBB359:
 596              	.LBI359:
  47:../../../libDaisy/src/util/ringbuffer.h ****             ;
  48:../../../libDaisy/src/util/ringbuffer.h ****         Overwrite(v);
  49:../../../libDaisy/src/util/ringbuffer.h ****     }
  50:../../../libDaisy/src/util/ringbuffer.h **** 
  51:../../../libDaisy/src/util/ringbuffer.h ****     /** Writes the new element to the ring buffer, overwriting unread data if necessary. 
  52:../../../libDaisy/src/util/ringbuffer.h ****     \param v Value to overwrite
  53:../../../libDaisy/src/util/ringbuffer.h ****      */
  54:../../../libDaisy/src/util/ringbuffer.h ****     inline void Overwrite(T v)
 597              		.loc 14 54 17 is_stmt 1 view .LVU125
 598              	.LBB360:
  55:../../../libDaisy/src/util/ringbuffer.h ****     {
  56:../../../libDaisy/src/util/ringbuffer.h ****         size_t w   = write_ptr_;
 599              		.loc 14 56 16 is_stmt 0 view .LVU126
 600 00c6 D4F89C60 		ldr	r6, [r4, #156]
 601              	.LVL36:
  57:../../../libDaisy/src/util/ringbuffer.h ****         buffer_[w] = v;
 602              		.loc 14 57 9 view .LVU127
 603 00ca 24A9     		add	r1, sp, #144
 604 00cc 9022     		movs	r2, #144
 605 00ce 06EBC600 		add	r0, r6, r6, lsl #3
  58:../../../libDaisy/src/util/ringbuffer.h ****         write_ptr_ = (w + 1) % size;
 606              		.loc 14 58 25 view .LVU128
 607 00d2 0136     		adds	r6, r6, #1
 608              	.LVL37:
  57:../../../libDaisy/src/util/ringbuffer.h ****         buffer_[w] = v;
 609              		.loc 14 57 9 view .LVU129
 610 00d4 05EB0010 		add	r0, r5, r0, lsl #4
 611              		.loc 14 58 30 view .LVU130
 612 00d8 F6B2     		uxtb	r6, r6
 613              	.LVL38:
  57:../../../libDaisy/src/util/ringbuffer.h ****         buffer_[w] = v;
 614              		.loc 14 57 9 view .LVU131
 615 00da 9830     		adds	r0, r0, #152
 616 00dc FFF7FEFF 		bl	memcpy
 617              	.LVL39:
 618              		.loc 14 58 20 view .LVU132
 619 00e0 C4F89C60 		str	r6, [r4, #156]
 620              	.LVL40:
 621              	.L40:
 622              		.loc 14 58 20 view .LVU133
 623              	.LBE360:
 624              	.LBE359:
 625              	.LBE356:
 626              	.LBE355:
 262:../../../libDaisy/src/hid/midi.h ****                     {
ARM GAS  C:\Users\toesc\AppData\Local\Temp\ccOgcMME.s 			page 30


 627              		.loc 11 262 24 view .LVU134
 628 00e4 B8F1770F 		cmp	r8, #119
 629 00e8 ABD9     		bls	.L22
 630 00ea 032F     		cmp	r7, #3
 631 00ec A9D1     		bne	.L22
 264:../../../libDaisy/src/hid/midi.h ****                         running_status_        = ChannelMode;
 632              		.loc 11 264 48 view .LVU135
 633 00ee 0923     		movs	r3, #9
 268:../../../libDaisy/src/hid/midi.h ****                     }
 634              		.loc 11 268 59 view .LVU136
 635 00f0 A8F17801 		sub	r1, r8, #120
 264:../../../libDaisy/src/hid/midi.h ****                         running_status_        = ChannelMode;
 636              		.loc 11 264 48 view .LVU137
 637 00f4 2B72     		strb	r3, [r5, #8]
 265:../../../libDaisy/src/hid/midi.h ****                         incoming_message_.cm_type
 638              		.loc 11 265 48 view .LVU138
 639 00f6 84F8A430 		strb	r3, [r4, #164]
 267:../../../libDaisy/src/hid/midi.h ****                                 incoming_message_.data[0] - 120);
 640              		.loc 11 267 29 view .LVU139
 641 00fa 85F89510 		strb	r1, [r5, #149]
 642 00fe A0E7     		b	.L22
 643              	.LVL41:
 644              	.L41:
 280:../../../libDaisy/src/hid/midi.h **** 
 645              		.loc 11 280 54 view .LVU140
 646 0100 94F8AE30 		ldrb	r3, [r4, #174]	@ zero_extendqisi2
 647 0104 1940     		ands	r1, r1, r3
 648              	.LVL42:
 280:../../../libDaisy/src/hid/midi.h **** 
 649              		.loc 11 280 47 view .LVU141
 650 0106 6974     		strb	r1, [r5, #17]
 283:../../../libDaisy/src/hid/midi.h ****                        && incoming_message_.data[1] == 0)
 651              		.loc 11 283 21 view .LVU142
 652 0108 94F8A430 		ldrb	r3, [r4, #164]	@ zero_extendqisi2
 284:../../../libDaisy/src/hid/midi.h ****                     {
 653              		.loc 11 284 24 view .LVU143
 654 010c 012B     		cmp	r3, #1
 655 010e 02D1     		bne	.L42
 656 0110 0029     		cmp	r1, #0
 657 0112 00F08C80 		beq	.L82
 658              	.L42:
 659              	.LVL43:
 284:../../../libDaisy/src/hid/midi.h ****                     {
 660              		.loc 11 284 24 view .LVU144
 661 0116 6E46     		mov	r6, sp
 662 0118 9022     		movs	r2, #144
 663 011a 05F10801 		add	r1, r5, #8
 664 011e 3046     		mov	r0, r6
 665              	.LVL44:
 284:../../../libDaisy/src/hid/midi.h ****                     {
 666              		.loc 11 284 24 view .LVU145
 667 0120 FFF7FEFF 		bl	memcpy
 668              	.LVL45:
 669              	.LBB361:
 670              	.LBI361:
  44:../../../libDaisy/src/util/ringbuffer.h ****     {
 671              		.loc 14 44 17 is_stmt 1 view .LVU146
ARM GAS  C:\Users\toesc\AppData\Local\Temp\ccOgcMME.s 			page 31


 672              	.L43:
 673              	.LBB362:
  46:../../../libDaisy/src/util/ringbuffer.h ****             ;
 674              		.loc 14 46 24 view .LVU147
 675              	.LBB363:
 676              	.LBI363:
  30:../../../libDaisy/src/util/ringbuffer.h ****     {
 677              		.loc 14 30 19 view .LVU148
 678              	.LBB364:
  32:../../../libDaisy/src/util/ringbuffer.h ****     }
 679              		.loc 14 32 17 is_stmt 0 view .LVU149
 680 0124 D4F89830 		ldr	r3, [r4, #152]
  32:../../../libDaisy/src/util/ringbuffer.h ****     }
 681              		.loc 14 32 29 view .LVU150
 682 0128 D4F89C20 		ldr	r2, [r4, #156]
 683              	.LVL46:
  32:../../../libDaisy/src/util/ringbuffer.h ****     }
 684              		.loc 14 32 40 view .LVU151
 685 012c 013B     		subs	r3, r3, #1
 686 012e 9B1A     		subs	r3, r3, r2
  32:../../../libDaisy/src/util/ringbuffer.h ****     }
 687              		.loc 14 32 47 view .LVU152
 688 0130 DBB2     		uxtb	r3, r3
 689              	.LBE364:
 690              	.LBE363:
  46:../../../libDaisy/src/util/ringbuffer.h ****             ;
 691              		.loc 14 46 24 view .LVU153
 692 0132 002B     		cmp	r3, #0
 693 0134 F6D0     		beq	.L43
 694              	.LVL47:
  46:../../../libDaisy/src/util/ringbuffer.h ****             ;
 695              		.loc 14 46 24 view .LVU154
 696 0136 9022     		movs	r2, #144
 697 0138 3146     		mov	r1, r6
 698 013a 0DEB0200 		add	r0, sp, r2
 699 013e FFF7FEFF 		bl	memcpy
 700              	.LVL48:
 701              	.LBB365:
 702              	.LBI365:
  54:../../../libDaisy/src/util/ringbuffer.h ****     {
 703              		.loc 14 54 17 is_stmt 1 view .LVU155
 704              	.LBB366:
  56:../../../libDaisy/src/util/ringbuffer.h ****         buffer_[w] = v;
 705              		.loc 14 56 16 is_stmt 0 view .LVU156
 706 0142 D4F89C60 		ldr	r6, [r4, #156]
 707              	.LVL49:
  57:../../../libDaisy/src/util/ringbuffer.h ****         write_ptr_ = (w + 1) % size;
 708              		.loc 14 57 9 view .LVU157
 709 0146 24A9     		add	r1, sp, #144
 710 0148 9022     		movs	r2, #144
 711 014a 06EBC600 		add	r0, r6, r6, lsl #3
 712              		.loc 14 58 25 view .LVU158
 713 014e 0136     		adds	r6, r6, #1
 714              	.LVL50:
  57:../../../libDaisy/src/util/ringbuffer.h ****         write_ptr_ = (w + 1) % size;
 715              		.loc 14 57 9 view .LVU159
 716 0150 05EB0010 		add	r0, r5, r0, lsl #4
ARM GAS  C:\Users\toesc\AppData\Local\Temp\ccOgcMME.s 			page 32


 717              		.loc 14 58 30 view .LVU160
 718 0154 F6B2     		uxtb	r6, r6
 719              	.LVL51:
  57:../../../libDaisy/src/util/ringbuffer.h ****         write_ptr_ = (w + 1) % size;
 720              		.loc 14 57 9 view .LVU161
 721 0156 9830     		adds	r0, r0, #152
 722 0158 FFF7FEFF 		bl	memcpy
 723              	.LVL52:
 724              	.LBE366:
 725              	.LBE365:
 726              	.LBE362:
 727              	.LBE361:
 299:../../../libDaisy/src/hid/midi.h ****                 break;
 728              		.loc 11 299 25 view .LVU162
 729 015c 0023     		movs	r3, #0
 730              	.LBB370:
 731              	.LBB369:
 732              	.LBB368:
 733              	.LBB367:
 734              		.loc 14 58 20 view .LVU163
 735 015e C4F89C60 		str	r6, [r4, #156]
 736              	.LVL53:
 737              		.loc 14 58 20 view .LVU164
 738              	.LBE367:
 739              	.LBE368:
 740              	.LBE369:
 741              	.LBE370:
 299:../../../libDaisy/src/hid/midi.h ****                 break;
 742              		.loc 11 299 25 view .LVU165
 743 0162 2B71     		strb	r3, [r5, #4]
 744              		.loc 11 318 5 view .LVU166
 745 0164 48B0     		add	sp, sp, #288
 746              		.cfi_remember_state
 747              		.cfi_def_cfa_offset 24
 748              		@ sp needed
 749 0166 BDE8F081 		pop	{r4, r5, r6, r7, r8, pc}
 750              	.LVL54:
 751              	.L32:
 752              		.cfi_restore_state
 223:../../../libDaisy/src/hid/midi.h ****                     incoming_message_.data[0] = byte & kDataByteMask;
 753              		.loc 11 223 49 view .LVU167
 754 016a 94F8A430 		ldrb	r3, [r4, #164]	@ zero_extendqisi2
 223:../../../libDaisy/src/hid/midi.h ****                     incoming_message_.data[0] = byte & kDataByteMask;
 755              		.loc 11 223 47 view .LVU168
 756 016e 2B72     		strb	r3, [r5, #8]
 226:../../../libDaisy/src/hid/midi.h ****                        || running_status_ == ProgramChange
 757              		.loc 11 226 21 view .LVU169
 758 0170 043B     		subs	r3, r3, #4
 224:../../../libDaisy/src/hid/midi.h ****                     //check for single byte running status, really this only applies to channel pre
 759              		.loc 11 224 54 view .LVU170
 760 0172 94F8AE20 		ldrb	r2, [r4, #174]	@ zero_extendqisi2
 226:../../../libDaisy/src/hid/midi.h ****                        || running_status_ == ProgramChange
 761              		.loc 11 226 21 view .LVU171
 762 0176 012B     		cmp	r3, #1
 224:../../../libDaisy/src/hid/midi.h ****                     //check for single byte running status, really this only applies to channel pre
 763              		.loc 11 224 54 view .LVU172
 764 0178 01EA0201 		and	r1, r1, r2
ARM GAS  C:\Users\toesc\AppData\Local\Temp\ccOgcMME.s 			page 33


 765              	.LVL55:
 224:../../../libDaisy/src/hid/midi.h ****                     //check for single byte running status, really this only applies to channel pre
 766              		.loc 11 224 47 view .LVU173
 767 017c 2974     		strb	r1, [r5, #16]
 226:../../../libDaisy/src/hid/midi.h ****                        || running_status_ == ProgramChange
 768              		.loc 11 226 21 view .LVU174
 769 017e 05D9     		bls	.L33
 228:../../../libDaisy/src/hid/midi.h ****                        || incoming_message_.sc_type == SongSelect)
 770              		.loc 11 228 24 view .LVU175
 771 0180 95F89330 		ldrb	r3, [r5, #147]	@ zero_extendqisi2
 229:../../../libDaisy/src/hid/midi.h ****                     {
 772              		.loc 11 229 24 view .LVU176
 773 0184 03F0FD03 		and	r3, r3, #253
 774 0188 012B     		cmp	r3, #1
 775 018a 3CD1     		bne	.L34
 776              	.L33:
 232:../../../libDaisy/src/hid/midi.h ****                         event_q_.Write(incoming_message_);
 777              		.loc 11 232 33 view .LVU177
 778 018c 0023     		movs	r3, #0
 779 018e 6E46     		mov	r6, sp
 780 0190 9022     		movs	r2, #144
 781 0192 05F10801 		add	r1, r5, #8
 782 0196 3046     		mov	r0, r6
 783              	.LVL56:
 232:../../../libDaisy/src/hid/midi.h ****                         event_q_.Write(incoming_message_);
 784              		.loc 11 232 33 view .LVU178
 785 0198 2B71     		strb	r3, [r5, #4]
 786              	.LVL57:
 232:../../../libDaisy/src/hid/midi.h ****                         event_q_.Write(incoming_message_);
 787              		.loc 11 232 33 view .LVU179
 788 019a FFF7FEFF 		bl	memcpy
 789              	.LVL58:
 790              	.LBB371:
 791              	.LBI371:
  44:../../../libDaisy/src/util/ringbuffer.h ****     {
 792              		.loc 14 44 17 is_stmt 1 view .LVU180
 793              	.L35:
 794              	.LBB372:
  46:../../../libDaisy/src/util/ringbuffer.h ****             ;
 795              		.loc 14 46 24 view .LVU181
 796              	.LBB373:
 797              	.LBI373:
  30:../../../libDaisy/src/util/ringbuffer.h ****     {
 798              		.loc 14 30 19 view .LVU182
 799              	.LBB374:
  32:../../../libDaisy/src/util/ringbuffer.h ****     }
 800              		.loc 14 32 17 is_stmt 0 view .LVU183
 801 019e D4F89830 		ldr	r3, [r4, #152]
  32:../../../libDaisy/src/util/ringbuffer.h ****     }
 802              		.loc 14 32 29 view .LVU184
 803 01a2 D4F89C20 		ldr	r2, [r4, #156]
 804              	.LVL59:
  32:../../../libDaisy/src/util/ringbuffer.h ****     }
 805              		.loc 14 32 40 view .LVU185
 806 01a6 013B     		subs	r3, r3, #1
 807 01a8 9B1A     		subs	r3, r3, r2
  32:../../../libDaisy/src/util/ringbuffer.h ****     }
ARM GAS  C:\Users\toesc\AppData\Local\Temp\ccOgcMME.s 			page 34


 808              		.loc 14 32 47 view .LVU186
 809 01aa DBB2     		uxtb	r3, r3
 810              	.LBE374:
 811              	.LBE373:
  46:../../../libDaisy/src/util/ringbuffer.h ****             ;
 812              		.loc 14 46 24 view .LVU187
 813 01ac 002B     		cmp	r3, #0
 814 01ae F6D0     		beq	.L35
 815              	.LVL60:
 816              	.L79:
  46:../../../libDaisy/src/util/ringbuffer.h ****             ;
 817              		.loc 14 46 24 view .LVU188
 818 01b0 9022     		movs	r2, #144
 819 01b2 3146     		mov	r1, r6
 820 01b4 0DEB0200 		add	r0, sp, r2
 821 01b8 FFF7FEFF 		bl	memcpy
 822              	.LVL61:
 823              	.LBE372:
 824              	.LBE371:
 825              	.LBB375:
 826              	.LBB376:
 827              	.LBB377:
 828              	.LBI377:
  54:../../../libDaisy/src/util/ringbuffer.h ****     {
 829              		.loc 14 54 17 is_stmt 1 view .LVU189
 830              	.LBB378:
  56:../../../libDaisy/src/util/ringbuffer.h ****         buffer_[w] = v;
 831              		.loc 14 56 16 is_stmt 0 view .LVU190
 832 01bc D4F89C60 		ldr	r6, [r4, #156]
 833              	.LVL62:
  57:../../../libDaisy/src/util/ringbuffer.h ****         write_ptr_ = (w + 1) % size;
 834              		.loc 14 57 9 view .LVU191
 835 01c0 24A9     		add	r1, sp, #144
 836 01c2 9022     		movs	r2, #144
 837 01c4 06EBC600 		add	r0, r6, r6, lsl #3
 838              		.loc 14 58 25 view .LVU192
 839 01c8 0136     		adds	r6, r6, #1
 840              	.LVL63:
  57:../../../libDaisy/src/util/ringbuffer.h ****         write_ptr_ = (w + 1) % size;
 841              		.loc 14 57 9 view .LVU193
 842 01ca 05EB0010 		add	r0, r5, r0, lsl #4
 843              		.loc 14 58 30 view .LVU194
 844 01ce F6B2     		uxtb	r6, r6
 845              	.LVL64:
  57:../../../libDaisy/src/util/ringbuffer.h ****         write_ptr_ = (w + 1) % size;
 846              		.loc 14 57 9 view .LVU195
 847 01d0 9830     		adds	r0, r0, #152
 848 01d2 FFF7FEFF 		bl	memcpy
 849              	.LVL65:
 850              		.loc 14 58 20 view .LVU196
 851 01d6 C4F89C60 		str	r6, [r4, #156]
 852              		.loc 14 58 20 view .LVU197
 853              	.LBE378:
 854              	.LBE377:
 855              	.LBE376:
 856              	.LBE375:
 857              		.loc 11 318 5 view .LVU198
ARM GAS  C:\Users\toesc\AppData\Local\Temp\ccOgcMME.s 			page 35


 858 01da 48B0     		add	sp, sp, #288
 859              		.cfi_remember_state
 860              		.cfi_def_cfa_offset 24
 861              		@ sp needed
 862 01dc BDE8F081 		pop	{r4, r5, r6, r7, r8, pc}
 863              	.LVL66:
 864              	.L81:
 865              		.cfi_restore_state
 305:../../../libDaisy/src/hid/midi.h ****                     event_q_.Write(incoming_message_);
 866              		.loc 11 305 29 view .LVU199
 867 01e0 0023     		movs	r3, #0
 868 01e2 6E46     		mov	r6, sp
 869 01e4 9022     		movs	r2, #144
 870 01e6 05F10801 		add	r1, r5, #8
 871              	.LVL67:
 305:../../../libDaisy/src/hid/midi.h ****                     event_q_.Write(incoming_message_);
 872              		.loc 11 305 29 view .LVU200
 873 01ea 3046     		mov	r0, r6
 874              	.LVL68:
 305:../../../libDaisy/src/hid/midi.h ****                     event_q_.Write(incoming_message_);
 875              		.loc 11 305 29 view .LVU201
 876 01ec 2B71     		strb	r3, [r5, #4]
 877              	.LVL69:
 305:../../../libDaisy/src/hid/midi.h ****                     event_q_.Write(incoming_message_);
 878              		.loc 11 305 29 view .LVU202
 879 01ee FFF7FEFF 		bl	memcpy
 880              	.LVL70:
 881              	.LBB382:
 882              	.LBI375:
  44:../../../libDaisy/src/util/ringbuffer.h ****     {
 883              		.loc 14 44 17 is_stmt 1 view .LVU203
 884              	.L45:
 885              	.LBB381:
  46:../../../libDaisy/src/util/ringbuffer.h ****             ;
 886              		.loc 14 46 24 view .LVU204
 887              	.LBB379:
 888              	.LBI379:
  30:../../../libDaisy/src/util/ringbuffer.h ****     {
 889              		.loc 14 30 19 view .LVU205
 890              	.LBB380:
  32:../../../libDaisy/src/util/ringbuffer.h ****     }
 891              		.loc 14 32 17 is_stmt 0 view .LVU206
 892 01f2 D4F89830 		ldr	r3, [r4, #152]
  32:../../../libDaisy/src/util/ringbuffer.h ****     }
 893              		.loc 14 32 29 view .LVU207
 894 01f6 D4F89C20 		ldr	r2, [r4, #156]
 895              	.LVL71:
  32:../../../libDaisy/src/util/ringbuffer.h ****     }
 896              		.loc 14 32 40 view .LVU208
 897 01fa 013B     		subs	r3, r3, #1
 898 01fc 9B1A     		subs	r3, r3, r2
  32:../../../libDaisy/src/util/ringbuffer.h ****     }
 899              		.loc 14 32 47 view .LVU209
 900 01fe DBB2     		uxtb	r3, r3
 901              	.LBE380:
 902              	.LBE379:
  46:../../../libDaisy/src/util/ringbuffer.h ****             ;
ARM GAS  C:\Users\toesc\AppData\Local\Temp\ccOgcMME.s 			page 36


 903              		.loc 14 46 24 view .LVU210
 904 0200 002B     		cmp	r3, #0
 905 0202 F6D0     		beq	.L45
 906 0204 D4E7     		b	.L79
 907              	.LVL72:
 908              	.L34:
  46:../../../libDaisy/src/util/ringbuffer.h ****             ;
 909              		.loc 14 46 24 view .LVU211
 910              	.LBE381:
 911              	.LBE382:
 238:../../../libDaisy/src/hid/midi.h ****                     }
 912              		.loc 11 238 29 view .LVU212
 913 0206 0223     		movs	r3, #2
 914 0208 2B71     		strb	r3, [r5, #4]
 915 020a 1AE7     		b	.L22
 916              	.LVL73:
 917              	.L38:
 257:../../../libDaisy/src/hid/midi.h ****                     }
 918              		.loc 11 257 33 view .LVU213
 919 020c 0223     		movs	r3, #2
 920 020e 2B71     		strb	r3, [r5, #4]
 921 0210 68E7     		b	.L40
 922              	.LVL74:
 923              	.L80:
 185:../../../libDaisy/src/hid/midi.h ****                             {
 924              		.loc 11 185 29 view .LVU214
 925 0212 11F00800 		ands	r0, r1, #8
 183:../../../libDaisy/src/hid/midi.h ****                             //system real time = 1111 1xxx
 926              		.loc 11 183 55 view .LVU215
 927 0216 EA60     		str	r2, [r5, #12]
 185:../../../libDaisy/src/hid/midi.h ****                             {
 928              		.loc 11 185 29 view .LVU216
 929 0218 36D1     		bne	.L83
 202:../../../libDaisy/src/hid/midi.h ****                                 //sysex
 930              		.loc 11 202 69 view .LVU217
 931 021a 01F00703 		and	r3, r1, #7
 201:../../../libDaisy/src/hid/midi.h ****                                                                     & 0x07);
 932              		.loc 11 201 37 view .LVU218
 933 021e 85F89330 		strb	r3, [r5, #147]
 204:../../../libDaisy/src/hid/midi.h ****                                 {
 934              		.loc 11 204 33 view .LVU219
 935 0222 3BB9     		cbnz	r3, .L30
 206:../../../libDaisy/src/hid/midi.h ****                                     incoming_message_.sysex_message_len = 0;
 936              		.loc 11 206 45 view .LVU220
 937 0224 0322     		movs	r2, #3
 207:../../../libDaisy/src/hid/midi.h ****                                 }
 938              		.loc 11 207 73 view .LVU221
 939 0226 85F89230 		strb	r3, [r5, #146]
 206:../../../libDaisy/src/hid/midi.h ****                                     incoming_message_.sysex_message_len = 0;
 940              		.loc 11 206 45 view .LVU222
 941 022a 2A71     		strb	r2, [r5, #4]
 942 022c 09E7     		b	.L22
 943              	.LVL75:
 944              	.L82:
 286:../../../libDaisy/src/hid/midi.h ****                     }
 945              		.loc 11 286 48 view .LVU223
 946 022e 0023     		movs	r3, #0
ARM GAS  C:\Users\toesc\AppData\Local\Temp\ccOgcMME.s 			page 37


 947 0230 2B72     		strb	r3, [r5, #8]
 948 0232 70E7     		b	.L42
 949              	.LVL76:
 950              	.L30:
 210:../../../libDaisy/src/hid/midi.h ****                                 {
 951              		.loc 11 210 38 view .LVU224
 952 0234 4B07     		lsls	r3, r1, #29
 953 0236 7FF504AF 		bpl	.L22
 954 023a 6E46     		mov	r6, sp
 212:../../../libDaisy/src/hid/midi.h ****                                     event_q_.Write(incoming_message_);
 955              		.loc 11 212 45 view .LVU225
 956 023c 2871     		strb	r0, [r5, #4]
 957              	.LVL77:
 212:../../../libDaisy/src/hid/midi.h ****                                     event_q_.Write(incoming_message_);
 958              		.loc 11 212 45 view .LVU226
 959 023e 9022     		movs	r2, #144
 960 0240 05F10801 		add	r1, r5, #8
 961              	.LVL78:
 212:../../../libDaisy/src/hid/midi.h ****                                     event_q_.Write(incoming_message_);
 962              		.loc 11 212 45 view .LVU227
 963 0244 3046     		mov	r0, r6
 964 0246 FFF7FEFF 		bl	memcpy
 965              	.LVL79:
 966              	.LBB383:
 967              	.LBI383:
  44:../../../libDaisy/src/util/ringbuffer.h ****     {
 968              		.loc 14 44 17 is_stmt 1 view .LVU228
 969              	.L31:
 970              	.LBB384:
  46:../../../libDaisy/src/util/ringbuffer.h ****             ;
 971              		.loc 14 46 24 view .LVU229
 972              	.LBB385:
 973              	.LBI385:
  30:../../../libDaisy/src/util/ringbuffer.h ****     {
 974              		.loc 14 30 19 view .LVU230
 975              	.LBB386:
  32:../../../libDaisy/src/util/ringbuffer.h ****     }
 976              		.loc 14 32 17 is_stmt 0 view .LVU231
 977 024a D4F89830 		ldr	r3, [r4, #152]
  32:../../../libDaisy/src/util/ringbuffer.h ****     }
 978              		.loc 14 32 29 view .LVU232
 979 024e D4F89C20 		ldr	r2, [r4, #156]
 980              	.LVL80:
  32:../../../libDaisy/src/util/ringbuffer.h ****     }
 981              		.loc 14 32 40 view .LVU233
 982 0252 013B     		subs	r3, r3, #1
 983 0254 9B1A     		subs	r3, r3, r2
  32:../../../libDaisy/src/util/ringbuffer.h ****     }
 984              		.loc 14 32 47 view .LVU234
 985 0256 DBB2     		uxtb	r3, r3
 986              	.LBE386:
 987              	.LBE385:
  46:../../../libDaisy/src/util/ringbuffer.h ****             ;
 988              		.loc 14 46 24 view .LVU235
 989 0258 002B     		cmp	r3, #0
 990 025a F6D0     		beq	.L31
 991              	.LVL81:
ARM GAS  C:\Users\toesc\AppData\Local\Temp\ccOgcMME.s 			page 38


 992              	.L78:
  46:../../../libDaisy/src/util/ringbuffer.h ****             ;
 993              		.loc 14 46 24 view .LVU236
 994 025c 9022     		movs	r2, #144
 995 025e 3146     		mov	r1, r6
 996 0260 0DEB0200 		add	r0, sp, r2
 997 0264 FFF7FEFF 		bl	memcpy
 998              	.LVL82:
 999              	.LBB387:
 1000              	.LBI387:
  54:../../../libDaisy/src/util/ringbuffer.h ****     {
 1001              		.loc 14 54 17 is_stmt 1 view .LVU237
 1002              	.LBB388:
  56:../../../libDaisy/src/util/ringbuffer.h ****         buffer_[w] = v;
 1003              		.loc 14 56 16 is_stmt 0 view .LVU238
 1004 0268 D4F89C60 		ldr	r6, [r4, #156]
 1005              	.LVL83:
  57:../../../libDaisy/src/util/ringbuffer.h ****         write_ptr_ = (w + 1) % size;
 1006              		.loc 14 57 9 view .LVU239
 1007 026c 24A9     		add	r1, sp, #144
 1008 026e 9022     		movs	r2, #144
 1009 0270 06EBC600 		add	r0, r6, r6, lsl #3
 1010 0274 05EB0010 		add	r0, r5, r0, lsl #4
 1011 0278 9830     		adds	r0, r0, #152
 1012 027a FFF7FEFF 		bl	memcpy
 1013              	.LVL84:
 1014              		.loc 14 58 25 view .LVU240
 1015 027e 731C     		adds	r3, r6, #1
 1016              		.loc 14 58 30 view .LVU241
 1017 0280 DBB2     		uxtb	r3, r3
 1018              		.loc 14 58 20 view .LVU242
 1019 0282 C4F89C30 		str	r3, [r4, #156]
 1020              	.LVL85:
 1021              		.loc 14 58 20 view .LVU243
 1022              	.LBE388:
 1023              	.LBE387:
 1024              	.LBE384:
 1025              	.LBE383:
 1026 0286 DCE6     		b	.L22
 1027              	.LVL86:
 1028              	.L83:
 187:../../../libDaisy/src/hid/midi.h ****                                 running_status_        = SystemRealTime;
 1029              		.loc 11 187 56 view .LVU244
 1030 0288 0823     		movs	r3, #8
 1031 028a 6E46     		mov	r6, sp
 1032 028c 2B72     		strb	r3, [r5, #8]
 1033 028e 3046     		mov	r0, r6
 188:../../../libDaisy/src/hid/midi.h ****                                 incoming_message_.srt_type
 1034              		.loc 11 188 56 view .LVU245
 1035 0290 84F8A430 		strb	r3, [r4, #164]
 191:../../../libDaisy/src/hid/midi.h **** 
 1036              		.loc 11 191 46 view .LVU246
 1037 0294 94F8B230 		ldrb	r3, [r4, #178]	@ zero_extendqisi2
 194:../../../libDaisy/src/hid/midi.h ****                                 event_q_.Write(incoming_message_);
 1038              		.loc 11 194 41 view .LVU247
 1039 0298 2A71     		strb	r2, [r5, #4]
 1040              	.LVL87:
ARM GAS  C:\Users\toesc\AppData\Local\Temp\ccOgcMME.s 			page 39


 194:../../../libDaisy/src/hid/midi.h ****                                 event_q_.Write(incoming_message_);
 1041              		.loc 11 194 41 view .LVU248
 1042 029a 9022     		movs	r2, #144
 191:../../../libDaisy/src/hid/midi.h **** 
 1043              		.loc 11 191 46 view .LVU249
 1044 029c 1940     		ands	r1, r1, r3
 1045              	.LVL88:
 190:../../../libDaisy/src/hid/midi.h ****                                         byte & kSystemRealTimeMask);
 1046              		.loc 11 190 37 view .LVU250
 1047 029e 85F89410 		strb	r1, [r5, #148]
 1048 02a2 05F10801 		add	r1, r5, #8
 1049 02a6 FFF7FEFF 		bl	memcpy
 1050              	.LVL89:
 1051              	.LBB389:
 1052              	.LBI389:
  44:../../../libDaisy/src/util/ringbuffer.h ****     {
 1053              		.loc 14 44 17 is_stmt 1 view .LVU251
 1054              	.L29:
 1055              	.LBB390:
  46:../../../libDaisy/src/util/ringbuffer.h ****             ;
 1056              		.loc 14 46 24 view .LVU252
 1057              	.LBB391:
 1058              	.LBI391:
  30:../../../libDaisy/src/util/ringbuffer.h ****     {
 1059              		.loc 14 30 19 view .LVU253
 1060              	.LBB392:
  32:../../../libDaisy/src/util/ringbuffer.h ****     }
 1061              		.loc 14 32 17 is_stmt 0 view .LVU254
 1062 02aa D4F89830 		ldr	r3, [r4, #152]
  32:../../../libDaisy/src/util/ringbuffer.h ****     }
 1063              		.loc 14 32 29 view .LVU255
 1064 02ae D4F89C20 		ldr	r2, [r4, #156]
 1065              	.LVL90:
  32:../../../libDaisy/src/util/ringbuffer.h ****     }
 1066              		.loc 14 32 40 view .LVU256
 1067 02b2 013B     		subs	r3, r3, #1
 1068 02b4 9B1A     		subs	r3, r3, r2
  32:../../../libDaisy/src/util/ringbuffer.h ****     }
 1069              		.loc 14 32 47 view .LVU257
 1070 02b6 DBB2     		uxtb	r3, r3
 1071              	.LBE392:
 1072              	.LBE391:
  46:../../../libDaisy/src/util/ringbuffer.h ****             ;
 1073              		.loc 14 46 24 view .LVU258
 1074 02b8 002B     		cmp	r3, #0
 1075 02ba F6D0     		beq	.L29
 1076 02bc CEE7     		b	.L78
 1077              	.LBE390:
 1078              	.LBE389:
 1079              		.cfi_endproc
 1080              	.LFE5212:
 1082 02be 00BF     		.section	.text.startup.main,"ax",%progbits
 1083              		.align	1
 1084              		.p2align 2,,3
 1085              		.global	main
 1086              		.syntax unified
 1087              		.thumb
ARM GAS  C:\Users\toesc\AppData\Local\Temp\ccOgcMME.s 			page 40


 1088              		.thumb_func
 1089              		.fpu fpv5-d16
 1091              	main:
 1092              	.LFB4780:
  59:adsr.cpp      **** 
  60:adsr.cpp      **** int main(void)
  61:adsr.cpp      **** {
 1093              		.loc 13 61 1 is_stmt 1 view -0
 1094              		.cfi_startproc
 1095              		@ args = 0, pretend = 0, frame = 96
 1096              		@ frame_needed = 0, uses_anonymous_args = 0
  62:adsr.cpp      ****     // initialize seed hardware and daisysp modules
  63:adsr.cpp      ****     float sample_rate;
 1097              		.loc 13 63 5 view .LVU260
  64:adsr.cpp      ****     hw.Configure();
 1098              		.loc 13 64 5 view .LVU261
  61:adsr.cpp      ****     // initialize seed hardware and daisysp modules
 1099              		.loc 13 61 1 is_stmt 0 view .LVU262
 1100 0000 2DE9F04F 		push	{r4, r5, r6, r7, r8, r9, r10, fp, lr}
 1101              		.cfi_def_cfa_offset 36
 1102              		.cfi_offset 4, -36
 1103              		.cfi_offset 5, -32
 1104              		.cfi_offset 6, -28
 1105              		.cfi_offset 7, -24
 1106              		.cfi_offset 8, -20
 1107              		.cfi_offset 9, -16
 1108              		.cfi_offset 10, -12
 1109              		.cfi_offset 11, -8
 1110              		.cfi_offset 14, -4
 1111              		.loc 13 64 17 view .LVU263
 1112 0004 D448     		ldr	r0, .L106
 1113              	.LBB491:
 1114              	.LBB492:
  47:../../../DaisySP/Source/Synthesis/oscillator.h ****         phase_     = 0.0f;
 1115              		.loc 2 47 20 view .LVU264
 1116 0006 4FF07C5A 		mov	r10, #1056964608
 1117              	.LBE492:
 1118              	.LBE491:
  65:adsr.cpp      ****     hw.Init();
  66:adsr.cpp      ****     hw.SetAudioBlockSize(4);
  67:adsr.cpp      ****     sample_rate = hw.AudioSampleRate();
  68:adsr.cpp      ****     
  69:adsr.cpp      ****     env.Init(sample_rate);
 1119              		.loc 13 69 13 view .LVU265
 1120 000a DFF8B893 		ldr	r9, .L106+108
 1121              	.LBB497:
 1122              	.LBB493:
  50:../../../DaisySP/Source/Synthesis/oscillator.h ****         eoc_       = true;
 1123              		.loc 2 50 20 view .LVU266
 1124 000e 0025     		movs	r5, #0
 1125              	.LBE493:
 1126              	.LBE497:
 1127              	.LBB498:
 1128              	.LBB499:
  97:../../../libDaisy/src/hid/midi.h **** 
 1129              		.loc 11 97 9 view .LVU267
 1130 0010 DFF88883 		ldr	r8, .L106+68
ARM GAS  C:\Users\toesc\AppData\Local\Temp\ccOgcMME.s 			page 41


 1131              	.LBE499:
 1132              	.LBE498:
 1133              	.LBB507:
 1134              	.LBB508:
  54:../../../DaisySP/Source/Synthesis/blosc.h ****     /** - uint8_t waveform: select between waveforms from enum above.
  55:../../../DaisySP/Source/Synthesis/blosc.h ****         - i.e. SetWaveform(BL_WAVEFORM_SAW); to set waveform to saw
  56:../../../DaisySP/Source/Synthesis/blosc.h ****     */
  57:../../../DaisySP/Source/Synthesis/blosc.h ****     inline void SetWaveform(uint8_t waveform) { mode_ = waveform; }
 1135              		.loc 5 57 55 view .LVU268
 1136 0014 4FF0020B 		mov	fp, #2
 1137              	.LBE508:
 1138              	.LBE507:
  70:adsr.cpp      ****     osc.Init(sample_rate);
  71:adsr.cpp      **** 
  72:adsr.cpp      ****        /** Initialize USB Midi 
  73:adsr.cpp      **** 		 *  by default this is set to use the built in (USB FS) peripheral.
  74:adsr.cpp      **** 		 * 
  75:adsr.cpp      **** 		 *  by setting midi_cfg.transport_config.periph = MidiUsbTransport::Config::EXTERNAL
  76:adsr.cpp      **** 		 *  the USB HS pins can be used (as FS) for MIDI 
  77:adsr.cpp      **** 		 */
  78:adsr.cpp      ****     MidiUsbHandler::Config midi_cfg;
  79:adsr.cpp      ****     midi_cfg.transport_config.periph = MidiUsbTransport::Config::INTERNAL;
  80:adsr.cpp      ****     midi.Init(midi_cfg);
  81:adsr.cpp      **** 
  82:adsr.cpp      ****     //Set envelope parameters
  83:adsr.cpp      ****     myrelease = 1;
 1139              		.loc 13 83 15 view .LVU269
 1140 0018 D04E     		ldr	r6, .L106+4
  84:adsr.cpp      ****     myattack = 1;
 1141              		.loc 13 84 14 view .LVU270
 1142 001a D14F     		ldr	r7, .L106+8
  61:adsr.cpp      ****     // initialize seed hardware and daisysp modules
 1143              		.loc 13 61 1 view .LVU271
 1144 001c 2DED028B 		vpush.64	{d8}
 1145              		.cfi_def_cfa_offset 44
 1146              		.cfi_offset 80, -44
 1147              		.cfi_offset 81, -40
 1148 0020 99B0     		sub	sp, sp, #100
 1149              		.cfi_def_cfa_offset 144
 1150              	.LBB511:
 1151              	.LBB494:
  45:../../../DaisySP/Source/Synthesis/oscillator.h ****         freq_      = 100.0f;
 1152              		.loc 2 45 27 view .LVU272
 1153 0022 F7EE008A 		vmov.f32	s17, #1.0e+0
 1154              	.LBE494:
 1155              	.LBE511:
  64:adsr.cpp      ****     hw.Init();
 1156              		.loc 13 64 17 view .LVU273
 1157 0026 FFF7FEFF 		bl	_ZN5daisy9DaisySeed9ConfigureEv
 1158              	.LVL91:
  65:adsr.cpp      ****     hw.SetAudioBlockSize(4);
 1159              		.loc 13 65 5 is_stmt 1 view .LVU274
  65:adsr.cpp      ****     hw.SetAudioBlockSize(4);
 1160              		.loc 13 65 12 is_stmt 0 view .LVU275
 1161 002a 0021     		movs	r1, #0
 1162 002c CA48     		ldr	r0, .L106
 1163 002e FFF7FEFF 		bl	_ZN5daisy9DaisySeed4InitEb
ARM GAS  C:\Users\toesc\AppData\Local\Temp\ccOgcMME.s 			page 42


 1164              	.LVL92:
  66:adsr.cpp      ****     sample_rate = hw.AudioSampleRate();
 1165              		.loc 13 66 5 is_stmt 1 view .LVU276
  66:adsr.cpp      ****     sample_rate = hw.AudioSampleRate();
 1166              		.loc 13 66 25 is_stmt 0 view .LVU277
 1167 0032 0421     		movs	r1, #4
 1168 0034 C848     		ldr	r0, .L106
 1169 0036 FFF7FEFF 		bl	_ZN5daisy9DaisySeed17SetAudioBlockSizeEj
 1170              	.LVL93:
  67:adsr.cpp      ****     
 1171              		.loc 13 67 5 is_stmt 1 view .LVU278
  67:adsr.cpp      ****     
 1172              		.loc 13 67 37 is_stmt 0 view .LVU279
 1173 003a C748     		ldr	r0, .L106
 1174 003c FFF7FEFF 		bl	_ZN5daisy9DaisySeed15AudioSampleRateEv
 1175              	.LVL94:
 1176 0040 B0EE408A 		vmov.f32	s16, s0
 1177              	.LVL95:
  69:adsr.cpp      ****     osc.Init(sample_rate);
 1178              		.loc 13 69 5 is_stmt 1 view .LVU280
  69:adsr.cpp      ****     osc.Init(sample_rate);
 1179              		.loc 13 69 13 is_stmt 0 view .LVU281
 1180 0044 0121     		movs	r1, #1
 1181 0046 4846     		mov	r0, r9
 1182 0048 FFF7FEFF 		bl	_ZN7daisysp4Adsr4InitEfi
 1183              	.LVL96:
  70:adsr.cpp      **** 
 1184              		.loc 13 70 5 is_stmt 1 view .LVU282
 1185              	.LBB512:
 1186              	.LBI491:
  42:../../../DaisySP/Source/Synthesis/oscillator.h ****     {
 1187              		.loc 2 42 10 view .LVU283
 1188              	.LBB495:
  44:../../../DaisySP/Source/Synthesis/oscillator.h ****         sr_recip_  = 1.0f / sample_rate;
 1189              		.loc 2 44 9 view .LVU284
  44:../../../DaisySP/Source/Synthesis/oscillator.h ****         sr_recip_  = 1.0f / sample_rate;
 1190              		.loc 2 44 20 is_stmt 0 view .LVU285
 1191 004c C54A     		ldr	r2, .L106+12
  45:../../../DaisySP/Source/Synthesis/oscillator.h ****         freq_      = 100.0f;
 1192              		.loc 2 45 27 view .LVU286
 1193 004e C8EE887A 		vdiv.f32	s15, s17, s16
  48:../../../DaisySP/Source/Synthesis/oscillator.h ****         phase_inc_ = CalcPhaseInc(freq_);
 1194              		.loc 2 48 20 view .LVU287
 1195 0052 0023     		movs	r3, #0
  46:../../../DaisySP/Source/Synthesis/oscillator.h ****         amp_       = 0.5f;
 1196              		.loc 2 46 20 view .LVU288
 1197 0054 9FEDC40A 		vldr.32	s0, .L106+16
  49:../../../DaisySP/Source/Synthesis/oscillator.h ****         waveform_  = WAVE_SIN;
 1198              		.loc 2 49 34 view .LVU289
 1199 0058 1046     		mov	r0, r2
  45:../../../DaisySP/Source/Synthesis/oscillator.h ****         freq_      = 100.0f;
 1200              		.loc 2 45 20 view .LVU290
 1201 005a 1446     		mov	r4, r2
  47:../../../DaisySP/Source/Synthesis/oscillator.h ****         phase_     = 0.0f;
 1202              		.loc 2 47 20 view .LVU291
 1203 005c C2F804A0 		str	r10, [r2, #4]	@ float
  48:../../../DaisySP/Source/Synthesis/oscillator.h ****         phase_inc_ = CalcPhaseInc(freq_);
ARM GAS  C:\Users\toesc\AppData\Local\Temp\ccOgcMME.s 			page 43


 1204              		.loc 2 48 20 view .LVU292
 1205 0060 5361     		str	r3, [r2, #20]	@ float
  44:../../../DaisySP/Source/Synthesis/oscillator.h ****         sr_recip_  = 1.0f / sample_rate;
 1206              		.loc 2 44 20 view .LVU293
 1207 0062 82ED038A 		vstr.32	s16, [r2, #12]
  45:../../../DaisySP/Source/Synthesis/oscillator.h ****         freq_      = 100.0f;
 1208              		.loc 2 45 9 is_stmt 1 view .LVU294
  46:../../../DaisySP/Source/Synthesis/oscillator.h ****         amp_       = 0.5f;
 1209              		.loc 2 46 20 is_stmt 0 view .LVU295
 1210 0066 82ED020A 		vstr.32	s0, [r2, #8]
  45:../../../DaisySP/Source/Synthesis/oscillator.h ****         freq_      = 100.0f;
 1211              		.loc 2 45 20 view .LVU296
 1212 006a C2ED047A 		vstr.32	s15, [r2, #16]
  46:../../../DaisySP/Source/Synthesis/oscillator.h ****         amp_       = 0.5f;
 1213              		.loc 2 46 9 is_stmt 1 view .LVU297
  47:../../../DaisySP/Source/Synthesis/oscillator.h ****         phase_     = 0.0f;
 1214              		.loc 2 47 9 view .LVU298
  48:../../../DaisySP/Source/Synthesis/oscillator.h ****         phase_inc_ = CalcPhaseInc(freq_);
 1215              		.loc 2 48 9 view .LVU299
  49:../../../DaisySP/Source/Synthesis/oscillator.h ****         waveform_  = WAVE_SIN;
 1216              		.loc 2 49 9 view .LVU300
  49:../../../DaisySP/Source/Synthesis/oscillator.h ****         waveform_  = WAVE_SIN;
 1217              		.loc 2 49 34 is_stmt 0 view .LVU301
 1218 006e FFF7FEFF 		bl	_ZN7daisysp10Oscillator12CalcPhaseIncEf
 1219              	.LVL97:
  52:../../../DaisySP/Source/Synthesis/oscillator.h ****     }
 1220              		.loc 2 52 20 view .LVU302
 1221 0072 40F20113 		movw	r3, #257
  49:../../../DaisySP/Source/Synthesis/oscillator.h ****         waveform_  = WAVE_SIN;
 1222              		.loc 2 49 20 view .LVU303
 1223 0076 84ED060A 		vstr.32	s0, [r4, #24]
  50:../../../DaisySP/Source/Synthesis/oscillator.h ****         eoc_       = true;
 1224              		.loc 2 50 9 is_stmt 1 view .LVU304
  50:../../../DaisySP/Source/Synthesis/oscillator.h ****         eoc_       = true;
 1225              		.loc 2 50 20 is_stmt 0 view .LVU305
 1226 007a 2570     		strb	r5, [r4]
  51:../../../DaisySP/Source/Synthesis/oscillator.h ****         eor_       = true;
 1227              		.loc 2 51 9 is_stmt 1 view .LVU306
  52:../../../DaisySP/Source/Synthesis/oscillator.h ****     }
 1228              		.loc 2 52 9 view .LVU307
 1229              	.LBE495:
 1230              	.LBE512:
 1231              	.LBB513:
 1232              	.LBB503:
  99:../../../libDaisy/src/hid/midi.h **** 
 1233              		.loc 11 99 24 is_stmt 0 view .LVU308
 1234 007c 2946     		mov	r1, r5
 1235              	.LBE503:
 1236              	.LBE513:
 1237              	.LBB514:
 1238              	.LBB496:
  52:../../../DaisySP/Source/Synthesis/oscillator.h ****     }
 1239              		.loc 2 52 20 view .LVU309
 1240 007e A384     		strh	r3, [r4, #36]	@ movhi
 1241              	.LVL98:
  52:../../../DaisySP/Source/Synthesis/oscillator.h ****     }
 1242              		.loc 2 52 20 view .LVU310
ARM GAS  C:\Users\toesc\AppData\Local\Temp\ccOgcMME.s 			page 44


 1243              	.LBE496:
 1244              	.LBE514:
  78:adsr.cpp      ****     midi_cfg.transport_config.periph = MidiUsbTransport::Config::INTERNAL;
 1245              		.loc 13 78 5 is_stmt 1 view .LVU311
  79:adsr.cpp      ****     midi.Init(midi_cfg);
 1246              		.loc 13 79 5 view .LVU312
  80:adsr.cpp      **** 
 1247              		.loc 13 80 5 view .LVU313
 1248              	.LBB515:
 1249              	.LBI498:
  95:../../../libDaisy/src/hid/midi.h ****     {
 1250              		.loc 11 95 10 view .LVU314
 1251              	.LBB504:
  97:../../../libDaisy/src/hid/midi.h **** 
 1252              		.loc 11 97 9 is_stmt 0 view .LVU315
 1253 0080 08F51044 		add	r4, r8, #36864
  99:../../../libDaisy/src/hid/midi.h **** 
 1254              		.loc 11 99 24 view .LVU316
 1255 0084 04F1A800 		add	r0, r4, #168
  97:../../../libDaisy/src/hid/midi.h **** 
 1256              		.loc 11 97 9 view .LVU317
 1257 0088 84F8A550 		strb	r5, [r4, #165]
  99:../../../libDaisy/src/hid/midi.h **** 
 1258              		.loc 11 99 24 view .LVU318
 1259 008c FFF7FEFF 		bl	_ZN5daisy16MidiUsbTransport4InitENS0_6ConfigE
 1260              	.LVL99:
 1261              	.LBB500:
 1262              	.LBI500:
  24:../../../libDaisy/src/util/ringbuffer.h **** 
 1263              		.loc 14 24 17 is_stmt 1 view .LVU319
 1264              	.LBE500:
 102:../../../libDaisy/src/hid/midi.h ****         pstate_                = ParserEmpty;
 1265              		.loc 11 102 32 is_stmt 0 view .LVU320
 1266 0090 0A23     		movs	r3, #10
 1267              	.LBE504:
 1268              	.LBE515:
  85:adsr.cpp      ****     env.SetTime(ADSR_SEG_ATTACK, myattack);
 1269              		.loc 13 85 16 view .LVU321
 1270 0092 4846     		mov	r0, r9
 1271 0094 B0EE680A 		vmov.f32	s0, s17
 1272 0098 0121     		movs	r1, #1
 1273              	.LBB516:
 1274              	.LBB505:
 1275              	.LBB502:
 1276              	.LBB501:
  24:../../../libDaisy/src/util/ringbuffer.h **** 
 1277              		.loc 14 24 49 view .LVU322
 1278 009a C4F89C50 		str	r5, [r4, #156]
  24:../../../libDaisy/src/util/ringbuffer.h **** 
 1279              		.loc 14 24 36 view .LVU323
 1280 009e C4F89850 		str	r5, [r4, #152]
 1281              	.LVL100:
  24:../../../libDaisy/src/util/ringbuffer.h **** 
 1282              		.loc 14 24 36 view .LVU324
 1283              	.LBE501:
 1284              	.LBE502:
 1285              	.LBE505:
ARM GAS  C:\Users\toesc\AppData\Local\Temp\ccOgcMME.s 			page 45


 1286              	.LBE516:
  83:adsr.cpp      ****     myattack = 1;
 1287              		.loc 13 83 5 is_stmt 1 view .LVU325
 1288              	.LBB517:
 1289              	.LBB506:
 102:../../../libDaisy/src/hid/midi.h ****         pstate_                = ParserEmpty;
 1290              		.loc 11 102 32 is_stmt 0 view .LVU326
 1291 00a2 88F80830 		strb	r3, [r8, #8]
 103:../../../libDaisy/src/hid/midi.h ****     }
 1292              		.loc 11 103 32 view .LVU327
 1293 00a6 88F80450 		strb	r5, [r8, #4]
 1294              	.LBE506:
 1295              	.LBE517:
  83:adsr.cpp      ****     myattack = 1;
 1296              		.loc 13 83 15 view .LVU328
 1297 00aa C6ED008A 		vstr.32	s17, [r6]
  84:adsr.cpp      ****     env.SetTime(ADSR_SEG_ATTACK, myattack);
 1298              		.loc 13 84 5 is_stmt 1 view .LVU329
  84:adsr.cpp      ****     env.SetTime(ADSR_SEG_ATTACK, myattack);
 1299              		.loc 13 84 14 is_stmt 0 view .LVU330
 1300 00ae C7ED008A 		vstr.32	s17, [r7]
 1301              		.loc 13 85 5 is_stmt 1 view .LVU331
 1302              		.loc 13 85 16 is_stmt 0 view .LVU332
 1303 00b2 FFF7FEFF 		bl	_ZN7daisysp4Adsr7SetTimeEif
 1304              	.LVL101:
  86:adsr.cpp      ****     env.SetTime(ADSR_SEG_DECAY, .25);
 1305              		.loc 13 86 5 is_stmt 1 view .LVU333
 1306              		.loc 13 86 16 is_stmt 0 view .LVU334
 1307 00b6 4846     		mov	r0, r9
 1308 00b8 B5EE000A 		vmov.f32	s0, #2.5e-1
 1309 00bc 0221     		movs	r1, #2
 1310 00be FFF7FEFF 		bl	_ZN7daisysp4Adsr7SetTimeEif
 1311              	.LVL102:
  87:adsr.cpp      ****     env.SetTime(ADSR_SEG_RELEASE, myrelease);
 1312              		.loc 13 87 5 is_stmt 1 view .LVU335
 1313              		.loc 13 87 16 is_stmt 0 view .LVU336
 1314 00c2 0421     		movs	r1, #4
 1315 00c4 4846     		mov	r0, r9
 1316 00c6 96ED000A 		vldr.32	s0, [r6]
 1317 00ca FFF7FEFF 		bl	_ZN7daisysp4Adsr7SetTimeEif
 1318              	.LVL103:
  88:adsr.cpp      **** 
  89:adsr.cpp      ****     env.SetSustainLevel(.5);
 1319              		.loc 13 89 5 is_stmt 1 view .LVU337
 1320              	.LBB518:
 1321              	.LBI518:
  38:../../../DaisySP/Source/Control/adsr.h ****     /** Initializes the Adsr module.
  39:../../../DaisySP/Source/Control/adsr.h ****         \param sample_rate - The sample rate of the audio engine being run. 
  40:../../../DaisySP/Source/Control/adsr.h ****     */
  41:../../../DaisySP/Source/Control/adsr.h ****     void Init(float sample_rate, int blockSize = 1);
  42:../../../DaisySP/Source/Control/adsr.h ****     /**
  43:../../../DaisySP/Source/Control/adsr.h ****      \function Retrigger forces the envelope back to attack phase
  44:../../../DaisySP/Source/Control/adsr.h ****      \param hard  resets the history to zero, results in a click.
  45:../../../DaisySP/Source/Control/adsr.h ****      */
  46:../../../DaisySP/Source/Control/adsr.h ****     void Retrigger(bool hard);
  47:../../../DaisySP/Source/Control/adsr.h ****     /** Processes one sample through the filter and returns one sample.
  48:../../../DaisySP/Source/Control/adsr.h ****         \param gate - trigger the envelope, hold it to sustain 
ARM GAS  C:\Users\toesc\AppData\Local\Temp\ccOgcMME.s 			page 46


  49:../../../DaisySP/Source/Control/adsr.h ****     */
  50:../../../DaisySP/Source/Control/adsr.h ****     float Process(bool gate);
  51:../../../DaisySP/Source/Control/adsr.h ****     /** Sets time
  52:../../../DaisySP/Source/Control/adsr.h ****         Set time per segment in seconds
  53:../../../DaisySP/Source/Control/adsr.h ****     */
  54:../../../DaisySP/Source/Control/adsr.h ****     void SetTime(int seg, float time);
  55:../../../DaisySP/Source/Control/adsr.h ****     void SetAttackTime(float timeInS, float shape = 0.0f);
  56:../../../DaisySP/Source/Control/adsr.h ****     void SetDecayTime(float timeInS);
  57:../../../DaisySP/Source/Control/adsr.h ****     void SetReleaseTime(float timeInS);
  58:../../../DaisySP/Source/Control/adsr.h **** 
  59:../../../DaisySP/Source/Control/adsr.h ****   private:
  60:../../../DaisySP/Source/Control/adsr.h ****     void SetTimeConstant(float timeInS, float& time, float& coeff);
  61:../../../DaisySP/Source/Control/adsr.h **** 
  62:../../../DaisySP/Source/Control/adsr.h ****   public:
  63:../../../DaisySP/Source/Control/adsr.h ****     /** Sustain level
  64:../../../DaisySP/Source/Control/adsr.h ****         \param sus_level - sets sustain level, 0...1.0
  65:../../../DaisySP/Source/Control/adsr.h ****     */
  66:../../../DaisySP/Source/Control/adsr.h ****     inline void SetSustainLevel(float sus_level)
 1322              		.loc 1 66 17 view .LVU338
 1323              	.LBB519:
  67:../../../DaisySP/Source/Control/adsr.h ****     {
  68:../../../DaisySP/Source/Control/adsr.h ****         sus_level = (sus_level <= 0.f) ? -0.01f // forces envelope into idle
 1324              		.loc 1 68 9 view .LVU339
  69:../../../DaisySP/Source/Control/adsr.h ****                                        : (sus_level > 1.f) ? 1.f : sus_level;
  70:../../../DaisySP/Source/Control/adsr.h ****         sus_level_ = sus_level;
 1325              		.loc 1 70 9 view .LVU340
 1326              	.LBE519:
 1327              	.LBE518:
  90:adsr.cpp      **** 
  91:adsr.cpp      ****     primary.Init( sample_rate );
 1328              		.loc 13 91 17 is_stmt 0 view .LVU341
 1329 00ce B0EE480A 		vmov.f32	s0, s16
 1330 00d2 A648     		ldr	r0, .L106+20
 1331              	.LBB521:
 1332              	.LBB520:
 1333              		.loc 1 70 20 view .LVU342
 1334 00d4 C9F800A0 		str	r10, [r9]	@ float
 1335              	.LVL104:
 1336              		.loc 1 70 20 view .LVU343
 1337              	.LBE520:
 1338              	.LBE521:
 1339              		.loc 13 91 5 is_stmt 1 view .LVU344
 1340              		.loc 13 91 17 is_stmt 0 view .LVU345
 1341 00d8 FFF7FEFF 		bl	_ZN7daisysp5BlOsc4InitEf
 1342              	.LVL105:
  92:adsr.cpp      ****     primary.SetWaveform( primary.WAVE_SQUARE);
 1343              		.loc 13 92 5 is_stmt 1 view .LVU346
 1344              	.LBB522:
 1345              	.LBI507:
 1346              		.loc 5 57 17 view .LVU347
 1347              	.LBB509:
 1348              		.loc 5 57 49 view .LVU348
 1349              		.loc 5 57 55 is_stmt 0 view .LVU349
 1350 00dc A449     		ldr	r1, .L106+24
 1351              	.LBE509:
 1352              	.LBE522:
 1353              	.LBB523:
ARM GAS  C:\Users\toesc\AppData\Local\Temp\ccOgcMME.s 			page 47


 1354              	.LBB524:
  47:../../../DaisySP/Source/Synthesis/blosc.h ****     /** - Float amp: Set oscillator amplitude, 0 to 1.
 1355              		.loc 5 47 45 view .LVU350
 1356 00de A54B     		ldr	r3, .L106+28
 1357              	.LBE524:
 1358              	.LBE523:
 1359              	.LBB527:
 1360              	.LBB528:
  68:../../../DaisySP/Source/Synthesis/oscillator.h ****     /** Sets the waveform to be synthesized by the Process() function.
  69:../../../DaisySP/Source/Synthesis/oscillator.h ****     */
  70:../../../DaisySP/Source/Synthesis/oscillator.h ****     inline void SetWaveform(const uint8_t wf)
  71:../../../DaisySP/Source/Synthesis/oscillator.h ****     {
  72:../../../DaisySP/Source/Synthesis/oscillator.h ****         waveform_ = wf < WAVE_LAST ? wf : WAVE_SIN;
 1361              		.loc 2 72 19 view .LVU351
 1362 00e0 A04A     		ldr	r2, .L106+12
 1363              	.LBE528:
 1364              	.LBE527:
 1365              	.LBB531:
 1366              	.LBB525:
  47:../../../DaisySP/Source/Synthesis/blosc.h ****     /** - Float amp: Set oscillator amplitude, 0 to 1.
 1367              		.loc 5 47 45 view .LVU352
 1368 00e2 0B62     		str	r3, [r1, #32]	@ float
 1369              	.LBE525:
 1370              	.LBE531:
 1371              	.LBB532:
 1372              	.LBB533:
  60:../../../DaisySP/Source/Synthesis/oscillator.h ****         phase_inc_ = CalcPhaseInc(f);
 1373              		.loc 2 60 20 view .LVU353
 1374 00e4 9FEDA40A 		vldr.32	s0, .L106+32
  61:../../../DaisySP/Source/Synthesis/oscillator.h ****     }
 1375              		.loc 2 61 34 view .LVU354
 1376 00e8 1046     		mov	r0, r2
 1377              	.LBE533:
 1378              	.LBE532:
 1379              	.LBB537:
 1380              	.LBB538:
  50:../../../DaisySP/Source/Synthesis/blosc.h ****     /** - Float pw: Set square osc pulsewidth, 0 to 1. (no thru 0 at the moment)
 1381              		.loc 5 50 42 view .LVU355
 1382 00ea A44B     		ldr	r3, .L106+36
 1383              	.LBE538:
 1384              	.LBE537:
 1385              	.LBB540:
 1386              	.LBB510:
 1387              		.loc 5 57 55 view .LVU356
 1388 00ec 81F844B0 		strb	fp, [r1, #68]
 1389              	.LVL106:
 1390              		.loc 5 57 55 view .LVU357
 1391              	.LBE510:
 1392              	.LBE540:
  93:adsr.cpp      ****     primary.SetFreq( 440 );
 1393              		.loc 13 93 5 is_stmt 1 view .LVU358
 1394              	.LBB541:
 1395              	.LBI523:
  47:../../../DaisySP/Source/Synthesis/blosc.h ****     /** - Float amp: Set oscillator amplitude, 0 to 1.
 1396              		.loc 5 47 17 view .LVU359
 1397              	.LBB526:
  47:../../../DaisySP/Source/Synthesis/blosc.h ****     /** - Float amp: Set oscillator amplitude, 0 to 1.
ARM GAS  C:\Users\toesc\AppData\Local\Temp\ccOgcMME.s 			page 48


 1398              		.loc 5 47 39 view .LVU360
  47:../../../DaisySP/Source/Synthesis/blosc.h ****     /** - Float amp: Set oscillator amplitude, 0 to 1.
 1399              		.loc 5 47 39 is_stmt 0 view .LVU361
 1400              	.LBE526:
 1401              	.LBE541:
  94:adsr.cpp      ****     primary.SetAmp( 0.325 ); 
 1402              		.loc 13 94 5 is_stmt 1 view .LVU362
 1403              	.LBB542:
 1404              	.LBI537:
  50:../../../DaisySP/Source/Synthesis/blosc.h ****     /** - Float pw: Set square osc pulsewidth, 0 to 1. (no thru 0 at the moment)
 1405              		.loc 5 50 17 view .LVU363
 1406              	.LBB539:
  50:../../../DaisySP/Source/Synthesis/blosc.h ****     /** - Float pw: Set square osc pulsewidth, 0 to 1. (no thru 0 at the moment)
 1407              		.loc 5 50 37 view .LVU364
  50:../../../DaisySP/Source/Synthesis/blosc.h ****     /** - Float pw: Set square osc pulsewidth, 0 to 1. (no thru 0 at the moment)
 1408              		.loc 5 50 42 is_stmt 0 view .LVU365
 1409 00f0 4B62     		str	r3, [r1, #36]	@ float
 1410              	.LVL107:
  50:../../../DaisySP/Source/Synthesis/blosc.h ****     /** - Float pw: Set square osc pulsewidth, 0 to 1. (no thru 0 at the moment)
 1411              		.loc 5 50 42 view .LVU366
 1412              	.LBE539:
 1413              	.LBE542:
  95:adsr.cpp      ****     // Set parameters for oscillator
  96:adsr.cpp      ****     osc.SetWaveform(osc.WAVE_SIN);
 1414              		.loc 13 96 5 is_stmt 1 view .LVU367
 1415              	.LBB543:
 1416              	.LBI527:
  70:../../../DaisySP/Source/Synthesis/oscillator.h ****     {
 1417              		.loc 2 70 17 view .LVU368
 1418              	.LBB529:
 1419              		.loc 2 72 9 view .LVU369
 1420              		.loc 2 72 9 is_stmt 0 view .LVU370
 1421              	.LBE529:
 1422              	.LBE543:
  97:adsr.cpp      ****     osc.SetFreq(330);
 1423              		.loc 13 97 5 is_stmt 1 view .LVU371
 1424              	.LBB544:
 1425              	.LBI532:
  58:../../../DaisySP/Source/Synthesis/oscillator.h ****     {
 1426              		.loc 2 58 17 view .LVU372
 1427              	.LBB534:
  60:../../../DaisySP/Source/Synthesis/oscillator.h ****         phase_inc_ = CalcPhaseInc(f);
 1428              		.loc 2 60 9 view .LVU373
  61:../../../DaisySP/Source/Synthesis/oscillator.h ****     }
 1429              		.loc 2 61 9 view .LVU374
 1430              	.LBE534:
 1431              	.LBE544:
  98:adsr.cpp      ****     osc.SetAmp(0.15);
  99:adsr.cpp      **** 
 100:adsr.cpp      ****     filter.Init(sample_rate);
 1432              		.loc 13 100 16 is_stmt 0 view .LVU375
 1433 00f2 DFF8E0A2 		ldr	r10, .L106+124
 1434              	.LBB545:
 1435              	.LBB530:
 1436              		.loc 2 72 19 view .LVU376
 1437 00f6 1570     		strb	r5, [r2]
 1438              	.LBE530:
ARM GAS  C:\Users\toesc\AppData\Local\Temp\ccOgcMME.s 			page 49


 1439              	.LBE545:
 1440              	.LBB546:
 1441              	.LBB535:
  60:../../../DaisySP/Source/Synthesis/oscillator.h ****         phase_inc_ = CalcPhaseInc(f);
 1442              		.loc 2 60 20 view .LVU377
 1443 00f8 82ED020A 		vstr.32	s0, [r2, #8]
  61:../../../DaisySP/Source/Synthesis/oscillator.h ****     }
 1444              		.loc 2 61 34 view .LVU378
 1445 00fc FFF7FEFF 		bl	_ZN7daisysp10Oscillator12CalcPhaseIncEf
 1446              	.LVL108:
  61:../../../DaisySP/Source/Synthesis/oscillator.h ****     }
 1447              		.loc 2 61 20 view .LVU379
 1448 0100 984A     		ldr	r2, .L106+12
 1449              	.LBE535:
 1450              	.LBE546:
 1451              		.loc 13 100 16 view .LVU380
 1452 0102 5046     		mov	r0, r10
 1453              	.LBB547:
 1454              	.LBB548:
  67:../../../DaisySP/Source/Synthesis/oscillator.h ****     /** Sets the waveform to be synthesized by the Process() function.
 1455              		.loc 2 67 46 view .LVU381
 1456 0104 9E4B     		ldr	r3, .L106+40
 1457              	.LBE548:
 1458              	.LBE547:
 1459              	.LBB551:
 1460              	.LBB536:
  61:../../../DaisySP/Source/Synthesis/oscillator.h ****     }
 1461              		.loc 2 61 20 view .LVU382
 1462 0106 82ED060A 		vstr.32	s0, [r2, #24]
 1463              	.LVL109:
  61:../../../DaisySP/Source/Synthesis/oscillator.h ****     }
 1464              		.loc 2 61 20 view .LVU383
 1465              	.LBE536:
 1466              	.LBE551:
  98:adsr.cpp      **** 
 1467              		.loc 13 98 5 is_stmt 1 view .LVU384
 1468              	.LBB552:
 1469              	.LBI547:
  67:../../../DaisySP/Source/Synthesis/oscillator.h ****     /** Sets the waveform to be synthesized by the Process() function.
 1470              		.loc 2 67 17 view .LVU385
 1471              	.LBB549:
  67:../../../DaisySP/Source/Synthesis/oscillator.h ****     /** Sets the waveform to be synthesized by the Process() function.
 1472              		.loc 2 67 41 view .LVU386
 1473              	.LBE549:
 1474              	.LBE552:
 1475              		.loc 13 100 16 is_stmt 0 view .LVU387
 1476 010a B0EE480A 		vmov.f32	s0, s16
 1477              	.LBB553:
 1478              	.LBB550:
  67:../../../DaisySP/Source/Synthesis/oscillator.h ****     /** Sets the waveform to be synthesized by the Process() function.
 1479              		.loc 2 67 46 view .LVU388
 1480 010e 5360     		str	r3, [r2, #4]	@ float
 1481              	.LVL110:
  67:../../../DaisySP/Source/Synthesis/oscillator.h ****     /** Sets the waveform to be synthesized by the Process() function.
 1482              		.loc 2 67 46 view .LVU389
 1483              	.LBE550:
 1484              	.LBE553:
ARM GAS  C:\Users\toesc\AppData\Local\Temp\ccOgcMME.s 			page 50


 1485              		.loc 13 100 5 is_stmt 1 view .LVU390
 1486              		.loc 13 100 16 is_stmt 0 view .LVU391
 1487 0110 FFF7FEFF 		bl	_ZN7daisysp10MoogLadder4InitEf
 1488              	.LVL111:
 101:adsr.cpp      ****     filter.SetFreq( 880 );
 1489              		.loc 13 101 5 is_stmt 1 view .LVU392
 1490              	.LBB554:
 1491              	.LBI554:
  22:../../../DaisySP/Source/Filters/moogladder.h ****     /** Initializes the MoogLadder module.
  23:../../../DaisySP/Source/Filters/moogladder.h ****         sample_rate - The sample rate of the audio engine being run. 
  24:../../../DaisySP/Source/Filters/moogladder.h ****     */
  25:../../../DaisySP/Source/Filters/moogladder.h ****     void Init(float sample_rate);
  26:../../../DaisySP/Source/Filters/moogladder.h **** 
  27:../../../DaisySP/Source/Filters/moogladder.h **** 
  28:../../../DaisySP/Source/Filters/moogladder.h ****     /** Processes the lowpass filter
  29:../../../DaisySP/Source/Filters/moogladder.h ****     */
  30:../../../DaisySP/Source/Filters/moogladder.h ****     float Process(float in);
  31:../../../DaisySP/Source/Filters/moogladder.h **** 
  32:../../../DaisySP/Source/Filters/moogladder.h ****     /** 
  33:../../../DaisySP/Source/Filters/moogladder.h ****         Sets the cutoff frequency or half-way point of the filter.
  34:../../../DaisySP/Source/Filters/moogladder.h ****         Arguments
  35:../../../DaisySP/Source/Filters/moogladder.h ****         - freq - frequency value in Hz. Range: Any positive value.
  36:../../../DaisySP/Source/Filters/moogladder.h ****     */
  37:../../../DaisySP/Source/Filters/moogladder.h ****     inline void SetFreq(float freq) { freq_ = freq; }
 1492              		.loc 4 37 17 view .LVU393
 1493              	.LBB555:
 1494              		.loc 4 37 39 view .LVU394
 1495              		.loc 4 37 45 is_stmt 0 view .LVU395
 1496 0114 9B4B     		ldr	r3, .L106+44
 1497              	.LBE555:
 1498              	.LBE554:
 102:adsr.cpp      ****     filter.SetRes( 0.7 );
 103:adsr.cpp      **** 
 104:adsr.cpp      **** //setup reverb
 105:adsr.cpp      ****     verb.Init(sample_rate);
 1499              		.loc 13 105 14 view .LVU396
 1500 0116 B0EE480A 		vmov.f32	s0, s16
 1501 011a DFF8BC92 		ldr	r9, .L106+128
 1502              	.LBB557:
 1503              	.LBB556:
 1504              		.loc 4 37 45 view .LVU397
 1505 011e CAF80830 		str	r3, [r10, #8]	@ float
 1506              	.LVL112:
 1507              		.loc 4 37 45 view .LVU398
 1508              	.LBE556:
 1509              	.LBE557:
 102:adsr.cpp      ****     filter.SetRes( 0.7 );
 1510              		.loc 13 102 5 is_stmt 1 view .LVU399
 1511              	.LBB558:
 1512              	.LBI558:
  38:../../../DaisySP/Source/Filters/moogladder.h ****     /** 
  39:../../../DaisySP/Source/Filters/moogladder.h ****         Sets the resonance of the filter.
  40:../../../DaisySP/Source/Filters/moogladder.h ****     */
  41:../../../DaisySP/Source/Filters/moogladder.h ****     inline void SetRes(float res) { res_ = res; }
 1513              		.loc 4 41 17 view .LVU400
 1514              	.LBB559:
 1515              		.loc 4 41 37 view .LVU401
ARM GAS  C:\Users\toesc\AppData\Local\Temp\ccOgcMME.s 			page 51


 1516              		.loc 4 41 42 is_stmt 0 view .LVU402
 1517 0122 994B     		ldr	r3, .L106+48
 1518              	.LBE559:
 1519              	.LBE558:
 1520              		.loc 13 105 14 view .LVU403
 1521 0124 4846     		mov	r0, r9
 1522              	.LBB561:
 1523              	.LBB560:
 1524              		.loc 4 41 42 view .LVU404
 1525 0126 CAF80430 		str	r3, [r10, #4]	@ float
 1526              	.LVL113:
 1527              		.loc 4 41 42 view .LVU405
 1528              	.LBE560:
 1529              	.LBE561:
 1530              		.loc 13 105 5 is_stmt 1 view .LVU406
 1531              		.loc 13 105 14 is_stmt 0 view .LVU407
 1532 012a FFF7FEFF 		bl	_ZN7daisysp8ReverbSc4InitEf
 1533              	.LVL114:
 106:adsr.cpp      ****     verb.SetFeedback(0.9f);
 1534              		.loc 13 106 5 is_stmt 1 view .LVU408
 1535              	.LBB562:
 1536              	.LBI562:
  42:../../../DaisySP/Source/Effects/reverbsc.h ****     /** Initializes the reverb module, and sets the sample_rate at which the Process function will 
  43:../../../DaisySP/Source/Effects/reverbsc.h ****         Returns 0 if all good, or 1 if it runs out of delay times exceed maximum allowed.
  44:../../../DaisySP/Source/Effects/reverbsc.h ****     */
  45:../../../DaisySP/Source/Effects/reverbsc.h ****     int Init(float sample_rate);
  46:../../../DaisySP/Source/Effects/reverbsc.h **** 
  47:../../../DaisySP/Source/Effects/reverbsc.h ****     /** Process the input through the reverb, and updates values of out1, and out2 with the new pro
  48:../../../DaisySP/Source/Effects/reverbsc.h ****     */
  49:../../../DaisySP/Source/Effects/reverbsc.h ****     int Process(const float &in1, const float &in2, float *out1, float *out2);
  50:../../../DaisySP/Source/Effects/reverbsc.h **** 
  51:../../../DaisySP/Source/Effects/reverbsc.h ****     /** controls the reverb time. reverb tail becomes infinite when set to 1.0
  52:../../../DaisySP/Source/Effects/reverbsc.h ****         \param fb - sets reverb time. range: 0.0 to 1.0
  53:../../../DaisySP/Source/Effects/reverbsc.h ****     */
  54:../../../DaisySP/Source/Effects/reverbsc.h ****     inline void SetFeedback(const float &fb) { feedback_ = fb; }
 1537              		.loc 3 54 17 view .LVU409
 1538              	.LBB563:
 1539              		.loc 3 54 48 view .LVU410
 1540              		.loc 3 54 58 is_stmt 0 view .LVU411
 1541 012e 974B     		ldr	r3, .L106+52
 1542              	.LBE563:
 1543              	.LBE562:
 107:adsr.cpp      ****     verb.SetLpFreq(18000.0f);
 108:adsr.cpp      ****     
 109:adsr.cpp      **** 
 110:adsr.cpp      ****     // start callback
 111:adsr.cpp      ****     hw.StartAudio(AudioCallback);
 1544              		.loc 13 111 18 view .LVU412
 1545 0130 9749     		ldr	r1, .L106+56
 1546              	.LBB565:
 1547              	.LBB564:
 1548              		.loc 3 54 58 view .LVU413
 1549 0132 C9F80030 		str	r3, [r9]	@ float
 1550              	.LVL115:
 1551              		.loc 3 54 58 view .LVU414
 1552              	.LBE564:
 1553              	.LBE565:
ARM GAS  C:\Users\toesc\AppData\Local\Temp\ccOgcMME.s 			page 52


 107:adsr.cpp      ****     verb.SetLpFreq(18000.0f);
 1554              		.loc 13 107 5 is_stmt 1 view .LVU415
 1555              	.LBB566:
 1556              	.LBI566:
  55:../../../DaisySP/Source/Effects/reverbsc.h ****     /** controls the internal dampening filter's cutoff frequency.
  56:../../../DaisySP/Source/Effects/reverbsc.h ****         \param freq - low pass frequency. range: 0.0 to sample_rate / 2
  57:../../../DaisySP/Source/Effects/reverbsc.h ****     */
  58:../../../DaisySP/Source/Effects/reverbsc.h ****     inline void SetLpFreq(const float &freq) { lpfreq_ = freq; }
 1557              		.loc 3 58 17 view .LVU416
 1558              	.LBB567:
 1559              		.loc 3 58 48 view .LVU417
 1560              		.loc 3 58 56 is_stmt 0 view .LVU418
 1561 0136 974B     		ldr	r3, .L106+60
 1562              	.LBE567:
 1563              	.LBE566:
 1564              		.loc 13 111 18 view .LVU419
 1565 0138 8748     		ldr	r0, .L106
 1566              	.LBB569:
 1567              	.LBB568:
 1568              		.loc 3 58 56 view .LVU420
 1569 013a C9F80430 		str	r3, [r9, #4]	@ float
 1570              	.LVL116:
 1571              		.loc 3 58 56 view .LVU421
 1572              	.LBE568:
 1573              	.LBE569:
 1574              		.loc 13 111 5 is_stmt 1 view .LVU422
 1575              		.loc 13 111 18 is_stmt 0 view .LVU423
 1576 013e FFF7FEFF 		bl	_ZN5daisy9DaisySeed10StartAudioEPFvPKfPfjE
 1577              	.LVL117:
 112:adsr.cpp      **** 
 113:adsr.cpp      ****     // adc stuff
 114:adsr.cpp      ****     int numberOfADCChannels = 4;
 1578              		.loc 13 114 5 is_stmt 1 view .LVU424
 115:adsr.cpp      ****     AdcChannelConfig adcConfig[ numberOfADCChannels ];
 1579              		.loc 13 115 5 view .LVU425
 116:adsr.cpp      ****     adcConfig[ 0 ].InitSingle( daisy::seed::A0 );
 1580              		.loc 13 116 5 view .LVU426
 1581              	.LBB570:
 1582              	.LBI570:
 1583              		.file 15 "../../../libDaisy/src/daisy_core.h"
   1:../../../libDaisy/src/daisy_core.h **** #pragma once
   2:../../../libDaisy/src/daisy_core.h **** #ifndef DSY_CORE_HW_H
   3:../../../libDaisy/src/daisy_core.h **** #define DSY_CORE_HW_H /**< & */
   4:../../../libDaisy/src/daisy_core.h **** #include <stdint.h>
   5:../../../libDaisy/src/daisy_core.h **** #include <stdlib.h>
   6:../../../libDaisy/src/daisy_core.h **** 
   7:../../../libDaisy/src/daisy_core.h **** #if defined(_MSC_VER)
   8:../../../libDaisy/src/daisy_core.h **** #define FORCE_INLINE __forceinline /**< & */
   9:../../../libDaisy/src/daisy_core.h **** #elif defined(__clang__)
  10:../../../libDaisy/src/daisy_core.h **** #define FORCE_INLINE inline __attribute__((always_inline)) /**< & */
  11:../../../libDaisy/src/daisy_core.h **** #pragma clang diagnostic ignored "-Wduplicate-decl-specifier"
  12:../../../libDaisy/src/daisy_core.h **** #elif defined(__GNUC__)
  13:../../../libDaisy/src/daisy_core.h **** #define FORCE_INLINE inline __attribute__((always_inline)) /**< & */
  14:../../../libDaisy/src/daisy_core.h **** #else
  15:../../../libDaisy/src/daisy_core.h **** #error unknown compiler
  16:../../../libDaisy/src/daisy_core.h **** #endif
  17:../../../libDaisy/src/daisy_core.h **** 
ARM GAS  C:\Users\toesc\AppData\Local\Temp\ccOgcMME.s 			page 53


  18:../../../libDaisy/src/daisy_core.h **** /** @addtogroup utility
  19:../../../libDaisy/src/daisy_core.h ****     @{
  20:../../../libDaisy/src/daisy_core.h **** */
  21:../../../libDaisy/src/daisy_core.h **** 
  22:../../../libDaisy/src/daisy_core.h **** /** Macro for area of memory that is configured as cacheless
  23:../../../libDaisy/src/daisy_core.h **** This should be used primarily for DMA buffers, and the like.
  24:../../../libDaisy/src/daisy_core.h **** */
  25:../../../libDaisy/src/daisy_core.h **** #define DMA_BUFFER_MEM_SECTION __attribute__((section(".sram1_bss")))
  26:../../../libDaisy/src/daisy_core.h **** /** 
  27:../../../libDaisy/src/daisy_core.h **** THE DTCM RAM section is also non-cached. However, is not suitable 
  28:../../../libDaisy/src/daisy_core.h **** for DMA transfers. Performance is on par with internal SRAM w/ 
  29:../../../libDaisy/src/daisy_core.h **** cache enabled.
  30:../../../libDaisy/src/daisy_core.h **** */
  31:../../../libDaisy/src/daisy_core.h **** #define DTCM_MEM_SECTION __attribute__((section(".dtcmram_bss")))
  32:../../../libDaisy/src/daisy_core.h **** 
  33:../../../libDaisy/src/daisy_core.h **** #define FBIPMAX 0.999985f             /**< close to 1.0f-LSB at 16 bit */
  34:../../../libDaisy/src/daisy_core.h **** #define FBIPMIN (-FBIPMAX)            /**< - (1 - LSB) */
  35:../../../libDaisy/src/daisy_core.h **** #define U82F_SCALE 0.0078740f         /**< 1 / 127 */
  36:../../../libDaisy/src/daisy_core.h **** #define F2U8_SCALE 127.0f             /**< 128 - 1 */
  37:../../../libDaisy/src/daisy_core.h **** #define S82F_SCALE 0.0078125f         /**< 1 / (2**7) */
  38:../../../libDaisy/src/daisy_core.h **** #define F2S8_SCALE 127.0f             /**< (2 ** 7) - 1 */
  39:../../../libDaisy/src/daisy_core.h **** #define S162F_SCALE 3.0517578125e-05f /**< 1 / (2** 15) */
  40:../../../libDaisy/src/daisy_core.h **** #define F2S16_SCALE 32767.0f          /**< (2 ** 15) - 1 */
  41:../../../libDaisy/src/daisy_core.h **** #define F2S24_SCALE 8388608.0f        /**< 2 ** 23 */
  42:../../../libDaisy/src/daisy_core.h **** #define S242F_SCALE 1.192092896e-07f  /**< 1 / (2 ** 23) */
  43:../../../libDaisy/src/daisy_core.h **** #define S24SIGN 0x800000              /**< 2 ** 23 */
  44:../../../libDaisy/src/daisy_core.h **** #define S322F_SCALE 4.6566129e-10f    /**< 1 / (2** 31) */
  45:../../../libDaisy/src/daisy_core.h **** #define F2S32_SCALE 2147483647.f      /**< (2 ** 31) - 1 */
  46:../../../libDaisy/src/daisy_core.h **** 
  47:../../../libDaisy/src/daisy_core.h **** 
  48:../../../libDaisy/src/daisy_core.h **** /** shorthand macro for simplifying the reading of the left 
  49:../../../libDaisy/src/daisy_core.h ****  *  channel of a non-interleaved output buffer named out */
  50:../../../libDaisy/src/daisy_core.h **** #define OUT_L out[0]
  51:../../../libDaisy/src/daisy_core.h **** 
  52:../../../libDaisy/src/daisy_core.h **** /** shorthand macro for simplifying the reading of the right 
  53:../../../libDaisy/src/daisy_core.h ****  *  channel of a non-interleaved output buffer named out */
  54:../../../libDaisy/src/daisy_core.h **** #define OUT_R out[1]
  55:../../../libDaisy/src/daisy_core.h **** 
  56:../../../libDaisy/src/daisy_core.h **** /** shorthand macro for simplifying the reading of the left 
  57:../../../libDaisy/src/daisy_core.h ****  *  channel of a non-interleaved input buffer named in */
  58:../../../libDaisy/src/daisy_core.h **** #define IN_L in[0]
  59:../../../libDaisy/src/daisy_core.h **** 
  60:../../../libDaisy/src/daisy_core.h **** /** shorthand macro for simplifying the reading of the right 
  61:../../../libDaisy/src/daisy_core.h ****  *  channel of a non-interleaved input buffer named in */
  62:../../../libDaisy/src/daisy_core.h **** #define IN_R in[1]
  63:../../../libDaisy/src/daisy_core.h **** 
  64:../../../libDaisy/src/daisy_core.h **** /** 
  65:../../../libDaisy/src/daisy_core.h ****     Computes cube.
  66:../../../libDaisy/src/daisy_core.h ****     \param x Number to be cubed
  67:../../../libDaisy/src/daisy_core.h ****     \return x ^ 3
  68:../../../libDaisy/src/daisy_core.h **** */
  69:../../../libDaisy/src/daisy_core.h **** FORCE_INLINE float cube(float x)
  70:../../../libDaisy/src/daisy_core.h **** {
  71:../../../libDaisy/src/daisy_core.h ****     return (x * x) * x;
  72:../../../libDaisy/src/daisy_core.h **** }
  73:../../../libDaisy/src/daisy_core.h **** 
  74:../../../libDaisy/src/daisy_core.h **** /** 
ARM GAS  C:\Users\toesc\AppData\Local\Temp\ccOgcMME.s 			page 54


  75:../../../libDaisy/src/daisy_core.h ****     Converts unsigned 8-bit to float
  76:../../../libDaisy/src/daisy_core.h ****     \param x Number to be scaled.
  77:../../../libDaisy/src/daisy_core.h ****     \return Scaled number.
  78:../../../libDaisy/src/daisy_core.h **** */
  79:../../../libDaisy/src/daisy_core.h **** FORCE_INLINE float u82f(uint8_t x)
  80:../../../libDaisy/src/daisy_core.h **** {
  81:../../../libDaisy/src/daisy_core.h ****     return ((float)x - 127.f) * U82F_SCALE;
  82:../../../libDaisy/src/daisy_core.h **** }
  83:../../../libDaisy/src/daisy_core.h **** 
  84:../../../libDaisy/src/daisy_core.h **** /**
  85:../../../libDaisy/src/daisy_core.h ****     Converts float to unsigned 8-bit
  86:../../../libDaisy/src/daisy_core.h **** */
  87:../../../libDaisy/src/daisy_core.h **** FORCE_INLINE uint8_t f2u8(float x)
  88:../../../libDaisy/src/daisy_core.h **** {
  89:../../../libDaisy/src/daisy_core.h ****     x = x <= FBIPMIN ? FBIPMIN : x;
  90:../../../libDaisy/src/daisy_core.h ****     x = x >= FBIPMAX ? FBIPMAX : x;
  91:../../../libDaisy/src/daisy_core.h ****     return (uint8_t)((x * F2U8_SCALE) + F2U8_SCALE);
  92:../../../libDaisy/src/daisy_core.h **** }
  93:../../../libDaisy/src/daisy_core.h **** 
  94:../../../libDaisy/src/daisy_core.h **** 
  95:../../../libDaisy/src/daisy_core.h **** /** 
  96:../../../libDaisy/src/daisy_core.h ****     Converts Signed 8-bit to float
  97:../../../libDaisy/src/daisy_core.h ****     \param x Number to be scaled.
  98:../../../libDaisy/src/daisy_core.h ****     \return Scaled number.
  99:../../../libDaisy/src/daisy_core.h **** */
 100:../../../libDaisy/src/daisy_core.h **** FORCE_INLINE float s82f(int8_t x)
 101:../../../libDaisy/src/daisy_core.h **** {
 102:../../../libDaisy/src/daisy_core.h ****     return (float)x * S82F_SCALE;
 103:../../../libDaisy/src/daisy_core.h **** }
 104:../../../libDaisy/src/daisy_core.h **** 
 105:../../../libDaisy/src/daisy_core.h **** /**
 106:../../../libDaisy/src/daisy_core.h ****     Converts float to Signed 8-bit
 107:../../../libDaisy/src/daisy_core.h **** */
 108:../../../libDaisy/src/daisy_core.h **** FORCE_INLINE int8_t f2s8(float x)
 109:../../../libDaisy/src/daisy_core.h **** {
 110:../../../libDaisy/src/daisy_core.h ****     x = x <= FBIPMIN ? FBIPMIN : x;
 111:../../../libDaisy/src/daisy_core.h ****     x = x >= FBIPMAX ? FBIPMAX : x;
 112:../../../libDaisy/src/daisy_core.h ****     return (int32_t)(x * F2S8_SCALE);
 113:../../../libDaisy/src/daisy_core.h **** }
 114:../../../libDaisy/src/daisy_core.h **** 
 115:../../../libDaisy/src/daisy_core.h **** /** 
 116:../../../libDaisy/src/daisy_core.h ****     Converts Signed 16-bit to float
 117:../../../libDaisy/src/daisy_core.h ****     \param x Number to be scaled.
 118:../../../libDaisy/src/daisy_core.h ****     \return Scaled number.
 119:../../../libDaisy/src/daisy_core.h **** */
 120:../../../libDaisy/src/daisy_core.h **** FORCE_INLINE float s162f(int16_t x)
 121:../../../libDaisy/src/daisy_core.h **** {
 122:../../../libDaisy/src/daisy_core.h ****     return (float)x * S162F_SCALE;
 123:../../../libDaisy/src/daisy_core.h **** }
 124:../../../libDaisy/src/daisy_core.h **** 
 125:../../../libDaisy/src/daisy_core.h **** /**
 126:../../../libDaisy/src/daisy_core.h ****     Converts float to Signed 16-bit
 127:../../../libDaisy/src/daisy_core.h **** */
 128:../../../libDaisy/src/daisy_core.h **** FORCE_INLINE int16_t f2s16(float x)
 129:../../../libDaisy/src/daisy_core.h **** {
 130:../../../libDaisy/src/daisy_core.h ****     x = x <= FBIPMIN ? FBIPMIN : x;
 131:../../../libDaisy/src/daisy_core.h ****     x = x >= FBIPMAX ? FBIPMAX : x;
ARM GAS  C:\Users\toesc\AppData\Local\Temp\ccOgcMME.s 			page 55


 132:../../../libDaisy/src/daisy_core.h ****     return (int32_t)(x * F2S16_SCALE);
 133:../../../libDaisy/src/daisy_core.h **** }
 134:../../../libDaisy/src/daisy_core.h **** 
 135:../../../libDaisy/src/daisy_core.h **** /**
 136:../../../libDaisy/src/daisy_core.h ****     Converts Signed 24-bit to float
 137:../../../libDaisy/src/daisy_core.h ****  */
 138:../../../libDaisy/src/daisy_core.h **** FORCE_INLINE float s242f(int32_t x)
 139:../../../libDaisy/src/daisy_core.h **** {
 140:../../../libDaisy/src/daisy_core.h ****     x = (x ^ S24SIGN) - S24SIGN; //sign extend aka ((x<<8)>>8)
 141:../../../libDaisy/src/daisy_core.h ****     return (float)x * S242F_SCALE;
 142:../../../libDaisy/src/daisy_core.h **** }
 143:../../../libDaisy/src/daisy_core.h **** /**
 144:../../../libDaisy/src/daisy_core.h ****     Converts float to Signed 24-bit
 145:../../../libDaisy/src/daisy_core.h ****  */
 146:../../../libDaisy/src/daisy_core.h **** FORCE_INLINE int32_t f2s24(float x)
 147:../../../libDaisy/src/daisy_core.h **** {
 148:../../../libDaisy/src/daisy_core.h ****     x = x <= FBIPMIN ? FBIPMIN : x;
 149:../../../libDaisy/src/daisy_core.h ****     x = x >= FBIPMAX ? FBIPMAX : x;
 150:../../../libDaisy/src/daisy_core.h ****     return (int32_t)(x * F2S24_SCALE);
 151:../../../libDaisy/src/daisy_core.h **** }
 152:../../../libDaisy/src/daisy_core.h **** 
 153:../../../libDaisy/src/daisy_core.h **** /**
 154:../../../libDaisy/src/daisy_core.h ****     Converts Signed 32-bit to float
 155:../../../libDaisy/src/daisy_core.h ****  */
 156:../../../libDaisy/src/daisy_core.h **** FORCE_INLINE float s322f(int32_t x)
 157:../../../libDaisy/src/daisy_core.h **** {
 158:../../../libDaisy/src/daisy_core.h ****     return (float)x * S322F_SCALE;
 159:../../../libDaisy/src/daisy_core.h **** }
 160:../../../libDaisy/src/daisy_core.h **** /**
 161:../../../libDaisy/src/daisy_core.h ****     Converts float to Signed 24-bit
 162:../../../libDaisy/src/daisy_core.h ****  */
 163:../../../libDaisy/src/daisy_core.h **** FORCE_INLINE int32_t f2s32(float x)
 164:../../../libDaisy/src/daisy_core.h **** {
 165:../../../libDaisy/src/daisy_core.h ****     x = x <= FBIPMIN ? FBIPMIN : x;
 166:../../../libDaisy/src/daisy_core.h ****     x = x >= FBIPMAX ? FBIPMAX : x;
 167:../../../libDaisy/src/daisy_core.h ****     return (int32_t)(x * F2S32_SCALE);
 168:../../../libDaisy/src/daisy_core.h **** }
 169:../../../libDaisy/src/daisy_core.h **** 
 170:../../../libDaisy/src/daisy_core.h **** 
 171:../../../libDaisy/src/daisy_core.h **** /** Enums and a simple struct for defining a hardware pin on the MCU
 172:../../../libDaisy/src/daisy_core.h ****  *  These correlate with the stm32 datasheet, and are used to configure
 173:../../../libDaisy/src/daisy_core.h ****  *  the hardware.
 174:../../../libDaisy/src/daisy_core.h ****  * 
 175:../../../libDaisy/src/daisy_core.h ****  *  This along with the dsy_gpio_pin class should no longer be used.
 176:../../../libDaisy/src/daisy_core.h ****  *  They are available for backwards compatability. 
 177:../../../libDaisy/src/daisy_core.h ****  * 
 178:../../../libDaisy/src/daisy_core.h ****  *  Please use GPIOPort enum and the Pin struct instead.
 179:../../../libDaisy/src/daisy_core.h ****  */
 180:../../../libDaisy/src/daisy_core.h **** typedef enum
 181:../../../libDaisy/src/daisy_core.h **** {
 182:../../../libDaisy/src/daisy_core.h ****     DSY_GPIOA, /**< & */
 183:../../../libDaisy/src/daisy_core.h ****     DSY_GPIOB, /**< & */
 184:../../../libDaisy/src/daisy_core.h ****     DSY_GPIOC, /**< & */
 185:../../../libDaisy/src/daisy_core.h ****     DSY_GPIOD, /**< & */
 186:../../../libDaisy/src/daisy_core.h ****     DSY_GPIOE, /**< & */
 187:../../../libDaisy/src/daisy_core.h ****     DSY_GPIOF, /**< & */
 188:../../../libDaisy/src/daisy_core.h ****     DSY_GPIOG, /**< & */
ARM GAS  C:\Users\toesc\AppData\Local\Temp\ccOgcMME.s 			page 56


 189:../../../libDaisy/src/daisy_core.h ****     DSY_GPIOH, /**< & */
 190:../../../libDaisy/src/daisy_core.h ****     DSY_GPIOI, /**< & */
 191:../../../libDaisy/src/daisy_core.h ****     DSY_GPIOJ, /**< & */
 192:../../../libDaisy/src/daisy_core.h ****     DSY_GPIOK, /**< & */
 193:../../../libDaisy/src/daisy_core.h ****     DSY_GPIOX, /** This is a non-existant port for unsupported bits of hardware. */
 194:../../../libDaisy/src/daisy_core.h ****     DSY_GPIO_LAST, /** Final enum member */
 195:../../../libDaisy/src/daisy_core.h **** } dsy_gpio_port;
 196:../../../libDaisy/src/daisy_core.h **** 
 197:../../../libDaisy/src/daisy_core.h **** /** Hardware define pins 
 198:../../../libDaisy/src/daisy_core.h ****  *  
 199:../../../libDaisy/src/daisy_core.h ****  *  The dsy_gpio_pin struct should no longer be used, and is only available for
 200:../../../libDaisy/src/daisy_core.h ****  *  backwards compatability.
 201:../../../libDaisy/src/daisy_core.h ****  * 
 202:../../../libDaisy/src/daisy_core.h ****  *  Please use Pin struct instead.
 203:../../../libDaisy/src/daisy_core.h ****  */
 204:../../../libDaisy/src/daisy_core.h **** typedef struct
 205:../../../libDaisy/src/daisy_core.h **** {
 206:../../../libDaisy/src/daisy_core.h ****     dsy_gpio_port port; /**< & */
 207:../../../libDaisy/src/daisy_core.h ****     uint8_t       pin;  /**< number 0-15 */
 208:../../../libDaisy/src/daisy_core.h **** } dsy_gpio_pin;
 209:../../../libDaisy/src/daisy_core.h **** 
 210:../../../libDaisy/src/daisy_core.h **** /** Helper for creating pins from port/pin combos easily
 211:../../../libDaisy/src/daisy_core.h ****  * 
 212:../../../libDaisy/src/daisy_core.h ****  *  The dsy_gpio_pin struct should no longer be used, and is only available for
 213:../../../libDaisy/src/daisy_core.h ****  *  backwards compatability.
 214:../../../libDaisy/src/daisy_core.h ****  * 
 215:../../../libDaisy/src/daisy_core.h ****  *  Please use Pin struct instead.
 216:../../../libDaisy/src/daisy_core.h **** */
 217:../../../libDaisy/src/daisy_core.h **** FORCE_INLINE dsy_gpio_pin dsy_pin(dsy_gpio_port port, uint8_t pin)
 218:../../../libDaisy/src/daisy_core.h **** {
 219:../../../libDaisy/src/daisy_core.h ****     dsy_gpio_pin p;
 220:../../../libDaisy/src/daisy_core.h ****     p.port = port;
 221:../../../libDaisy/src/daisy_core.h ****     p.pin  = pin;
 222:../../../libDaisy/src/daisy_core.h ****     return p;
 223:../../../libDaisy/src/daisy_core.h **** }
 224:../../../libDaisy/src/daisy_core.h **** 
 225:../../../libDaisy/src/daisy_core.h **** /** Helper for testing sameness of two dsy_gpio_pins
 226:../../../libDaisy/src/daisy_core.h ****  *  \return    1 if same, 0 if different
 227:../../../libDaisy/src/daisy_core.h ****  * 
 228:../../../libDaisy/src/daisy_core.h ****  *  The dsy_gpio_pin struct should no longer be used, and is only available for
 229:../../../libDaisy/src/daisy_core.h ****  *  backwards compatability.
 230:../../../libDaisy/src/daisy_core.h ****  * 
 231:../../../libDaisy/src/daisy_core.h ****  *  Please use Pin struct instead.
 232:../../../libDaisy/src/daisy_core.h ****  */
 233:../../../libDaisy/src/daisy_core.h **** FORCE_INLINE uint8_t dsy_pin_cmp(dsy_gpio_pin *a, dsy_gpio_pin *b)
 234:../../../libDaisy/src/daisy_core.h **** {
 235:../../../libDaisy/src/daisy_core.h ****     return ((a->port == b->port) && (a->pin == b->pin));
 236:../../../libDaisy/src/daisy_core.h **** }
 237:../../../libDaisy/src/daisy_core.h **** 
 238:../../../libDaisy/src/daisy_core.h **** #ifdef __cplusplus
 239:../../../libDaisy/src/daisy_core.h **** 
 240:../../../libDaisy/src/daisy_core.h **** namespace daisy
 241:../../../libDaisy/src/daisy_core.h **** {
 242:../../../libDaisy/src/daisy_core.h **** /** @brief GPIO Port names */
 243:../../../libDaisy/src/daisy_core.h **** enum GPIOPort
 244:../../../libDaisy/src/daisy_core.h **** {
 245:../../../libDaisy/src/daisy_core.h ****     PORTA, /**< Port A */
ARM GAS  C:\Users\toesc\AppData\Local\Temp\ccOgcMME.s 			page 57


 246:../../../libDaisy/src/daisy_core.h ****     PORTB, /**< Port B */
 247:../../../libDaisy/src/daisy_core.h ****     PORTC, /**< Port C */
 248:../../../libDaisy/src/daisy_core.h ****     PORTD, /**< Port D */
 249:../../../libDaisy/src/daisy_core.h ****     PORTE, /**< Port E */
 250:../../../libDaisy/src/daisy_core.h ****     PORTF, /**< Port F */
 251:../../../libDaisy/src/daisy_core.h ****     PORTG, /**< Port G */
 252:../../../libDaisy/src/daisy_core.h ****     PORTH, /**< Port H */
 253:../../../libDaisy/src/daisy_core.h ****     PORTI, /**< Port I */
 254:../../../libDaisy/src/daisy_core.h ****     PORTJ, /**< Port J */
 255:../../../libDaisy/src/daisy_core.h ****     PORTK, /**< Port K */
 256:../../../libDaisy/src/daisy_core.h ****     PORTX, /**< Used as a dummy port to signal an invalid pin. */
 257:../../../libDaisy/src/daisy_core.h **** };
 258:../../../libDaisy/src/daisy_core.h **** 
 259:../../../libDaisy/src/daisy_core.h **** /** @brief representation of hardware port/pin combination */
 260:../../../libDaisy/src/daisy_core.h **** struct Pin
 261:../../../libDaisy/src/daisy_core.h **** {
 262:../../../libDaisy/src/daisy_core.h ****     GPIOPort port;
 263:../../../libDaisy/src/daisy_core.h ****     uint8_t  pin;
 264:../../../libDaisy/src/daisy_core.h **** 
 265:../../../libDaisy/src/daisy_core.h ****     /** @brief Constructor creates a valid pin. 
 266:../../../libDaisy/src/daisy_core.h ****      *  @param pt GPIOPort between PA, and PK corresponding to STM32 Port.
 267:../../../libDaisy/src/daisy_core.h ****      *  @param pn pin number in range of 0-15
 268:../../../libDaisy/src/daisy_core.h ****     */
 269:../../../libDaisy/src/daisy_core.h ****     constexpr Pin(const GPIOPort pt, const uint8_t pn) : port(pt), pin(pn) {}
 270:../../../libDaisy/src/daisy_core.h **** 
 271:../../../libDaisy/src/daisy_core.h ****     /** @brief Basic Constructor creates an invalid Pin object */
 272:../../../libDaisy/src/daisy_core.h ****     constexpr Pin() : port(PORTX), pin(255) {}
 273:../../../libDaisy/src/daisy_core.h **** 
 274:../../../libDaisy/src/daisy_core.h ****     /** @brief checks validity of a Pin 
 275:../../../libDaisy/src/daisy_core.h ****      *  @retval returns true if the port is a valid hardware pin, otherwise false.
 276:../../../libDaisy/src/daisy_core.h ****     */
 277:../../../libDaisy/src/daisy_core.h ****     constexpr bool IsValid() const { return port != PORTX && pin < 16; }
 278:../../../libDaisy/src/daisy_core.h **** 
 279:../../../libDaisy/src/daisy_core.h ****     /** @brief comparison operator for checking equality between Pin objects */
 280:../../../libDaisy/src/daisy_core.h ****     constexpr bool operator==(const Pin &rhs) const
 281:../../../libDaisy/src/daisy_core.h ****     {
 282:../../../libDaisy/src/daisy_core.h ****         return (rhs.port == port) && (rhs.pin == pin);
 283:../../../libDaisy/src/daisy_core.h ****     }
 284:../../../libDaisy/src/daisy_core.h **** 
 285:../../../libDaisy/src/daisy_core.h ****     /** @brief comparison operator for checking inequality between Pin objects */
 286:../../../libDaisy/src/daisy_core.h ****     constexpr bool operator!=(const Pin &rhs) const { return !operator==(rhs); }
 287:../../../libDaisy/src/daisy_core.h **** 
 288:../../../libDaisy/src/daisy_core.h ****     /** @brief conversion operation for converting to the old-style representation
 289:../../../libDaisy/src/daisy_core.h ****      *         of a pin.
 290:../../../libDaisy/src/daisy_core.h ****      * 
 291:../../../libDaisy/src/daisy_core.h ****      *  This allows the new Pin type to be used in place of the older, dsy_gpio_pin
 292:../../../libDaisy/src/daisy_core.h ****      *  type.
 293:../../../libDaisy/src/daisy_core.h ****      */
 294:../../../libDaisy/src/daisy_core.h ****     operator dsy_gpio_pin() const
 1584              		.loc 15 294 5 view .LVU427
 1585              	.LBE570:
 295:../../../libDaisy/src/daisy_core.h ****     {
 296:../../../libDaisy/src/daisy_core.h ****         return dsy_pin(static_cast<dsy_gpio_port>(port), pin);
 1586              		.loc 15 296 9 view .LVU428
 1587              	.LBB572:
 1588              	.LBB571:
 1589              	.LBI571:
ARM GAS  C:\Users\toesc\AppData\Local\Temp\ccOgcMME.s 			page 58


 217:../../../libDaisy/src/daisy_core.h **** {
 1590              		.loc 15 217 27 view .LVU429
 1591              	.LBE571:
 1592              	.LBE572:
 219:../../../libDaisy/src/daisy_core.h ****     p.port = port;
 1593              		.loc 15 219 5 view .LVU430
 220:../../../libDaisy/src/daisy_core.h ****     p.pin  = pin;
 1594              		.loc 15 220 5 view .LVU431
 221:../../../libDaisy/src/daisy_core.h ****     return p;
 1595              		.loc 15 221 5 view .LVU432
 222:../../../libDaisy/src/daisy_core.h **** }
 1596              		.loc 15 222 5 view .LVU433
 222:../../../libDaisy/src/daisy_core.h **** }
 1597              		.loc 15 222 5 is_stmt 0 view .LVU434
 1598 0142 8DF80CB0 		strb	fp, [sp, #12]
 1599              		.loc 13 116 30 view .LVU435
 1600 0146 07A8     		add	r0, sp, #28
 1601              	.LVL118:
 1602              		.loc 13 116 30 view .LVU436
 1603 0148 8DF80D50 		strb	r5, [sp, #13]
 1604              	.LVL119:
 1605              		.loc 13 116 30 view .LVU437
 1606 014c 08F1980B 		add	fp, r8, #152
 1607 0150 0399     		ldr	r1, [sp, #12]
 1608 0152 FFF7FEFF 		bl	_ZN5daisy16AdcChannelConfig10InitSingleE12dsy_gpio_pin
 1609              	.LVL120:
 117:adsr.cpp      ****     adcConfig[ 1 ].InitSingle( daisy::seed::A1 );
 1610              		.loc 13 117 5 is_stmt 1 view .LVU438
 1611              	.LBB573:
 1612              	.LBI573:
 294:../../../libDaisy/src/daisy_core.h ****     {
 1613              		.loc 15 294 5 view .LVU439
 1614              	.LBE573:
 1615              		.loc 15 296 9 view .LVU440
 1616              	.LBB575:
 1617              	.LBB574:
 1618              	.LBI574:
 217:../../../libDaisy/src/daisy_core.h **** {
 1619              		.loc 15 217 27 view .LVU441
 1620              	.LBE574:
 1621              	.LBE575:
 219:../../../libDaisy/src/daisy_core.h ****     p.port = port;
 1622              		.loc 15 219 5 view .LVU442
 220:../../../libDaisy/src/daisy_core.h ****     p.pin  = pin;
 1623              		.loc 15 220 5 view .LVU443
 221:../../../libDaisy/src/daisy_core.h ****     return p;
 1624              		.loc 15 221 5 view .LVU444
 222:../../../libDaisy/src/daisy_core.h **** }
 1625              		.loc 15 222 5 view .LVU445
 222:../../../libDaisy/src/daisy_core.h **** }
 1626              		.loc 15 222 5 is_stmt 0 view .LVU446
 1627 0156 0323     		movs	r3, #3
 1628 0158 8DF81050 		strb	r5, [sp, #16]
 1629              		.loc 13 117 30 view .LVU447
 1630 015c 0DF12D00 		add	r0, sp, #45
 1631 0160 8DF81130 		strb	r3, [sp, #17]
 1632              	.LVL121:
ARM GAS  C:\Users\toesc\AppData\Local\Temp\ccOgcMME.s 			page 59


 1633              		.loc 13 117 30 view .LVU448
 1634 0164 0499     		ldr	r1, [sp, #16]
 1635 0166 FFF7FEFF 		bl	_ZN5daisy16AdcChannelConfig10InitSingleE12dsy_gpio_pin
 1636              	.LVL122:
 118:adsr.cpp      ****     adcConfig[ 2 ].InitSingle( daisy::seed::A2 );
 1637              		.loc 13 118 5 is_stmt 1 view .LVU449
 1638              	.LBB576:
 1639              	.LBI576:
 294:../../../libDaisy/src/daisy_core.h ****     {
 1640              		.loc 15 294 5 view .LVU450
 1641              	.LBE576:
 1642              		.loc 15 296 9 view .LVU451
 1643              	.LBB578:
 1644              	.LBB577:
 1645              	.LBI577:
 217:../../../libDaisy/src/daisy_core.h **** {
 1646              		.loc 15 217 27 view .LVU452
 1647              	.LBE577:
 1648              	.LBE578:
 219:../../../libDaisy/src/daisy_core.h ****     p.port = port;
 1649              		.loc 15 219 5 view .LVU453
 220:../../../libDaisy/src/daisy_core.h ****     p.pin  = pin;
 1650              		.loc 15 220 5 view .LVU454
 221:../../../libDaisy/src/daisy_core.h ****     return p;
 1651              		.loc 15 221 5 view .LVU455
 222:../../../libDaisy/src/daisy_core.h **** }
 1652              		.loc 15 222 5 view .LVU456
 222:../../../libDaisy/src/daisy_core.h **** }
 1653              		.loc 15 222 5 is_stmt 0 view .LVU457
 1654 016a 0123     		movs	r3, #1
 1655              		.loc 13 118 30 view .LVU458
 1656 016c 0DF13E00 		add	r0, sp, #62
 1657 0170 8DF81430 		strb	r3, [sp, #20]
 1658 0174 8DF81530 		strb	r3, [sp, #21]
 1659              	.LVL123:
 1660              		.loc 13 118 30 view .LVU459
 1661 0178 0599     		ldr	r1, [sp, #20]
 1662 017a FFF7FEFF 		bl	_ZN5daisy16AdcChannelConfig10InitSingleE12dsy_gpio_pin
 1663              	.LVL124:
 119:adsr.cpp      ****     adcConfig[ 3 ].InitSingle( daisy::seed::A3 );
 1664              		.loc 13 119 5 is_stmt 1 view .LVU460
 1665              	.LBB579:
 1666              	.LBI579:
 294:../../../libDaisy/src/daisy_core.h ****     {
 1667              		.loc 15 294 5 view .LVU461
 1668              	.LBE579:
 1669              		.loc 15 296 9 view .LVU462
 1670              	.LBB581:
 1671              	.LBB580:
 1672              	.LBI580:
 217:../../../libDaisy/src/daisy_core.h **** {
 1673              		.loc 15 217 27 view .LVU463
 1674              	.LBE580:
 1675              	.LBE581:
 219:../../../libDaisy/src/daisy_core.h ****     p.port = port;
 1676              		.loc 15 219 5 view .LVU464
 220:../../../libDaisy/src/daisy_core.h ****     p.pin  = pin;
ARM GAS  C:\Users\toesc\AppData\Local\Temp\ccOgcMME.s 			page 60


 1677              		.loc 15 220 5 view .LVU465
 221:../../../libDaisy/src/daisy_core.h ****     return p;
 1678              		.loc 15 221 5 view .LVU466
 222:../../../libDaisy/src/daisy_core.h **** }
 1679              		.loc 15 222 5 view .LVU467
 222:../../../libDaisy/src/daisy_core.h **** }
 1680              		.loc 15 222 5 is_stmt 0 view .LVU468
 1681 017e 0723     		movs	r3, #7
 1682 0180 8DF81850 		strb	r5, [sp, #24]
 1683              		.loc 13 119 30 view .LVU469
 1684 0184 0DF14F00 		add	r0, sp, #79
 1685 0188 8DF81930 		strb	r3, [sp, #25]
 1686              	.LVL125:
 1687              		.loc 13 119 30 view .LVU470
 1688 018c 0699     		ldr	r1, [sp, #24]
 1689 018e FFF7FEFF 		bl	_ZN5daisy16AdcChannelConfig10InitSingleE12dsy_gpio_pin
 1690              	.LVL126:
 120:adsr.cpp      ****     
 121:adsr.cpp      ****     hw.adc.Init( adcConfig, numberOfADCChannels );
 1691              		.loc 13 121 5 is_stmt 1 view .LVU471
 1692              		.loc 13 121 16 is_stmt 0 view .LVU472
 1693 0192 0423     		movs	r3, #4
 1694 0194 8048     		ldr	r0, .L106+64
 1695 0196 07A9     		add	r1, sp, #28
 1696              	.LVL127:
 1697              		.loc 13 121 16 view .LVU473
 1698 0198 1A46     		mov	r2, r3
 1699 019a FFF7FEFF 		bl	_ZN5daisy9AdcHandle4InitEPNS_16AdcChannelConfigEjNS0_12OverSamplingE
 1700              	.LVL128:
 122:adsr.cpp      ****     hw.adc.Start();
 1701              		.loc 13 122 5 is_stmt 1 view .LVU474
 1702              		.loc 13 122 17 is_stmt 0 view .LVU475
 1703 019e 7E48     		ldr	r0, .L106+64
 1704 01a0 FFF7FEFF 		bl	_ZN5daisy9AdcHandle5StartEv
 1705              	.LVL129:
 1706              	.L93:
 123:adsr.cpp      **** 
 124:adsr.cpp      ****     while(1)
 1707              		.loc 13 124 5 is_stmt 1 view .LVU476
 1708              	.LBB582:
 125:adsr.cpp      ****      {
 126:adsr.cpp      ****             //Debounce the button
 127:adsr.cpp      ****      //   button.Debounce();
 128:adsr.cpp      ****         //If the button is pressed, turn the LED on
 129:adsr.cpp      ****      //   mygate = button.Pressed();
 130:adsr.cpp      **** 
 131:adsr.cpp      ****        
 132:adsr.cpp      ****         //wait 1 ms
 133:adsr.cpp      ****       //  System::Delay(1);
 134:adsr.cpp      ****         
 135:adsr.cpp      ****         /** Listen to MIDI for new changes */
 136:adsr.cpp      ****         midi.Listen();
 1709              		.loc 13 136 9 view .LVU477
 1710              	.LBB583:
 1711              	.LBI583:
 110:../../../libDaisy/src/hid/midi.h ****     {
 1712              		.loc 11 110 10 view .LVU478
ARM GAS  C:\Users\toesc\AppData\Local\Temp\ccOgcMME.s 			page 61


 1713              	.LBB584:
 113:../../../libDaisy/src/hid/midi.h ****         while(transport_.Readable())
 1714              		.loc 11 113 29 is_stmt 0 view .LVU479
 1715 01a4 FFF7FEFF 		bl	_ZN5daisy6System6GetNowEv
 1716              	.LVL130:
 1717 01a8 0546     		mov	r5, r0
 1718              	.LVL131:
 113:../../../libDaisy/src/hid/midi.h ****         while(transport_.Readable())
 1719              		.loc 11 113 29 view .LVU480
 1720 01aa 07E0     		b	.L86
 1721              	.LVL132:
 1722              	.L104:
 116:../../../libDaisy/src/hid/midi.h ****             Parse(transport_.Rx());
 1723              		.loc 11 116 24 view .LVU481
 1724 01ac C4F8A050 		str	r5, [r4, #160]
 117:../../../libDaisy/src/hid/midi.h ****         }
 1725              		.loc 11 117 18 view .LVU482
 1726 01b0 FFF7FEFF 		bl	_ZN5daisy16MidiUsbTransport2RxEv
 1727              	.LVL133:
 1728 01b4 0146     		mov	r1, r0
 1729 01b6 7948     		ldr	r0, .L106+68
 1730 01b8 FFF7FEFF 		bl	_ZN5daisy11MidiHandlerINS_16MidiUsbTransportEE5ParseEh
 1731              	.LVL134:
 1732              	.L86:
 114:../../../libDaisy/src/hid/midi.h ****         {
 1733              		.loc 11 114 34 is_stmt 1 view .LVU483
 1734 01bc 7848     		ldr	r0, .L106+72
 1735 01be FFF7FEFF 		bl	_ZN5daisy16MidiUsbTransport8ReadableEv
 1736              	.LVL135:
 1737 01c2 0346     		mov	r3, r0
 117:../../../libDaisy/src/hid/midi.h ****         }
 1738              		.loc 11 117 18 is_stmt 0 view .LVU484
 1739 01c4 7648     		ldr	r0, .L106+72
 114:../../../libDaisy/src/hid/midi.h ****         {
 1740              		.loc 11 114 34 view .LVU485
 1741 01c6 002B     		cmp	r3, #0
 1742 01c8 F0D1     		bne	.L104
 123:../../../libDaisy/src/hid/midi.h ****         {
 1743              		.loc 11 123 32 view .LVU486
 1744 01ca 7548     		ldr	r0, .L106+72
 1745 01cc FFF7FEFF 		bl	_ZN5daisy16MidiUsbTransport8RxActiveEv
 1746              	.LVL136:
 123:../../../libDaisy/src/hid/midi.h ****         {
 1747              		.loc 11 123 9 view .LVU487
 1748 01d0 0346     		mov	r3, r0
 1749 01d2 0028     		cmp	r0, #0
 1750 01d4 00F0B680 		beq	.L105
 1751              	.LVL137:
 1752              	.L87:
 123:../../../libDaisy/src/hid/midi.h ****         {
 1753              		.loc 11 123 9 view .LVU488
 1754              	.LBE584:
 1755              	.LBE583:
 137:adsr.cpp      **** 
 138:adsr.cpp      ****         /** When there are messages waiting in the queue... */
 139:adsr.cpp      ****         while(midi.HasEvents())
 1756              		.loc 13 139 9 is_stmt 1 view .LVU489
ARM GAS  C:\Users\toesc\AppData\Local\Temp\ccOgcMME.s 			page 62


 1757              		.loc 13 139 29 view .LVU490
 1758              	.LBB588:
 1759              	.LBI588:
 134:../../../libDaisy/src/hid/midi.h **** 
 1760              		.loc 11 134 10 view .LVU491
 1761              	.LBB589:
 1762              	.LBI589:
  36:../../../libDaisy/src/util/ringbuffer.h **** 
 1763              		.loc 14 36 19 view .LVU492
 1764              	.LBB590:
  36:../../../libDaisy/src/util/ringbuffer.h **** 
 1765              		.loc 14 36 46 is_stmt 0 view .LVU493
 1766 01d8 D4F89C30 		ldr	r3, [r4, #156]
  36:../../../libDaisy/src/util/ringbuffer.h **** 
 1767              		.loc 14 36 59 view .LVU494
 1768 01dc D4F89820 		ldr	r2, [r4, #152]
 1769              	.LVL138:
  36:../../../libDaisy/src/util/ringbuffer.h **** 
 1770              		.loc 14 36 57 view .LVU495
 1771 01e0 9B1A     		subs	r3, r3, r2
  36:../../../libDaisy/src/util/ringbuffer.h **** 
 1772              		.loc 14 36 72 view .LVU496
 1773 01e2 DBB2     		uxtb	r3, r3
 1774              	.LBE590:
 1775              	.LBE589:
 1776              	.LBE588:
 1777              		.loc 13 139 29 view .LVU497
 1778 01e4 002B     		cmp	r3, #0
 1779 01e6 5AD1     		bne	.L89
 140:adsr.cpp      ****         {
 141:adsr.cpp      ****             /** Pull the oldest one from the list... */
 142:adsr.cpp      ****             auto msg = midi.PopEvent();
 143:adsr.cpp      ****             switch(msg.type)
 144:adsr.cpp      ****             {
 145:adsr.cpp      ****                 case NoteOn:
 146:adsr.cpp      ****                 {
 147:adsr.cpp      ****                     /** and change the frequency of the oscillator */
 148:adsr.cpp      ****                     auto note_msg = msg.AsNoteOn();
 149:adsr.cpp      **** 
 150:adsr.cpp      ****                     if(note_msg.velocity != 0)
 151:adsr.cpp      ****                         {
 152:adsr.cpp      ****                         mygate = true;
 153:adsr.cpp      ****                         osc.SetFreq(mtof(note_msg.note));
 154:adsr.cpp      ****                         primary.SetFreq(mtof(note_msg.note));
 155:adsr.cpp      ****                 
 156:adsr.cpp      ****                         }
 157:adsr.cpp      ****                         
 158:adsr.cpp      ****                     //if(note_msg.velocity == 0)
 159:adsr.cpp      ****                  
 160:adsr.cpp      ****                 }
 161:adsr.cpp      ****                 break;
 162:adsr.cpp      ****                 //
 163:adsr.cpp      ****                case NoteOff:
 164:adsr.cpp      ****                 {
 165:adsr.cpp      ****                  hw.SetLed(true);
 166:adsr.cpp      ****                  mygate = false;
 167:adsr.cpp      ****                 }
ARM GAS  C:\Users\toesc\AppData\Local\Temp\ccOgcMME.s 			page 63


 168:adsr.cpp      ****                 break;
 169:adsr.cpp      ****                     // Since we only care about note-on messages in this example
 170:adsr.cpp      ****                     // we'll ignore all other message types
 171:adsr.cpp      ****                 default: break;
 172:adsr.cpp      ****             }
 173:adsr.cpp      ****         }
 174:adsr.cpp      ****         filter.SetFreq( fmap(
 1780              		.loc 13 174 9 is_stmt 1 view .LVU498
 1781              		.loc 13 174 23 is_stmt 0 view .LVU499
 1782 01e8 0121     		movs	r1, #1
 1783 01ea 6B48     		ldr	r0, .L106+64
 1784 01ec FFF7FEFF 		bl	_ZNK5daisy9AdcHandle8GetFloatEh
 1785              	.LVL139:
 1786              	.LBB591:
 1787              	.LBI591:
 1788              		.file 16 "../../../DaisySP/Source/Utility/dsp.h"
   1:../../../DaisySP/Source/Utility/dsp.h **** /** Helpful defines, functions, and other utilities for use in/with daisysp modules.
   2:../../../DaisySP/Source/Utility/dsp.h **** */
   3:../../../DaisySP/Source/Utility/dsp.h **** #pragma once
   4:../../../DaisySP/Source/Utility/dsp.h **** #ifndef DSY_CORE_DSP
   5:../../../DaisySP/Source/Utility/dsp.h **** #define DSY_CORE_DSP
   6:../../../DaisySP/Source/Utility/dsp.h **** #include <cassert>
   7:../../../DaisySP/Source/Utility/dsp.h **** #include <cstdint>
   8:../../../DaisySP/Source/Utility/dsp.h **** #include <random>
   9:../../../DaisySP/Source/Utility/dsp.h **** #include <cmath>
  10:../../../DaisySP/Source/Utility/dsp.h **** 
  11:../../../DaisySP/Source/Utility/dsp.h **** /** PIs
  12:../../../DaisySP/Source/Utility/dsp.h **** */
  13:../../../DaisySP/Source/Utility/dsp.h **** #define PI_F 3.1415927410125732421875f
  14:../../../DaisySP/Source/Utility/dsp.h **** #define TWOPI_F (2.0f * PI_F)
  15:../../../DaisySP/Source/Utility/dsp.h **** #define HALFPI_F (PI_F * 0.5f)
  16:../../../DaisySP/Source/Utility/dsp.h **** #define DSY_MIN(in, mn) (in < mn ? in : mn)
  17:../../../DaisySP/Source/Utility/dsp.h **** #define DSY_MAX(in, mx) (in > mx ? in : mx)
  18:../../../DaisySP/Source/Utility/dsp.h **** #define DSY_CLAMP(in, mn, mx) (DSY_MIN(DSY_MAX(in, mn), mx))
  19:../../../DaisySP/Source/Utility/dsp.h **** #define DSY_COUNTOF(_arr) (sizeof(_arr) / sizeof(_arr[0]))
  20:../../../DaisySP/Source/Utility/dsp.h **** 
  21:../../../DaisySP/Source/Utility/dsp.h **** namespace daisysp
  22:../../../DaisySP/Source/Utility/dsp.h **** {
  23:../../../DaisySP/Source/Utility/dsp.h **** //Avoids division for random floats. e.g. rand() * kRandFrac
  24:../../../DaisySP/Source/Utility/dsp.h **** static constexpr float kRandFrac = 1.f / (float)RAND_MAX;
  25:../../../DaisySP/Source/Utility/dsp.h **** 
  26:../../../DaisySP/Source/Utility/dsp.h **** //Convert from semitones to other units. e.g. 2 ^ (kOneTwelfth * x)
  27:../../../DaisySP/Source/Utility/dsp.h **** static constexpr float kOneTwelfth = 1.f / 12.f;
  28:../../../DaisySP/Source/Utility/dsp.h **** 
  29:../../../DaisySP/Source/Utility/dsp.h **** /** efficient floating point min/max
  30:../../../DaisySP/Source/Utility/dsp.h **** c/o stephen mccaul
  31:../../../DaisySP/Source/Utility/dsp.h **** */
  32:../../../DaisySP/Source/Utility/dsp.h **** inline float fmax(float a, float b)
  33:../../../DaisySP/Source/Utility/dsp.h **** {
  34:../../../DaisySP/Source/Utility/dsp.h ****     float r;
  35:../../../DaisySP/Source/Utility/dsp.h **** #ifdef __arm__
  36:../../../DaisySP/Source/Utility/dsp.h ****     asm("vmaxnm.f32 %[d], %[n], %[m]" : [d] "=t"(r) : [n] "t"(a), [m] "t"(b) :);
  37:../../../DaisySP/Source/Utility/dsp.h **** #else
  38:../../../DaisySP/Source/Utility/dsp.h ****     r = (a > b) ? a : b;
  39:../../../DaisySP/Source/Utility/dsp.h **** #endif // __arm__
  40:../../../DaisySP/Source/Utility/dsp.h ****     return r;
  41:../../../DaisySP/Source/Utility/dsp.h **** }
ARM GAS  C:\Users\toesc\AppData\Local\Temp\ccOgcMME.s 			page 64


  42:../../../DaisySP/Source/Utility/dsp.h **** 
  43:../../../DaisySP/Source/Utility/dsp.h **** inline float fmin(float a, float b)
  44:../../../DaisySP/Source/Utility/dsp.h **** {
  45:../../../DaisySP/Source/Utility/dsp.h ****     float r;
  46:../../../DaisySP/Source/Utility/dsp.h **** #ifdef __arm__
  47:../../../DaisySP/Source/Utility/dsp.h ****     asm("vminnm.f32 %[d], %[n], %[m]" : [d] "=t"(r) : [n] "t"(a), [m] "t"(b) :);
  48:../../../DaisySP/Source/Utility/dsp.h **** #else
  49:../../../DaisySP/Source/Utility/dsp.h ****     r = (a < b) ? a : b;
  50:../../../DaisySP/Source/Utility/dsp.h **** #endif // __arm__
  51:../../../DaisySP/Source/Utility/dsp.h ****     return r;
  52:../../../DaisySP/Source/Utility/dsp.h **** }
  53:../../../DaisySP/Source/Utility/dsp.h **** 
  54:../../../DaisySP/Source/Utility/dsp.h **** /** quick fp clamp
  55:../../../DaisySP/Source/Utility/dsp.h **** */
  56:../../../DaisySP/Source/Utility/dsp.h **** inline float fclamp(float in, float min, float max)
  57:../../../DaisySP/Source/Utility/dsp.h **** {
  58:../../../DaisySP/Source/Utility/dsp.h ****     return fmin(fmax(in, min), max);
  59:../../../DaisySP/Source/Utility/dsp.h **** }
  60:../../../DaisySP/Source/Utility/dsp.h **** 
  61:../../../DaisySP/Source/Utility/dsp.h **** /** From Musicdsp.org "Fast power and root estimates for 32bit floats)
  62:../../../DaisySP/Source/Utility/dsp.h **** Original code by Stefan Stenzel
  63:../../../DaisySP/Source/Utility/dsp.h **** These are approximations
  64:../../../DaisySP/Source/Utility/dsp.h **** */
  65:../../../DaisySP/Source/Utility/dsp.h **** inline float fastpower(float f, int n)
  66:../../../DaisySP/Source/Utility/dsp.h **** {
  67:../../../DaisySP/Source/Utility/dsp.h ****     long *lp, l;
  68:../../../DaisySP/Source/Utility/dsp.h ****     lp = (long *)(&f);
  69:../../../DaisySP/Source/Utility/dsp.h ****     l  = *lp;
  70:../../../DaisySP/Source/Utility/dsp.h ****     l -= 0x3F800000;
  71:../../../DaisySP/Source/Utility/dsp.h ****     l <<= (n - 1);
  72:../../../DaisySP/Source/Utility/dsp.h ****     l += 0x3F800000;
  73:../../../DaisySP/Source/Utility/dsp.h ****     *lp = l;
  74:../../../DaisySP/Source/Utility/dsp.h ****     return f;
  75:../../../DaisySP/Source/Utility/dsp.h **** }
  76:../../../DaisySP/Source/Utility/dsp.h **** 
  77:../../../DaisySP/Source/Utility/dsp.h **** inline float fastroot(float f, int n)
  78:../../../DaisySP/Source/Utility/dsp.h **** {
  79:../../../DaisySP/Source/Utility/dsp.h ****     long *lp, l;
  80:../../../DaisySP/Source/Utility/dsp.h ****     lp = (long *)(&f);
  81:../../../DaisySP/Source/Utility/dsp.h ****     l  = *lp;
  82:../../../DaisySP/Source/Utility/dsp.h ****     l -= 0x3F800000;
  83:../../../DaisySP/Source/Utility/dsp.h ****     l >>= (n = 1);
  84:../../../DaisySP/Source/Utility/dsp.h ****     l += 0x3F800000;
  85:../../../DaisySP/Source/Utility/dsp.h ****     *lp = l;
  86:../../../DaisySP/Source/Utility/dsp.h ****     return f;
  87:../../../DaisySP/Source/Utility/dsp.h **** }
  88:../../../DaisySP/Source/Utility/dsp.h **** 
  89:../../../DaisySP/Source/Utility/dsp.h **** /** From http://openaudio.blogspot.com/2017/02/faster-log10-and-pow.html
  90:../../../DaisySP/Source/Utility/dsp.h **** No approximation, pow10f(x) gives a 90% speed increase over powf(10.f, x)
  91:../../../DaisySP/Source/Utility/dsp.h **** */
  92:../../../DaisySP/Source/Utility/dsp.h **** inline float pow10f(float f)
  93:../../../DaisySP/Source/Utility/dsp.h **** {
  94:../../../DaisySP/Source/Utility/dsp.h ****     return expf(2.302585092994046f * f);
  95:../../../DaisySP/Source/Utility/dsp.h **** }
  96:../../../DaisySP/Source/Utility/dsp.h **** 
  97:../../../DaisySP/Source/Utility/dsp.h **** /* Original code for fastlog2f by Dr. Paul Beckmann from the ARM community forum, adapted from the 
  98:../../../DaisySP/Source/Utility/dsp.h **** About 25% performance increase over std::log10f
ARM GAS  C:\Users\toesc\AppData\Local\Temp\ccOgcMME.s 			page 65


  99:../../../DaisySP/Source/Utility/dsp.h **** */
 100:../../../DaisySP/Source/Utility/dsp.h **** inline float fastlog2f(float f)
 101:../../../DaisySP/Source/Utility/dsp.h **** {
 102:../../../DaisySP/Source/Utility/dsp.h ****     float frac;
 103:../../../DaisySP/Source/Utility/dsp.h ****     int   exp;
 104:../../../DaisySP/Source/Utility/dsp.h ****     frac = frexpf(fabsf(f), &exp);
 105:../../../DaisySP/Source/Utility/dsp.h ****     f    = 1.23149591368684f;
 106:../../../DaisySP/Source/Utility/dsp.h ****     f *= frac;
 107:../../../DaisySP/Source/Utility/dsp.h ****     f += -4.11852516267426f;
 108:../../../DaisySP/Source/Utility/dsp.h ****     f *= frac;
 109:../../../DaisySP/Source/Utility/dsp.h ****     f += 6.02197014179219f;
 110:../../../DaisySP/Source/Utility/dsp.h ****     f *= frac;
 111:../../../DaisySP/Source/Utility/dsp.h ****     f += -3.13396450166353f;
 112:../../../DaisySP/Source/Utility/dsp.h ****     f += exp;
 113:../../../DaisySP/Source/Utility/dsp.h ****     return (f);
 114:../../../DaisySP/Source/Utility/dsp.h **** }
 115:../../../DaisySP/Source/Utility/dsp.h **** 
 116:../../../DaisySP/Source/Utility/dsp.h **** inline float fastlog10f(float f)
 117:../../../DaisySP/Source/Utility/dsp.h **** {
 118:../../../DaisySP/Source/Utility/dsp.h ****     return fastlog2f(f) * 0.3010299956639812f;
 119:../../../DaisySP/Source/Utility/dsp.h **** }
 120:../../../DaisySP/Source/Utility/dsp.h **** 
 121:../../../DaisySP/Source/Utility/dsp.h **** /** Midi to frequency helper
 122:../../../DaisySP/Source/Utility/dsp.h **** */
 123:../../../DaisySP/Source/Utility/dsp.h **** inline float mtof(float m)
 124:../../../DaisySP/Source/Utility/dsp.h **** {
 125:../../../DaisySP/Source/Utility/dsp.h ****     return powf(2, (m - 69.0f) / 12.0f) * 440.0f;
 126:../../../DaisySP/Source/Utility/dsp.h **** }
 127:../../../DaisySP/Source/Utility/dsp.h **** 
 128:../../../DaisySP/Source/Utility/dsp.h **** 
 129:../../../DaisySP/Source/Utility/dsp.h **** /** one pole lpf
 130:../../../DaisySP/Source/Utility/dsp.h **** out is passed by reference, and must be retained between
 131:../../../DaisySP/Source/Utility/dsp.h **** calls to properly filter the signal
 132:../../../DaisySP/Source/Utility/dsp.h **** coeff can be calculated:
 133:../../../DaisySP/Source/Utility/dsp.h **** coeff = 1.0 / (time * sample_rate) ; where time is in seconds
 134:../../../DaisySP/Source/Utility/dsp.h **** */
 135:../../../DaisySP/Source/Utility/dsp.h **** inline void fonepole(float &out, float in, float coeff)
 136:../../../DaisySP/Source/Utility/dsp.h **** {
 137:../../../DaisySP/Source/Utility/dsp.h ****     out += coeff * (in - out);
 138:../../../DaisySP/Source/Utility/dsp.h **** }
 139:../../../DaisySP/Source/Utility/dsp.h **** 
 140:../../../DaisySP/Source/Utility/dsp.h **** /** Curves to use with the fmap function */
 141:../../../DaisySP/Source/Utility/dsp.h **** enum class Mapping
 142:../../../DaisySP/Source/Utility/dsp.h **** {
 143:../../../DaisySP/Source/Utility/dsp.h ****     LINEAR,
 144:../../../DaisySP/Source/Utility/dsp.h ****     EXP,
 145:../../../DaisySP/Source/Utility/dsp.h ****     LOG,
 146:../../../DaisySP/Source/Utility/dsp.h **** };
 147:../../../DaisySP/Source/Utility/dsp.h **** 
 148:../../../DaisySP/Source/Utility/dsp.h **** /** Maps a float between a specified range, using a specified curve. 
 149:../../../DaisySP/Source/Utility/dsp.h ****  * 
 150:../../../DaisySP/Source/Utility/dsp.h ****  *  \param in a value between 0 to 1 that will be mapped to the new range.
 151:../../../DaisySP/Source/Utility/dsp.h ****  *  \param min the new minimum value
 152:../../../DaisySP/Source/Utility/dsp.h ****  *  \param max the new maxmimum value
 153:../../../DaisySP/Source/Utility/dsp.h ****  *  \param curve a Mapping Value to adjust the response curve of the transformation
 154:../../../DaisySP/Source/Utility/dsp.h ****  *               defaults to Linear. @see Mapping
 155:../../../DaisySP/Source/Utility/dsp.h ****  * 
ARM GAS  C:\Users\toesc\AppData\Local\Temp\ccOgcMME.s 			page 66


 156:../../../DaisySP/Source/Utility/dsp.h ****  *  When using the log curve min and max, must be greater than zero.
 157:../../../DaisySP/Source/Utility/dsp.h ****  * 
 158:../../../DaisySP/Source/Utility/dsp.h ****  *  \retval returns the transformed float within the new range.
 159:../../../DaisySP/Source/Utility/dsp.h **** */
 160:../../../DaisySP/Source/Utility/dsp.h **** inline float
 161:../../../DaisySP/Source/Utility/dsp.h **** fmap(float in, float min, float max, Mapping curve = Mapping::LINEAR)
 1789              		.loc 16 161 1 is_stmt 1 view .LVU500
 1790              	.LBE591:
 1791              	.LBE582:
 162:../../../DaisySP/Source/Utility/dsp.h **** {
 163:../../../DaisySP/Source/Utility/dsp.h ****     switch(curve)
 1792              		.loc 16 163 5 view .LVU501
 1793              	.LBB703:
 1794              	.LBB606:
 1795              	.LBB592:
 164:../../../DaisySP/Source/Utility/dsp.h ****     {
 165:../../../DaisySP/Source/Utility/dsp.h ****         case Mapping::EXP:
 166:../../../DaisySP/Source/Utility/dsp.h ****             return fclamp(min + (in * in) * (max - min), min, max);
 167:../../../DaisySP/Source/Utility/dsp.h ****         case Mapping::LOG:
 168:../../../DaisySP/Source/Utility/dsp.h ****         {
 169:../../../DaisySP/Source/Utility/dsp.h ****             const float a = 1.f / log10f(max / min);
 170:../../../DaisySP/Source/Utility/dsp.h ****             return fclamp(min * powf(10, in / a), min, max);
 171:../../../DaisySP/Source/Utility/dsp.h ****         }
 172:../../../DaisySP/Source/Utility/dsp.h ****         case Mapping::LINEAR:
 1796              		.loc 16 172 9 view .LVU502
 173:../../../DaisySP/Source/Utility/dsp.h ****         default: return fclamp(min + in * (max - min), min, max);
 1797              		.loc 16 173 9 view .LVU503
 1798              		.loc 16 173 18 view .LVU504
 1799              		.loc 16 173 31 is_stmt 0 view .LVU505
 1800 01f0 9FED6C7A 		vldr.32	s14, .L106+76
 1801 01f4 DFED6C6A 		vldr.32	s13, .L106+80
 1802              	.LBE592:
 1803              	.LBE606:
 175:adsr.cpp      ****             hw.adc.GetFloat( 1 ),
 176:adsr.cpp      ****             50.0,
 177:adsr.cpp      ****             2000.0
 178:adsr.cpp      ****         ) );
 179:adsr.cpp      ****         verb.SetFeedback( fmap(
 1804              		.loc 13 179 31 view .LVU506
 1805 01f8 0021     		movs	r1, #0
 1806              	.LBB607:
 1807              	.LBB603:
 1808              		.loc 16 173 31 view .LVU507
 1809 01fa F0EE477A 		vmov.f32	s15, s14
 1810              	.LBE603:
 1811              	.LBE607:
 1812              		.loc 13 179 31 view .LVU508
 1813 01fe 6648     		ldr	r0, .L106+64
 1814              	.LBB608:
 1815              	.LBB609:
 1816              		.loc 16 173 31 view .LVU509
 1817 0200 9FED6A8A 		vldr.32	s16, .L106+84
 1818              	.LBE609:
 1819              	.LBE608:
 1820              	.LBB623:
 1821              	.LBB604:
 1822 0204 E0EE267A 		vfma.f32	s15, s0, s13
ARM GAS  C:\Users\toesc\AppData\Local\Temp\ccOgcMME.s 			page 67


 1823              	.LVL140:
 1824              	.LBB593:
 1825              	.LBI593:
  56:../../../DaisySP/Source/Utility/dsp.h **** {
 1826              		.loc 16 56 14 is_stmt 1 view .LVU510
 1827              	.LBE593:
 1828              	.LBE604:
 1829              	.LBE623:
 1830              	.LBE703:
  58:../../../DaisySP/Source/Utility/dsp.h **** }
 1831              		.loc 16 58 5 view .LVU511
 1832              	.LBB704:
 1833              	.LBB624:
 1834              	.LBB605:
 1835              	.LBB602:
 1836              	.LBB594:
 1837              	.LBI594:
  32:../../../DaisySP/Source/Utility/dsp.h **** {
 1838              		.loc 16 32 14 view .LVU512
 1839              	.LBB595:
  34:../../../DaisySP/Source/Utility/dsp.h **** #ifdef __arm__
 1840              		.loc 16 34 5 view .LVU513
  36:../../../DaisySP/Source/Utility/dsp.h **** #else
 1841              		.loc 16 36 5 view .LVU514
 1842              	.LBE595:
 1843              	.LBE594:
 1844              	.LBB597:
 1845              	.LBB598:
  47:../../../DaisySP/Source/Utility/dsp.h **** #else
 1846              		.loc 16 47 5 is_stmt 0 view .LVU515
 1847 0208 DFED696A 		vldr.32	s13, .L106+88
 1848              	.LBE598:
 1849              	.LBE597:
 1850              	.LBB600:
 1851              	.LBB596:
  36:../../../DaisySP/Source/Utility/dsp.h **** #else
 1852              		.loc 16 36 5 view .LVU516
 1853              		.syntax unified
 1854              	@ 36 "../../../DaisySP/Source/Utility/dsp.h" 1
 1855 020c C7FE877A 		vmaxnm.f32 s15, s15, s14
 1856              	@ 0 "" 2
 1857              	.LVL141:
  40:../../../DaisySP/Source/Utility/dsp.h **** }
 1858              		.loc 16 40 5 is_stmt 1 view .LVU517
  40:../../../DaisySP/Source/Utility/dsp.h **** }
 1859              		.loc 16 40 5 is_stmt 0 view .LVU518
 1860              		.thumb
 1861              		.syntax unified
 1862              	.LBE596:
 1863              	.LBE600:
 1864              	.LBB601:
 1865              	.LBI597:
  43:../../../DaisySP/Source/Utility/dsp.h **** {
 1866              		.loc 16 43 14 is_stmt 1 view .LVU519
 1867              	.LBB599:
  45:../../../DaisySP/Source/Utility/dsp.h **** #ifdef __arm__
 1868              		.loc 16 45 5 view .LVU520
ARM GAS  C:\Users\toesc\AppData\Local\Temp\ccOgcMME.s 			page 68


  47:../../../DaisySP/Source/Utility/dsp.h **** #else
 1869              		.loc 16 47 5 view .LVU521
 1870              		.syntax unified
 1871              	@ 47 "../../../DaisySP/Source/Utility/dsp.h" 1
 1872 0210 C7FEE67A 		vminnm.f32 s15, s15, s13
 1873              	@ 0 "" 2
 1874              	.LVL142:
  51:../../../DaisySP/Source/Utility/dsp.h **** }
 1875              		.loc 16 51 5 view .LVU522
  51:../../../DaisySP/Source/Utility/dsp.h **** }
 1876              		.loc 16 51 5 is_stmt 0 view .LVU523
 1877              		.thumb
 1878              		.syntax unified
 1879              	.LBE599:
 1880              	.LBE601:
 1881              	.LBE602:
 1882              	.LBE605:
 1883              	.LBE624:
 1884              	.LBB625:
 1885              	.LBI625:
  37:../../../DaisySP/Source/Filters/moogladder.h ****     /** 
 1886              		.loc 4 37 17 is_stmt 1 view .LVU524
 1887              	.LBB626:
  37:../../../DaisySP/Source/Filters/moogladder.h ****     /** 
 1888              		.loc 4 37 39 view .LVU525
  37:../../../DaisySP/Source/Filters/moogladder.h ****     /** 
 1889              		.loc 4 37 45 is_stmt 0 view .LVU526
 1890 0214 CAED027A 		vstr.32	s15, [r10, #8]
 1891              	.LVL143:
  37:../../../DaisySP/Source/Filters/moogladder.h ****     /** 
 1892              		.loc 4 37 45 view .LVU527
 1893              	.LBE626:
 1894              	.LBE625:
 1895              		.loc 13 179 9 is_stmt 1 view .LVU528
 1896              		.loc 13 179 31 is_stmt 0 view .LVU529
 1897 0218 FFF7FEFF 		bl	_ZNK5daisy9AdcHandle8GetFloatEh
 1898              	.LVL144:
 1899              	.LBB627:
 1900              	.LBI627:
 161:../../../DaisySP/Source/Utility/dsp.h **** {
 1901              		.loc 16 161 1 is_stmt 1 view .LVU530
 1902              	.LBE627:
 1903              	.LBE704:
 163:../../../DaisySP/Source/Utility/dsp.h ****     {
 1904              		.loc 16 163 5 view .LVU531
 1905              	.LBB705:
 1906              	.LBB638:
 1907              	.LBB628:
 172:../../../DaisySP/Source/Utility/dsp.h ****         default: return fclamp(min + in * (max - min), min, max);
 1908              		.loc 16 172 9 view .LVU532
 1909              		.loc 16 173 9 view .LVU533
 1910              		.loc 16 173 18 view .LVU534
 1911              		.loc 16 173 31 is_stmt 0 view .LVU535
 1912 021c DFED656A 		vldr.32	s13, .L106+92
 1913              	.LBE628:
 1914              	.LBE638:
 180:adsr.cpp      ****             hw.adc.GetFloat( 0 ),
ARM GAS  C:\Users\toesc\AppData\Local\Temp\ccOgcMME.s 			page 69


 181:adsr.cpp      ****             0.0,
 182:adsr.cpp      ****             0.95
 183:adsr.cpp      ****         ) ); 
 184:adsr.cpp      ****       
 185:adsr.cpp      ****        myattack = (fmap(
 1915              		.loc 13 185 24 view .LVU536
 1916 0220 0221     		movs	r1, #2
 1917              	.LBB639:
 1918              	.LBB635:
 1919              		.loc 16 173 31 view .LVU537
 1920 0222 DFED657A 		vldr.32	s15, .L106+96
 1921 0226 B0EE667A 		vmov.f32	s14, s13
 1922              	.LBE635:
 1923              	.LBE639:
 1924              		.loc 13 185 24 view .LVU538
 1925 022a 5B48     		ldr	r0, .L106+64
 1926              	.LBB640:
 1927              	.LBB636:
 1928              		.loc 16 173 31 view .LVU539
 1929 022c A0EE277A 		vfma.f32	s14, s0, s15
 1930              	.LVL145:
 1931              	.LBB629:
 1932              	.LBI629:
  56:../../../DaisySP/Source/Utility/dsp.h **** {
 1933              		.loc 16 56 14 is_stmt 1 view .LVU540
 1934              	.LBE629:
 1935              	.LBE636:
 1936              	.LBE640:
 1937              	.LBE705:
  58:../../../DaisySP/Source/Utility/dsp.h **** }
 1938              		.loc 16 58 5 view .LVU541
 1939              	.LBB706:
 1940              	.LBB641:
 1941              	.LBB637:
 1942              	.LBB634:
 1943              	.LBB630:
 1944              	.LBI630:
  32:../../../DaisySP/Source/Utility/dsp.h **** {
 1945              		.loc 16 32 14 view .LVU542
 1946              	.LBB631:
  34:../../../DaisySP/Source/Utility/dsp.h **** #ifdef __arm__
 1947              		.loc 16 34 5 view .LVU543
  36:../../../DaisySP/Source/Utility/dsp.h **** #else
 1948              		.loc 16 36 5 view .LVU544
 1949              		.syntax unified
 1950              	@ 36 "../../../DaisySP/Source/Utility/dsp.h" 1
 1951 0230 87FE267A 		vmaxnm.f32 s14, s14, s13
 1952              	@ 0 "" 2
 1953              	.LVL146:
  40:../../../DaisySP/Source/Utility/dsp.h **** }
 1954              		.loc 16 40 5 view .LVU545
  40:../../../DaisySP/Source/Utility/dsp.h **** }
 1955              		.loc 16 40 5 is_stmt 0 view .LVU546
 1956              		.thumb
 1957              		.syntax unified
 1958              	.LBE631:
 1959              	.LBE630:
ARM GAS  C:\Users\toesc\AppData\Local\Temp\ccOgcMME.s 			page 70


 1960              	.LBB632:
 1961              	.LBI632:
  43:../../../DaisySP/Source/Utility/dsp.h **** {
 1962              		.loc 16 43 14 is_stmt 1 view .LVU547
 1963              	.LBB633:
  45:../../../DaisySP/Source/Utility/dsp.h **** #ifdef __arm__
 1964              		.loc 16 45 5 view .LVU548
  47:../../../DaisySP/Source/Utility/dsp.h **** #else
 1965              		.loc 16 47 5 view .LVU549
 1966              		.syntax unified
 1967              	@ 47 "../../../DaisySP/Source/Utility/dsp.h" 1
 1968 0234 87FE677A 		vminnm.f32 s14, s14, s15
 1969              	@ 0 "" 2
 1970              	.LVL147:
  51:../../../DaisySP/Source/Utility/dsp.h **** }
 1971              		.loc 16 51 5 view .LVU550
  51:../../../DaisySP/Source/Utility/dsp.h **** }
 1972              		.loc 16 51 5 is_stmt 0 view .LVU551
 1973              		.thumb
 1974              		.syntax unified
 1975              	.LBE633:
 1976              	.LBE632:
 1977              	.LBE634:
 1978              	.LBE637:
 1979              	.LBE641:
 1980              	.LBB642:
 1981              	.LBI642:
  54:../../../DaisySP/Source/Effects/reverbsc.h ****     /** controls the internal dampening filter's cutoff frequency.
 1982              		.loc 3 54 17 is_stmt 1 view .LVU552
 1983              	.LBB643:
  54:../../../DaisySP/Source/Effects/reverbsc.h ****     /** controls the internal dampening filter's cutoff frequency.
 1984              		.loc 3 54 48 view .LVU553
  54:../../../DaisySP/Source/Effects/reverbsc.h ****     /** controls the internal dampening filter's cutoff frequency.
 1985              		.loc 3 54 58 is_stmt 0 view .LVU554
 1986 0238 89ED007A 		vstr.32	s14, [r9]
 1987              	.LVL148:
  54:../../../DaisySP/Source/Effects/reverbsc.h ****     /** controls the internal dampening filter's cutoff frequency.
 1988              		.loc 3 54 58 view .LVU555
 1989              	.LBE643:
 1990              	.LBE642:
 1991              		.loc 13 185 8 is_stmt 1 view .LVU556
 1992              		.loc 13 185 24 is_stmt 0 view .LVU557
 1993 023c FFF7FEFF 		bl	_ZNK5daisy9AdcHandle8GetFloatEh
 1994              	.LVL149:
 1995              	.LBB644:
 1996              	.LBI608:
 161:../../../DaisySP/Source/Utility/dsp.h **** {
 1997              		.loc 16 161 1 is_stmt 1 view .LVU558
 1998              	.LBE644:
 1999              	.LBE706:
 163:../../../DaisySP/Source/Utility/dsp.h ****     {
 2000              		.loc 16 163 5 view .LVU559
 2001              	.LBB707:
 2002              	.LBB645:
 2003              	.LBB620:
 172:../../../DaisySP/Source/Utility/dsp.h ****         default: return fclamp(min + in * (max - min), min, max);
 2004              		.loc 16 172 9 view .LVU560
ARM GAS  C:\Users\toesc\AppData\Local\Temp\ccOgcMME.s 			page 71


 2005              		.loc 16 173 9 view .LVU561
 2006              		.loc 16 173 18 view .LVU562
 2007              		.loc 16 173 31 is_stmt 0 view .LVU563
 2008 0240 B0EE487A 		vmov.f32	s14, s16
 2009 0244 DFED5D7A 		vldr.32	s15, .L106+100
 2010              	.LBE620:
 2011              	.LBE645:
 186:adsr.cpp      ****            hw.adc.GetFloat( 2 ),
 187:adsr.cpp      ****            0.1,
 188:adsr.cpp      ****            2)
 189:adsr.cpp      ****         );
 190:adsr.cpp      **** 
 191:adsr.cpp      ****         myrelease = (fmap(
 2012              		.loc 13 191 26 view .LVU564
 2013 0248 0321     		movs	r1, #3
 2014 024a 5348     		ldr	r0, .L106+64
 2015              	.LBB646:
 2016              	.LBB621:
 2017              		.loc 16 173 31 view .LVU565
 2018 024c A0EE277A 		vfma.f32	s14, s0, s15
 2019              	.LVL150:
 2020              	.LBB610:
 2021              	.LBI610:
  56:../../../DaisySP/Source/Utility/dsp.h **** {
 2022              		.loc 16 56 14 is_stmt 1 view .LVU566
 2023              	.LBE610:
 2024              	.LBE621:
 2025              	.LBE646:
 2026              	.LBE707:
  58:../../../DaisySP/Source/Utility/dsp.h **** }
 2027              		.loc 16 58 5 view .LVU567
 2028              	.LBB708:
 2029              	.LBB647:
 2030              	.LBB622:
 2031              	.LBB619:
 2032              	.LBB611:
 2033              	.LBI611:
  32:../../../DaisySP/Source/Utility/dsp.h **** {
 2034              		.loc 16 32 14 view .LVU568
 2035              	.LBB612:
  34:../../../DaisySP/Source/Utility/dsp.h **** #ifdef __arm__
 2036              		.loc 16 34 5 view .LVU569
  36:../../../DaisySP/Source/Utility/dsp.h **** #else
 2037              		.loc 16 36 5 view .LVU570
 2038              	.LBE612:
 2039              	.LBE611:
 2040              	.LBB614:
 2041              	.LBB615:
  47:../../../DaisySP/Source/Utility/dsp.h **** #else
 2042              		.loc 16 47 5 is_stmt 0 view .LVU571
 2043 0250 F0EE007A 		vmov.f32	s15, #2.0e+0
 2044              	.LBE615:
 2045              	.LBE614:
 2046              	.LBB617:
 2047              	.LBB613:
  36:../../../DaisySP/Source/Utility/dsp.h **** #else
 2048              		.loc 16 36 5 view .LVU572
ARM GAS  C:\Users\toesc\AppData\Local\Temp\ccOgcMME.s 			page 72


 2049              		.syntax unified
 2050              	@ 36 "../../../DaisySP/Source/Utility/dsp.h" 1
 2051 0254 87FE087A 		vmaxnm.f32 s14, s14, s16
 2052              	@ 0 "" 2
 2053              	.LVL151:
  40:../../../DaisySP/Source/Utility/dsp.h **** }
 2054              		.loc 16 40 5 is_stmt 1 view .LVU573
  40:../../../DaisySP/Source/Utility/dsp.h **** }
 2055              		.loc 16 40 5 is_stmt 0 view .LVU574
 2056              		.thumb
 2057              		.syntax unified
 2058              	.LBE613:
 2059              	.LBE617:
 2060              	.LBB618:
 2061              	.LBI614:
  43:../../../DaisySP/Source/Utility/dsp.h **** {
 2062              		.loc 16 43 14 is_stmt 1 view .LVU575
 2063              	.LBB616:
  45:../../../DaisySP/Source/Utility/dsp.h **** #ifdef __arm__
 2064              		.loc 16 45 5 view .LVU576
  47:../../../DaisySP/Source/Utility/dsp.h **** #else
 2065              		.loc 16 47 5 view .LVU577
 2066              		.syntax unified
 2067              	@ 47 "../../../DaisySP/Source/Utility/dsp.h" 1
 2068 0258 87FE677A 		vminnm.f32 s14, s14, s15
 2069              	@ 0 "" 2
 2070              	.LVL152:
  51:../../../DaisySP/Source/Utility/dsp.h **** }
 2071              		.loc 16 51 5 view .LVU578
  51:../../../DaisySP/Source/Utility/dsp.h **** }
 2072              		.loc 16 51 5 is_stmt 0 view .LVU579
 2073              		.thumb
 2074              		.syntax unified
 2075              	.LBE616:
 2076              	.LBE618:
 2077              	.LBE619:
 2078              	.LBE622:
 2079              	.LBE647:
 185:adsr.cpp      ****            hw.adc.GetFloat( 2 ),
 2080              		.loc 13 185 17 view .LVU580
 2081 025c 87ED007A 		vstr.32	s14, [r7]
 2082              		.loc 13 191 9 is_stmt 1 view .LVU581
 2083              		.loc 13 191 26 is_stmt 0 view .LVU582
 2084 0260 FFF7FEFF 		bl	_ZNK5daisy9AdcHandle8GetFloatEh
 2085              	.LVL153:
 2086              	.LBB648:
 2087              	.LBB649:
 2088              		.loc 16 173 31 view .LVU583
 2089 0264 F0EE487A 		vmov.f32	s15, s16
 2090 0268 9FED557A 		vldr.32	s14, .L106+104
 2091              	.LBE649:
 2092              	.LBE648:
 2093              		.loc 13 191 26 view .LVU584
 2094 026c F0EE406A 		vmov.f32	s13, s0
 2095              	.LVL154:
 2096              	.LBB663:
 2097              	.LBI648:
ARM GAS  C:\Users\toesc\AppData\Local\Temp\ccOgcMME.s 			page 73


 161:../../../DaisySP/Source/Utility/dsp.h **** {
 2098              		.loc 16 161 1 is_stmt 1 view .LVU585
 2099              	.LBE663:
 2100              	.LBE708:
 163:../../../DaisySP/Source/Utility/dsp.h ****     {
 2101              		.loc 16 163 5 view .LVU586
 2102              	.LBB709:
 2103              	.LBB664:
 2104              	.LBB660:
 172:../../../DaisySP/Source/Utility/dsp.h ****         default: return fclamp(min + in * (max - min), min, max);
 2105              		.loc 16 172 9 view .LVU587
 2106              		.loc 16 173 9 view .LVU588
 2107              		.loc 16 173 18 view .LVU589
 2108              	.LBE660:
 2109              	.LBE664:
 192:adsr.cpp      ****            hw.adc.GetFloat( 3),
 193:adsr.cpp      ****           0.1,
 194:adsr.cpp      ****           3) 
 195:adsr.cpp      ****        );
 196:adsr.cpp      ****         env.SetTime(ADSR_SEG_ATTACK, myattack);
 2110              		.loc 13 196 20 is_stmt 0 view .LVU590
 2111 0270 0121     		movs	r1, #1
 2112 0272 97ED000A 		vldr.32	s0, [r7]
 2113              	.LVL155:
 2114              		.loc 13 196 20 view .LVU591
 2115 0276 5348     		ldr	r0, .L106+108
 2116              	.LBB665:
 2117              	.LBB661:
 2118              		.loc 16 173 31 view .LVU592
 2119 0278 E6EE877A 		vfma.f32	s15, s13, s14
 2120              	.LVL156:
 2121              	.LBB650:
 2122              	.LBI650:
  56:../../../DaisySP/Source/Utility/dsp.h **** {
 2123              		.loc 16 56 14 is_stmt 1 view .LVU593
 2124              	.LBE650:
 2125              	.LBE661:
 2126              	.LBE665:
 2127              	.LBE709:
  58:../../../DaisySP/Source/Utility/dsp.h **** }
 2128              		.loc 16 58 5 view .LVU594
 2129              	.LBB710:
 2130              	.LBB666:
 2131              	.LBB662:
 2132              	.LBB659:
 2133              	.LBB651:
 2134              	.LBI651:
  32:../../../DaisySP/Source/Utility/dsp.h **** {
 2135              		.loc 16 32 14 view .LVU595
 2136              	.LBB652:
  34:../../../DaisySP/Source/Utility/dsp.h **** #ifdef __arm__
 2137              		.loc 16 34 5 view .LVU596
  36:../../../DaisySP/Source/Utility/dsp.h **** #else
 2138              		.loc 16 36 5 view .LVU597
 2139              	.LBE652:
 2140              	.LBE651:
 2141              	.LBB654:
ARM GAS  C:\Users\toesc\AppData\Local\Temp\ccOgcMME.s 			page 74


 2142              	.LBB655:
  47:../../../DaisySP/Source/Utility/dsp.h **** #else
 2143              		.loc 16 47 5 is_stmt 0 view .LVU598
 2144 027c B0EE087A 		vmov.f32	s14, #3.0e+0
 2145              	.LBE655:
 2146              	.LBE654:
 2147              	.LBB657:
 2148              	.LBB653:
  36:../../../DaisySP/Source/Utility/dsp.h **** #else
 2149              		.loc 16 36 5 view .LVU599
 2150              		.syntax unified
 2151              	@ 36 "../../../DaisySP/Source/Utility/dsp.h" 1
 2152 0280 C7FE887A 		vmaxnm.f32 s15, s15, s16
 2153              	@ 0 "" 2
 2154              	.LVL157:
  40:../../../DaisySP/Source/Utility/dsp.h **** }
 2155              		.loc 16 40 5 is_stmt 1 view .LVU600
  40:../../../DaisySP/Source/Utility/dsp.h **** }
 2156              		.loc 16 40 5 is_stmt 0 view .LVU601
 2157              		.thumb
 2158              		.syntax unified
 2159              	.LBE653:
 2160              	.LBE657:
 2161              	.LBB658:
 2162              	.LBI654:
  43:../../../DaisySP/Source/Utility/dsp.h **** {
 2163              		.loc 16 43 14 is_stmt 1 view .LVU602
 2164              	.LBB656:
  45:../../../DaisySP/Source/Utility/dsp.h **** #ifdef __arm__
 2165              		.loc 16 45 5 view .LVU603
  47:../../../DaisySP/Source/Utility/dsp.h **** #else
 2166              		.loc 16 47 5 view .LVU604
 2167              		.syntax unified
 2168              	@ 47 "../../../DaisySP/Source/Utility/dsp.h" 1
 2169 0284 C7FEC77A 		vminnm.f32 s15, s15, s14
 2170              	@ 0 "" 2
 2171              	.LVL158:
  51:../../../DaisySP/Source/Utility/dsp.h **** }
 2172              		.loc 16 51 5 view .LVU605
  51:../../../DaisySP/Source/Utility/dsp.h **** }
 2173              		.loc 16 51 5 is_stmt 0 view .LVU606
 2174              		.thumb
 2175              		.syntax unified
 2176              	.LBE656:
 2177              	.LBE658:
 2178              	.LBE659:
 2179              	.LBE662:
 2180              	.LBE666:
 191:adsr.cpp      ****            hw.adc.GetFloat( 3),
 2181              		.loc 13 191 19 view .LVU607
 2182 0288 C6ED007A 		vstr.32	s15, [r6]
 2183              		.loc 13 196 9 is_stmt 1 view .LVU608
 2184              		.loc 13 196 20 is_stmt 0 view .LVU609
 2185 028c FFF7FEFF 		bl	_ZN7daisysp4Adsr7SetTimeEif
 2186              	.LVL159:
 197:adsr.cpp      ****         env.SetTime(ADSR_SEG_RELEASE, myrelease);
 2187              		.loc 13 197 9 is_stmt 1 view .LVU610
ARM GAS  C:\Users\toesc\AppData\Local\Temp\ccOgcMME.s 			page 75


 2188              		.loc 13 197 20 is_stmt 0 view .LVU611
 2189 0290 96ED000A 		vldr.32	s0, [r6]
 2190 0294 0421     		movs	r1, #4
 2191 0296 4B48     		ldr	r0, .L106+108
 2192 0298 FFF7FEFF 		bl	_ZN7daisysp4Adsr7SetTimeEif
 2193              	.LVL160:
 2194              	.LBE710:
 124:adsr.cpp      ****      {
 2195              		.loc 13 124 5 is_stmt 1 view .LVU612
 198:adsr.cpp      ****     }
 2196              		.loc 13 198 5 is_stmt 0 view .LVU613
 2197 029c 82E7     		b	.L93
 2198              	.L89:
 2199              	.LBB711:
 2200              	.LBB667:
 2201              	.LBB668:
 2202              	.LBB669:
 2203              	.LBB670:
  59:../../../libDaisy/src/util/ringbuffer.h ****     }
  60:../../../libDaisy/src/util/ringbuffer.h **** 
  61:../../../libDaisy/src/util/ringbuffer.h ****     /** Reads the first available element from the ring buffer
  62:../../../libDaisy/src/util/ringbuffer.h ****     \return read value
  63:../../../libDaisy/src/util/ringbuffer.h ****      */
  64:../../../libDaisy/src/util/ringbuffer.h ****     inline T Read()
  65:../../../libDaisy/src/util/ringbuffer.h ****     {
  66:../../../libDaisy/src/util/ringbuffer.h ****         while(!readable())
 2204              		.loc 14 66 24 is_stmt 1 view .LVU614
 2205              	.LVL161:
 2206              	.LBB671:
 2207              	.LBI671:
  36:../../../libDaisy/src/util/ringbuffer.h **** 
 2208              		.loc 14 36 19 view .LVU615
 2209              	.LBB672:
  36:../../../libDaisy/src/util/ringbuffer.h **** 
 2210              		.loc 14 36 46 is_stmt 0 view .LVU616
 2211 029e D4F89C30 		ldr	r3, [r4, #156]
  36:../../../libDaisy/src/util/ringbuffer.h **** 
 2212              		.loc 14 36 59 view .LVU617
 2213 02a2 D4F89820 		ldr	r2, [r4, #152]
 2214              	.LVL162:
  36:../../../libDaisy/src/util/ringbuffer.h **** 
 2215              		.loc 14 36 57 view .LVU618
 2216 02a6 9B1A     		subs	r3, r3, r2
  36:../../../libDaisy/src/util/ringbuffer.h **** 
 2217              		.loc 14 36 72 view .LVU619
 2218 02a8 DBB2     		uxtb	r3, r3
 2219              	.LBE672:
 2220              	.LBE671:
 2221              		.loc 14 66 24 view .LVU620
 2222 02aa 002B     		cmp	r3, #0
 2223 02ac F7D0     		beq	.L89
 2224              	.LVL163:
 2225              	.LBB673:
 2226              	.LBI673:
  67:../../../libDaisy/src/util/ringbuffer.h ****             ;
  68:../../../libDaisy/src/util/ringbuffer.h ****         return ImmediateRead();
  69:../../../libDaisy/src/util/ringbuffer.h ****     }
ARM GAS  C:\Users\toesc\AppData\Local\Temp\ccOgcMME.s 			page 76


  70:../../../libDaisy/src/util/ringbuffer.h **** 
  71:../../../libDaisy/src/util/ringbuffer.h ****     /** Reads next element from ring buffer immediately
  72:../../../libDaisy/src/util/ringbuffer.h ****     \return read value
  73:../../../libDaisy/src/util/ringbuffer.h ****      */
  74:../../../libDaisy/src/util/ringbuffer.h ****     inline T ImmediateRead()
 2227              		.loc 14 74 14 is_stmt 1 view .LVU621
 2228              	.LBB674:
  75:../../../libDaisy/src/util/ringbuffer.h ****     {
  76:../../../libDaisy/src/util/ringbuffer.h ****         size_t r      = read_ptr_;
 2229              		.loc 14 76 16 is_stmt 0 view .LVU622
 2230 02ae D4F89820 		ldr	r2, [r4, #152]
 2231              	.LVL164:
  77:../../../libDaisy/src/util/ringbuffer.h ****         T      result = buffer_[r];
 2232              		.loc 14 77 16 view .LVU623
 2233 02b2 02EBC203 		add	r3, r2, r2, lsl #3
  78:../../../libDaisy/src/util/ringbuffer.h ****         read_ptr_     = (r + 1) % size;
 2234              		.loc 14 78 28 view .LVU624
 2235 02b6 0132     		adds	r2, r2, #1
 2236              	.LVL165:
  77:../../../libDaisy/src/util/ringbuffer.h ****         T      result = buffer_[r];
 2237              		.loc 14 77 16 view .LVU625
 2238 02b8 1B01     		lsls	r3, r3, #4
 2239              		.loc 14 78 33 view .LVU626
 2240 02ba D2B2     		uxtb	r2, r2
  77:../../../libDaisy/src/util/ringbuffer.h ****         T      result = buffer_[r];
 2241              		.loc 14 77 16 view .LVU627
 2242 02bc 1BF80350 		ldrb	r5, [fp, r3]	@ zero_extendqisi2
 2243              	.LVL166:
  77:../../../libDaisy/src/util/ringbuffer.h ****         T      result = buffer_[r];
 2244              		.loc 14 77 16 view .LVU628
 2245 02c0 4344     		add	r3, r3, r8
 2246              		.loc 14 78 23 view .LVU629
 2247 02c2 C4F89820 		str	r2, [r4, #152]
 2248              	.LVL167:
  77:../../../libDaisy/src/util/ringbuffer.h ****         T      result = buffer_[r];
 2249              		.loc 14 77 16 view .LVU630
 2250 02c6 93F8A020 		ldrb	r2, [r3, #160]	@ zero_extendqisi2
 2251              	.LVL168:
  77:../../../libDaisy/src/util/ringbuffer.h ****         T      result = buffer_[r];
 2252              		.loc 14 77 16 view .LVU631
 2253 02ca 93F8A130 		ldrb	r3, [r3, #161]	@ zero_extendqisi2
 2254              	.LVL169:
  77:../../../libDaisy/src/util/ringbuffer.h ****         T      result = buffer_[r];
 2255              		.loc 14 77 16 view .LVU632
 2256              	.LBE674:
 2257              	.LBE673:
 2258              	.LBE670:
 2259              	.LBE669:
 2260              	.LBE668:
 143:adsr.cpp      ****             {
 2261              		.loc 13 143 13 is_stmt 1 view .LVU633
 2262              	.LBB675:
 2263 02ce 95B3     		cbz	r5, .L90
 2264              	.LBB676:
 145:adsr.cpp      ****                 {
 2265              		.loc 13 145 17 view .LVU634
 146:adsr.cpp      ****                     /** and change the frequency of the oscillator */
ARM GAS  C:\Users\toesc\AppData\Local\Temp\ccOgcMME.s 			page 77


 2266              		.loc 13 146 17 view .LVU635
 2267              	.LBB677:
 148:adsr.cpp      **** 
 2268              		.loc 13 148 21 view .LVU636
 2269              	.LVL170:
 2270              	.LBB678:
 2271              	.LBI678:
 2272              		.file 17 "../../../libDaisy/src/hid/MidiEvent.h"
   1:../../../libDaisy/src/hid/MidiEvent.h **** namespace daisy
   2:../../../libDaisy/src/hid/MidiEvent.h **** {
   3:../../../libDaisy/src/hid/MidiEvent.h **** /** @addtogroup midi MIDI
   4:../../../libDaisy/src/hid/MidiEvent.h ****  *  @ingroup human_interface
   5:../../../libDaisy/src/hid/MidiEvent.h ****  *  @ingroup libdaisy
   6:../../../libDaisy/src/hid/MidiEvent.h ****  *  @brief MIDI handlers, transports, and message types
   7:../../../libDaisy/src/hid/MidiEvent.h ****  *  @{
   8:../../../libDaisy/src/hid/MidiEvent.h ****  */
   9:../../../libDaisy/src/hid/MidiEvent.h **** 
  10:../../../libDaisy/src/hid/MidiEvent.h **** /** @defgroup midi_events MIDI_EVENTS 
  11:../../../libDaisy/src/hid/MidiEvent.h ****  *  @{
  12:../../../libDaisy/src/hid/MidiEvent.h **** */
  13:../../../libDaisy/src/hid/MidiEvent.h **** 
  14:../../../libDaisy/src/hid/MidiEvent.h **** /** Parsed from the Status Byte, these are the common Midi Messages that can be handled. \n
  15:../../../libDaisy/src/hid/MidiEvent.h **** At this time only 3-byte messages are correctly parsed into MidiEvents.
  16:../../../libDaisy/src/hid/MidiEvent.h **** */
  17:../../../libDaisy/src/hid/MidiEvent.h **** enum MidiMessageType
  18:../../../libDaisy/src/hid/MidiEvent.h **** {
  19:../../../libDaisy/src/hid/MidiEvent.h ****     NoteOff,               /**< & */
  20:../../../libDaisy/src/hid/MidiEvent.h ****     NoteOn,                /**< & */
  21:../../../libDaisy/src/hid/MidiEvent.h ****     PolyphonicKeyPressure, /**< & */
  22:../../../libDaisy/src/hid/MidiEvent.h ****     ControlChange,         /**< & */
  23:../../../libDaisy/src/hid/MidiEvent.h ****     ProgramChange,         /**< & */
  24:../../../libDaisy/src/hid/MidiEvent.h ****     ChannelPressure,       /**< & */
  25:../../../libDaisy/src/hid/MidiEvent.h ****     PitchBend,             /**< & */
  26:../../../libDaisy/src/hid/MidiEvent.h ****     SystemCommon,          /**< & */
  27:../../../libDaisy/src/hid/MidiEvent.h ****     SystemRealTime,        /**< & */
  28:../../../libDaisy/src/hid/MidiEvent.h ****     ChannelMode,           /**< & */
  29:../../../libDaisy/src/hid/MidiEvent.h ****     MessageLast,           /**< & */
  30:../../../libDaisy/src/hid/MidiEvent.h **** };
  31:../../../libDaisy/src/hid/MidiEvent.h **** 
  32:../../../libDaisy/src/hid/MidiEvent.h **** enum SystemCommonType
  33:../../../libDaisy/src/hid/MidiEvent.h **** {
  34:../../../libDaisy/src/hid/MidiEvent.h ****     SystemExclusive,     /**< & */
  35:../../../libDaisy/src/hid/MidiEvent.h ****     MTCQuarterFrame,     /**< & */
  36:../../../libDaisy/src/hid/MidiEvent.h ****     SongPositionPointer, /**< & */
  37:../../../libDaisy/src/hid/MidiEvent.h ****     SongSelect,          /**< & */
  38:../../../libDaisy/src/hid/MidiEvent.h ****     SCUndefined0,        /**< & */
  39:../../../libDaisy/src/hid/MidiEvent.h ****     SCUndefined1,        /**< & */
  40:../../../libDaisy/src/hid/MidiEvent.h ****     TuneRequest,         /**< & */
  41:../../../libDaisy/src/hid/MidiEvent.h ****     SysExEnd,            /**< & */
  42:../../../libDaisy/src/hid/MidiEvent.h ****     SystemCommonLast,    /**< & */
  43:../../../libDaisy/src/hid/MidiEvent.h **** };
  44:../../../libDaisy/src/hid/MidiEvent.h **** 
  45:../../../libDaisy/src/hid/MidiEvent.h **** enum SystemRealTimeType
  46:../../../libDaisy/src/hid/MidiEvent.h **** {
  47:../../../libDaisy/src/hid/MidiEvent.h ****     TimingClock,        /**< & */
  48:../../../libDaisy/src/hid/MidiEvent.h ****     SRTUndefined0,      /**< & */
  49:../../../libDaisy/src/hid/MidiEvent.h ****     Start,              /**< & */
ARM GAS  C:\Users\toesc\AppData\Local\Temp\ccOgcMME.s 			page 78


  50:../../../libDaisy/src/hid/MidiEvent.h ****     Continue,           /**< & */
  51:../../../libDaisy/src/hid/MidiEvent.h ****     Stop,               /**< & */
  52:../../../libDaisy/src/hid/MidiEvent.h ****     SRTUndefined1,      /**< & */
  53:../../../libDaisy/src/hid/MidiEvent.h ****     ActiveSensing,      /**< & */
  54:../../../libDaisy/src/hid/MidiEvent.h ****     Reset,              /**< & */
  55:../../../libDaisy/src/hid/MidiEvent.h ****     SystemRealTimeLast, /**< & */
  56:../../../libDaisy/src/hid/MidiEvent.h **** };
  57:../../../libDaisy/src/hid/MidiEvent.h **** 
  58:../../../libDaisy/src/hid/MidiEvent.h **** enum ChannelModeType
  59:../../../libDaisy/src/hid/MidiEvent.h **** {
  60:../../../libDaisy/src/hid/MidiEvent.h ****     AllSoundOff,         /**< & */
  61:../../../libDaisy/src/hid/MidiEvent.h ****     ResetAllControllers, /**< & */
  62:../../../libDaisy/src/hid/MidiEvent.h ****     LocalControl,        /**< & */
  63:../../../libDaisy/src/hid/MidiEvent.h ****     AllNotesOff,         /**< & */
  64:../../../libDaisy/src/hid/MidiEvent.h ****     OmniModeOff,         /**< & */
  65:../../../libDaisy/src/hid/MidiEvent.h ****     OmniModeOn,          /**< & */
  66:../../../libDaisy/src/hid/MidiEvent.h ****     MonoModeOn,          /**< & */
  67:../../../libDaisy/src/hid/MidiEvent.h ****     PolyModeOn,          /**< & */
  68:../../../libDaisy/src/hid/MidiEvent.h ****     ChannelModeLast,     /**< & */
  69:../../../libDaisy/src/hid/MidiEvent.h **** };
  70:../../../libDaisy/src/hid/MidiEvent.h **** 
  71:../../../libDaisy/src/hid/MidiEvent.h **** /** Struct containing note, and velocity data for a given channel.
  72:../../../libDaisy/src/hid/MidiEvent.h **** Can be made from MidiEvent
  73:../../../libDaisy/src/hid/MidiEvent.h **** */
  74:../../../libDaisy/src/hid/MidiEvent.h **** struct NoteOffEvent
  75:../../../libDaisy/src/hid/MidiEvent.h **** {
  76:../../../libDaisy/src/hid/MidiEvent.h ****     int     channel;  /**< & */
  77:../../../libDaisy/src/hid/MidiEvent.h ****     uint8_t note;     /**< & */
  78:../../../libDaisy/src/hid/MidiEvent.h ****     uint8_t velocity; /**< & */
  79:../../../libDaisy/src/hid/MidiEvent.h **** };
  80:../../../libDaisy/src/hid/MidiEvent.h **** 
  81:../../../libDaisy/src/hid/MidiEvent.h **** 
  82:../../../libDaisy/src/hid/MidiEvent.h **** /** Struct containing note, and velocity data for a given channel.
  83:../../../libDaisy/src/hid/MidiEvent.h **** Can be made from MidiEvent
  84:../../../libDaisy/src/hid/MidiEvent.h **** */
  85:../../../libDaisy/src/hid/MidiEvent.h **** struct NoteOnEvent
  86:../../../libDaisy/src/hid/MidiEvent.h **** {
  87:../../../libDaisy/src/hid/MidiEvent.h ****     int     channel;  /**< & */
  88:../../../libDaisy/src/hid/MidiEvent.h ****     uint8_t note;     /**< & */
  89:../../../libDaisy/src/hid/MidiEvent.h ****     uint8_t velocity; /**< & */
  90:../../../libDaisy/src/hid/MidiEvent.h **** };
  91:../../../libDaisy/src/hid/MidiEvent.h **** /** Struct containing note, and pressure data for a given channel.
  92:../../../libDaisy/src/hid/MidiEvent.h **** Can be made from MidiEvent
  93:../../../libDaisy/src/hid/MidiEvent.h **** */
  94:../../../libDaisy/src/hid/MidiEvent.h **** struct PolyphonicKeyPressureEvent
  95:../../../libDaisy/src/hid/MidiEvent.h **** {
  96:../../../libDaisy/src/hid/MidiEvent.h ****     int     channel;
  97:../../../libDaisy/src/hid/MidiEvent.h ****     uint8_t note;
  98:../../../libDaisy/src/hid/MidiEvent.h ****     uint8_t pressure;
  99:../../../libDaisy/src/hid/MidiEvent.h **** };
 100:../../../libDaisy/src/hid/MidiEvent.h **** /** Struct containing control number, and value for a given channel.
 101:../../../libDaisy/src/hid/MidiEvent.h **** Can be made from MidiEvent
 102:../../../libDaisy/src/hid/MidiEvent.h **** */
 103:../../../libDaisy/src/hid/MidiEvent.h **** struct ControlChangeEvent
 104:../../../libDaisy/src/hid/MidiEvent.h **** {
 105:../../../libDaisy/src/hid/MidiEvent.h ****     int     channel;        /**< & */
 106:../../../libDaisy/src/hid/MidiEvent.h ****     uint8_t control_number; /**< & */
ARM GAS  C:\Users\toesc\AppData\Local\Temp\ccOgcMME.s 			page 79


 107:../../../libDaisy/src/hid/MidiEvent.h ****     uint8_t value;          /**< & */
 108:../../../libDaisy/src/hid/MidiEvent.h **** };
 109:../../../libDaisy/src/hid/MidiEvent.h **** /** Struct containing new program number, for a given channel.
 110:../../../libDaisy/src/hid/MidiEvent.h **** Can be made from MidiEvent
 111:../../../libDaisy/src/hid/MidiEvent.h **** */
 112:../../../libDaisy/src/hid/MidiEvent.h **** struct ProgramChangeEvent
 113:../../../libDaisy/src/hid/MidiEvent.h **** {
 114:../../../libDaisy/src/hid/MidiEvent.h ****     int     channel; /**< & */
 115:../../../libDaisy/src/hid/MidiEvent.h ****     uint8_t program; /**< & */
 116:../../../libDaisy/src/hid/MidiEvent.h **** };
 117:../../../libDaisy/src/hid/MidiEvent.h **** /** Struct containing pressure (aftertouch), for a given channel.
 118:../../../libDaisy/src/hid/MidiEvent.h **** Can be made from MidiEvent
 119:../../../libDaisy/src/hid/MidiEvent.h **** */
 120:../../../libDaisy/src/hid/MidiEvent.h **** struct ChannelPressureEvent
 121:../../../libDaisy/src/hid/MidiEvent.h **** {
 122:../../../libDaisy/src/hid/MidiEvent.h ****     int     channel;  /**< & */
 123:../../../libDaisy/src/hid/MidiEvent.h ****     uint8_t pressure; /**< & */
 124:../../../libDaisy/src/hid/MidiEvent.h **** };
 125:../../../libDaisy/src/hid/MidiEvent.h **** /** Struct containing pitch bend value for a given channel.
 126:../../../libDaisy/src/hid/MidiEvent.h **** Can be made from MidiEvent
 127:../../../libDaisy/src/hid/MidiEvent.h **** */
 128:../../../libDaisy/src/hid/MidiEvent.h **** struct PitchBendEvent
 129:../../../libDaisy/src/hid/MidiEvent.h **** {
 130:../../../libDaisy/src/hid/MidiEvent.h ****     int     channel; /**< & */
 131:../../../libDaisy/src/hid/MidiEvent.h ****     int16_t value;   /**< & */
 132:../../../libDaisy/src/hid/MidiEvent.h **** };
 133:../../../libDaisy/src/hid/MidiEvent.h **** /** Struct containing channel mode event for a given channel.
 134:../../../libDaisy/src/hid/MidiEvent.h **** Can be made from MidiEvent
 135:../../../libDaisy/src/hid/MidiEvent.h **** */
 136:../../../libDaisy/src/hid/MidiEvent.h **** struct ChannelModeEvent
 137:../../../libDaisy/src/hid/MidiEvent.h **** {
 138:../../../libDaisy/src/hid/MidiEvent.h ****     int             channel;    /**< & */
 139:../../../libDaisy/src/hid/MidiEvent.h ****     ChannelModeType event_type; /**< & */
 140:../../../libDaisy/src/hid/MidiEvent.h ****     int16_t         value;      /**< & */
 141:../../../libDaisy/src/hid/MidiEvent.h **** };
 142:../../../libDaisy/src/hid/MidiEvent.h **** /** Struct containing sysex data.
 143:../../../libDaisy/src/hid/MidiEvent.h **** Can be made from MidiEvent
 144:../../../libDaisy/src/hid/MidiEvent.h **** */
 145:../../../libDaisy/src/hid/MidiEvent.h **** struct SystemExclusiveEvent
 146:../../../libDaisy/src/hid/MidiEvent.h **** {
 147:../../../libDaisy/src/hid/MidiEvent.h ****     int     length;
 148:../../../libDaisy/src/hid/MidiEvent.h ****     uint8_t data[SYSEX_BUFFER_LEN]; /**< & */
 149:../../../libDaisy/src/hid/MidiEvent.h **** };
 150:../../../libDaisy/src/hid/MidiEvent.h **** /** Struct containing QuarterFrame data.
 151:../../../libDaisy/src/hid/MidiEvent.h **** Can be made from MidiEvent
 152:../../../libDaisy/src/hid/MidiEvent.h **** */
 153:../../../libDaisy/src/hid/MidiEvent.h **** struct MTCQuarterFrameEvent
 154:../../../libDaisy/src/hid/MidiEvent.h **** {
 155:../../../libDaisy/src/hid/MidiEvent.h ****     uint8_t message_type; /**< & */
 156:../../../libDaisy/src/hid/MidiEvent.h ****     uint8_t value;        /**< & */
 157:../../../libDaisy/src/hid/MidiEvent.h **** };
 158:../../../libDaisy/src/hid/MidiEvent.h **** /** Struct containing song position data.
 159:../../../libDaisy/src/hid/MidiEvent.h **** Can be made from MidiEvent
 160:../../../libDaisy/src/hid/MidiEvent.h **** */
 161:../../../libDaisy/src/hid/MidiEvent.h **** struct SongPositionPointerEvent
 162:../../../libDaisy/src/hid/MidiEvent.h **** {
 163:../../../libDaisy/src/hid/MidiEvent.h ****     uint16_t position; /**< & */
ARM GAS  C:\Users\toesc\AppData\Local\Temp\ccOgcMME.s 			page 80


 164:../../../libDaisy/src/hid/MidiEvent.h **** };
 165:../../../libDaisy/src/hid/MidiEvent.h **** /** Struct containing song select data.
 166:../../../libDaisy/src/hid/MidiEvent.h **** Can be made from MidiEvent
 167:../../../libDaisy/src/hid/MidiEvent.h **** */
 168:../../../libDaisy/src/hid/MidiEvent.h **** struct SongSelectEvent
 169:../../../libDaisy/src/hid/MidiEvent.h **** {
 170:../../../libDaisy/src/hid/MidiEvent.h ****     uint8_t song; /**< & */
 171:../../../libDaisy/src/hid/MidiEvent.h **** };
 172:../../../libDaisy/src/hid/MidiEvent.h **** /** Struct containing sound off data.
 173:../../../libDaisy/src/hid/MidiEvent.h **** Can be made from MidiEvent
 174:../../../libDaisy/src/hid/MidiEvent.h **** */
 175:../../../libDaisy/src/hid/MidiEvent.h **** struct AllSoundOffEvent
 176:../../../libDaisy/src/hid/MidiEvent.h **** {
 177:../../../libDaisy/src/hid/MidiEvent.h ****     int channel; /**< & */
 178:../../../libDaisy/src/hid/MidiEvent.h **** };
 179:../../../libDaisy/src/hid/MidiEvent.h **** /** Struct containing ResetAllControllersEvent data.
 180:../../../libDaisy/src/hid/MidiEvent.h **** Can be made from MidiEvent
 181:../../../libDaisy/src/hid/MidiEvent.h **** */
 182:../../../libDaisy/src/hid/MidiEvent.h **** struct ResetAllControllersEvent
 183:../../../libDaisy/src/hid/MidiEvent.h **** {
 184:../../../libDaisy/src/hid/MidiEvent.h ****     int     channel; /**< & */
 185:../../../libDaisy/src/hid/MidiEvent.h ****     uint8_t value;   /**< & */
 186:../../../libDaisy/src/hid/MidiEvent.h **** };
 187:../../../libDaisy/src/hid/MidiEvent.h **** /** Struct containing LocalControlEvent data.
 188:../../../libDaisy/src/hid/MidiEvent.h **** Can be made from MidiEvent
 189:../../../libDaisy/src/hid/MidiEvent.h **** */
 190:../../../libDaisy/src/hid/MidiEvent.h **** struct LocalControlEvent
 191:../../../libDaisy/src/hid/MidiEvent.h **** {
 192:../../../libDaisy/src/hid/MidiEvent.h ****     int  channel;           /**< & */
 193:../../../libDaisy/src/hid/MidiEvent.h ****     bool local_control_off; /**< & */
 194:../../../libDaisy/src/hid/MidiEvent.h ****     bool local_control_on;  /**< & */
 195:../../../libDaisy/src/hid/MidiEvent.h **** };
 196:../../../libDaisy/src/hid/MidiEvent.h **** /** Struct containing AllNotesOffEvent data.
 197:../../../libDaisy/src/hid/MidiEvent.h **** Can be made from MidiEvent
 198:../../../libDaisy/src/hid/MidiEvent.h **** */
 199:../../../libDaisy/src/hid/MidiEvent.h **** struct AllNotesOffEvent
 200:../../../libDaisy/src/hid/MidiEvent.h **** {
 201:../../../libDaisy/src/hid/MidiEvent.h ****     int channel; /**< & */
 202:../../../libDaisy/src/hid/MidiEvent.h **** };
 203:../../../libDaisy/src/hid/MidiEvent.h **** /** Struct containing OmniModeOffEvent data. 
 204:../../../libDaisy/src/hid/MidiEvent.h ****  * Can be made from MidiEvent
 205:../../../libDaisy/src/hid/MidiEvent.h **** */
 206:../../../libDaisy/src/hid/MidiEvent.h **** struct OmniModeOffEvent
 207:../../../libDaisy/src/hid/MidiEvent.h **** {
 208:../../../libDaisy/src/hid/MidiEvent.h ****     int channel; /**< & */
 209:../../../libDaisy/src/hid/MidiEvent.h **** };
 210:../../../libDaisy/src/hid/MidiEvent.h **** /** Struct containing OmniModeOnEvent data.
 211:../../../libDaisy/src/hid/MidiEvent.h **** Can be made from MidiEvent
 212:../../../libDaisy/src/hid/MidiEvent.h **** */
 213:../../../libDaisy/src/hid/MidiEvent.h **** struct OmniModeOnEvent
 214:../../../libDaisy/src/hid/MidiEvent.h **** {
 215:../../../libDaisy/src/hid/MidiEvent.h ****     int channel; /**< & */
 216:../../../libDaisy/src/hid/MidiEvent.h **** };
 217:../../../libDaisy/src/hid/MidiEvent.h **** /** Struct containing MonoModeOnEvent data.
 218:../../../libDaisy/src/hid/MidiEvent.h **** Can be made from MidiEvent
 219:../../../libDaisy/src/hid/MidiEvent.h **** */
 220:../../../libDaisy/src/hid/MidiEvent.h **** struct MonoModeOnEvent
ARM GAS  C:\Users\toesc\AppData\Local\Temp\ccOgcMME.s 			page 81


 221:../../../libDaisy/src/hid/MidiEvent.h **** {
 222:../../../libDaisy/src/hid/MidiEvent.h ****     int     channel;      /**< & */
 223:../../../libDaisy/src/hid/MidiEvent.h ****     uint8_t num_channels; /**< & */
 224:../../../libDaisy/src/hid/MidiEvent.h **** };
 225:../../../libDaisy/src/hid/MidiEvent.h **** /** Struct containing PolyModeOnEvent data.
 226:../../../libDaisy/src/hid/MidiEvent.h **** Can be made from MidiEvent
 227:../../../libDaisy/src/hid/MidiEvent.h **** */
 228:../../../libDaisy/src/hid/MidiEvent.h **** struct PolyModeOnEvent
 229:../../../libDaisy/src/hid/MidiEvent.h **** {
 230:../../../libDaisy/src/hid/MidiEvent.h ****     int channel; /**< & */
 231:../../../libDaisy/src/hid/MidiEvent.h **** };
 232:../../../libDaisy/src/hid/MidiEvent.h **** 
 233:../../../libDaisy/src/hid/MidiEvent.h **** 
 234:../../../libDaisy/src/hid/MidiEvent.h **** /** Simple MidiEvent with message type, channel, and data[2] members.
 235:../../../libDaisy/src/hid/MidiEvent.h **** */
 236:../../../libDaisy/src/hid/MidiEvent.h **** struct MidiEvent
 237:../../../libDaisy/src/hid/MidiEvent.h **** {
 238:../../../libDaisy/src/hid/MidiEvent.h ****     // Newer ish.
 239:../../../libDaisy/src/hid/MidiEvent.h ****     MidiMessageType    type;                         /**< & */
 240:../../../libDaisy/src/hid/MidiEvent.h ****     int                channel;                      /**< & */
 241:../../../libDaisy/src/hid/MidiEvent.h ****     uint8_t            data[2];                      /**< & */
 242:../../../libDaisy/src/hid/MidiEvent.h ****     uint8_t            sysex_data[SYSEX_BUFFER_LEN]; /**< & */
 243:../../../libDaisy/src/hid/MidiEvent.h ****     uint8_t            sysex_message_len;
 244:../../../libDaisy/src/hid/MidiEvent.h ****     SystemCommonType   sc_type;
 245:../../../libDaisy/src/hid/MidiEvent.h ****     SystemRealTimeType srt_type;
 246:../../../libDaisy/src/hid/MidiEvent.h ****     ChannelModeType    cm_type;
 247:../../../libDaisy/src/hid/MidiEvent.h **** 
 248:../../../libDaisy/src/hid/MidiEvent.h ****     /** Returns the data within the MidiEvent as a NoteOffEvent struct */
 249:../../../libDaisy/src/hid/MidiEvent.h ****     NoteOffEvent AsNoteOff()
 250:../../../libDaisy/src/hid/MidiEvent.h ****     {
 251:../../../libDaisy/src/hid/MidiEvent.h ****         NoteOffEvent m;
 252:../../../libDaisy/src/hid/MidiEvent.h ****         m.channel  = channel;
 253:../../../libDaisy/src/hid/MidiEvent.h ****         m.note     = data[0];
 254:../../../libDaisy/src/hid/MidiEvent.h ****         m.velocity = data[1];
 255:../../../libDaisy/src/hid/MidiEvent.h ****         return m;
 256:../../../libDaisy/src/hid/MidiEvent.h ****     }
 257:../../../libDaisy/src/hid/MidiEvent.h **** 
 258:../../../libDaisy/src/hid/MidiEvent.h ****     /** Returns the data within the MidiEvent as a NoteOnEvent struct */
 259:../../../libDaisy/src/hid/MidiEvent.h ****     NoteOnEvent AsNoteOn()
 2273              		.loc 17 259 17 view .LVU637
 2274              	.LBB679:
 260:../../../libDaisy/src/hid/MidiEvent.h ****     {
 261:../../../libDaisy/src/hid/MidiEvent.h ****         NoteOnEvent m;
 2275              		.loc 17 261 9 view .LVU638
 262:../../../libDaisy/src/hid/MidiEvent.h ****         m.channel  = channel;
 2276              		.loc 17 262 9 view .LVU639
 263:../../../libDaisy/src/hid/MidiEvent.h ****         m.note     = data[0];
 2277              		.loc 17 263 9 view .LVU640
 264:../../../libDaisy/src/hid/MidiEvent.h ****         m.velocity = data[1];
 2278              		.loc 17 264 9 view .LVU641
 265:../../../libDaisy/src/hid/MidiEvent.h ****         return m;
 2279              		.loc 17 265 9 view .LVU642
 2280              		.loc 17 265 9 is_stmt 0 view .LVU643
 2281              	.LBE679:
 2282              	.LBE678:
 150:adsr.cpp      ****                         {
 2283              		.loc 13 150 21 is_stmt 1 view .LVU644
ARM GAS  C:\Users\toesc\AppData\Local\Temp\ccOgcMME.s 			page 82


 2284              	.LBE677:
 2285              	.LBE676:
 143:adsr.cpp      ****             {
 2286              		.loc 13 143 13 is_stmt 0 view .LVU645
 2287 02d0 012D     		cmp	r5, #1
 2288 02d2 81D1     		bne	.L87
 2289              	.LBB701:
 2290              	.LBB700:
 150:adsr.cpp      ****                         {
 2291              		.loc 13 150 21 view .LVU646
 2292 02d4 002B     		cmp	r3, #0
 2293 02d6 3FF47FAF 		beq	.L87
 152:adsr.cpp      ****                         osc.SetFreq(mtof(note_msg.note));
 2294              		.loc 13 152 25 is_stmt 1 view .LVU647
 153:adsr.cpp      ****                         primary.SetFreq(mtof(note_msg.note));
 2295              		.loc 13 153 36 is_stmt 0 view .LVU648
 2296 02da 07EE902A 		vmov	s15, r2	@ int
 2297              	.LBB680:
 2298              	.LBB681:
 125:../../../DaisySP/Source/Utility/dsp.h **** }
 2299              		.loc 16 125 23 view .LVU649
 2300 02de DFED3A6A 		vldr.32	s13, .L106+112
 125:../../../DaisySP/Source/Utility/dsp.h **** }
 2301              		.loc 16 125 16 view .LVU650
 2302 02e2 B2EE087A 		vmov.f32	s14, #1.2e+1
 2303              	.LBE681:
 2304              	.LBE680:
 152:adsr.cpp      ****                         osc.SetFreq(mtof(note_msg.note));
 2305              		.loc 13 152 32 view .LVU651
 2306 02e6 394B     		ldr	r3, .L106+116
 2307              	.LVL171:
 153:adsr.cpp      ****                         primary.SetFreq(mtof(note_msg.note));
 2308              		.loc 13 153 36 view .LVU652
 2309 02e8 F8EE677A 		vcvt.f32.u32	s15, s15
 2310              	.LBB684:
 2311              	.LBB682:
 125:../../../DaisySP/Source/Utility/dsp.h **** }
 2312              		.loc 16 125 43 view .LVU653
 2313 02ec 9FED388A 		vldr.32	s16, .L106+120
 125:../../../DaisySP/Source/Utility/dsp.h **** }
 2314              		.loc 16 125 16 view .LVU654
 2315 02f0 B0EE000A 		vmov.f32	s0, #2.0e+0
 2316              	.LBE682:
 2317              	.LBE684:
 152:adsr.cpp      ****                         osc.SetFreq(mtof(note_msg.note));
 2318              		.loc 13 152 32 view .LVU655
 2319 02f4 1D70     		strb	r5, [r3]
 153:adsr.cpp      ****                         primary.SetFreq(mtof(note_msg.note));
 2320              		.loc 13 153 25 is_stmt 1 view .LVU656
 2321              	.LVL172:
 2322              	.LBB685:
 2323              	.LBI680:
 123:../../../DaisySP/Source/Utility/dsp.h **** {
 2324              		.loc 16 123 14 view .LVU657
 2325              	.LBB683:
 125:../../../DaisySP/Source/Utility/dsp.h **** }
 2326              		.loc 16 125 5 view .LVU658
ARM GAS  C:\Users\toesc\AppData\Local\Temp\ccOgcMME.s 			page 83


 125:../../../DaisySP/Source/Utility/dsp.h **** }
 2327              		.loc 16 125 23 is_stmt 0 view .LVU659
 2328 02f6 77EEE67A 		vsub.f32	s15, s15, s13
 125:../../../DaisySP/Source/Utility/dsp.h **** }
 2329              		.loc 16 125 16 view .LVU660
 2330 02fa C7EE870A 		vdiv.f32	s1, s15, s14
 2331 02fe CDED010A 		vstr.32	s1, [sp, #4]	@ int
 2332 0302 FFF7FEFF 		bl	powf
 2333              	.LVL173:
 125:../../../DaisySP/Source/Utility/dsp.h **** }
 2334              		.loc 16 125 43 view .LVU661
 2335 0306 20EE080A 		vmul.f32	s0, s0, s16
 2336              	.LVL174:
 125:../../../DaisySP/Source/Utility/dsp.h **** }
 2337              		.loc 16 125 43 view .LVU662
 2338              	.LBE683:
 2339              	.LBE685:
 2340              	.LBB686:
 2341              	.LBI686:
  58:../../../DaisySP/Source/Synthesis/oscillator.h ****     {
 2342              		.loc 2 58 17 is_stmt 1 view .LVU663
 2343              	.LBB687:
  60:../../../DaisySP/Source/Synthesis/oscillator.h ****         phase_inc_ = CalcPhaseInc(f);
 2344              		.loc 2 60 9 view .LVU664
  61:../../../DaisySP/Source/Synthesis/oscillator.h ****     }
 2345              		.loc 2 61 34 is_stmt 0 view .LVU665
 2346 030a 1648     		ldr	r0, .L106+12
  60:../../../DaisySP/Source/Synthesis/oscillator.h ****         phase_inc_ = CalcPhaseInc(f);
 2347              		.loc 2 60 20 view .LVU666
 2348 030c 0546     		mov	r5, r0
 2349              	.LVL175:
  60:../../../DaisySP/Source/Synthesis/oscillator.h ****         phase_inc_ = CalcPhaseInc(f);
 2350              		.loc 2 60 20 view .LVU667
 2351 030e 80ED020A 		vstr.32	s0, [r0, #8]
  61:../../../DaisySP/Source/Synthesis/oscillator.h ****     }
 2352              		.loc 2 61 9 is_stmt 1 view .LVU668
  61:../../../DaisySP/Source/Synthesis/oscillator.h ****     }
 2353              		.loc 2 61 34 is_stmt 0 view .LVU669
 2354 0312 FFF7FEFF 		bl	_ZN7daisysp10Oscillator12CalcPhaseIncEf
 2355              	.LVL176:
  61:../../../DaisySP/Source/Synthesis/oscillator.h ****     }
 2356              		.loc 2 61 34 view .LVU670
 2357 0316 F0EE407A 		vmov.f32	s15, s0
 2358              	.LBE687:
 2359              	.LBE686:
 2360              	.LBB689:
 2361              	.LBB690:
 125:../../../DaisySP/Source/Utility/dsp.h **** }
 2362              		.loc 16 125 16 view .LVU671
 2363 031a DDED010A 		vldr.32	s1, [sp, #4]	@ int
 2364 031e B0EE000A 		vmov.f32	s0, #2.0e+0
 2365              	.LBE690:
 2366              	.LBE689:
 2367              	.LBB693:
 2368              	.LBB688:
  61:../../../DaisySP/Source/Synthesis/oscillator.h ****     }
 2369              		.loc 2 61 20 view .LVU672
ARM GAS  C:\Users\toesc\AppData\Local\Temp\ccOgcMME.s 			page 84


 2370 0322 C5ED067A 		vstr.32	s15, [r5, #24]
 2371              	.LVL177:
  61:../../../DaisySP/Source/Synthesis/oscillator.h ****     }
 2372              		.loc 2 61 20 view .LVU673
 2373              	.LBE688:
 2374              	.LBE693:
 154:adsr.cpp      ****                 
 2375              		.loc 13 154 25 is_stmt 1 view .LVU674
 2376              	.LBB694:
 2377              	.LBI689:
 123:../../../DaisySP/Source/Utility/dsp.h **** {
 2378              		.loc 16 123 14 view .LVU675
 2379              	.LBB691:
 125:../../../DaisySP/Source/Utility/dsp.h **** }
 2380              		.loc 16 125 5 view .LVU676
 125:../../../DaisySP/Source/Utility/dsp.h **** }
 2381              		.loc 16 125 16 is_stmt 0 view .LVU677
 2382 0326 FFF7FEFF 		bl	powf
 2383              	.LVL178:
 125:../../../DaisySP/Source/Utility/dsp.h **** }
 2384              		.loc 16 125 16 view .LVU678
 2385              	.LBE691:
 2386              	.LBE694:
 2387              	.LBB695:
 2388              	.LBI695:
  47:../../../DaisySP/Source/Synthesis/blosc.h ****     /** - Float amp: Set oscillator amplitude, 0 to 1.
 2389              		.loc 5 47 17 is_stmt 1 view .LVU679
 2390              	.LBB696:
  47:../../../DaisySP/Source/Synthesis/blosc.h ****     /** - Float amp: Set oscillator amplitude, 0 to 1.
 2391              		.loc 5 47 39 view .LVU680
 2392              	.LBE696:
 2393              	.LBE695:
 2394              	.LBB698:
 2395              	.LBB692:
 125:../../../DaisySP/Source/Utility/dsp.h **** }
 2396              		.loc 16 125 43 is_stmt 0 view .LVU681
 2397 032a 20EE080A 		vmul.f32	s0, s0, s16
 2398              	.LVL179:
 125:../../../DaisySP/Source/Utility/dsp.h **** }
 2399              		.loc 16 125 43 view .LVU682
 2400              	.LBE692:
 2401              	.LBE698:
 2402              	.LBB699:
 2403              	.LBB697:
  47:../../../DaisySP/Source/Synthesis/blosc.h ****     /** - Float amp: Set oscillator amplitude, 0 to 1.
 2404              		.loc 5 47 45 view .LVU683
 2405 032e 104B     		ldr	r3, .L106+24
 2406 0330 83ED080A 		vstr.32	s0, [r3, #32]
  47:../../../DaisySP/Source/Synthesis/blosc.h ****     /** - Float amp: Set oscillator amplitude, 0 to 1.
 2407              		.loc 5 47 53 view .LVU684
 2408 0334 50E7     		b	.L87
 2409              	.LVL180:
 2410              	.L90:
  47:../../../DaisySP/Source/Synthesis/blosc.h ****     /** - Float amp: Set oscillator amplitude, 0 to 1.
 2411              		.loc 5 47 53 view .LVU685
 2412              	.LBE697:
 2413              	.LBE699:
ARM GAS  C:\Users\toesc\AppData\Local\Temp\ccOgcMME.s 			page 85


 2414              	.LBE700:
 163:adsr.cpp      ****                 {
 2415              		.loc 13 163 16 is_stmt 1 view .LVU686
 164:adsr.cpp      ****                  hw.SetLed(true);
 2416              		.loc 13 164 17 view .LVU687
 165:adsr.cpp      ****                  mygate = false;
 2417              		.loc 13 165 18 view .LVU688
 165:adsr.cpp      ****                  mygate = false;
 2418              		.loc 13 165 27 is_stmt 0 view .LVU689
 2419 0336 0121     		movs	r1, #1
 2420 0338 0748     		ldr	r0, .L106
 2421 033a FFF7FEFF 		bl	_ZN5daisy9DaisySeed6SetLedEb
 2422              	.LVL181:
 166:adsr.cpp      ****                 }
 2423              		.loc 13 166 18 is_stmt 1 view .LVU690
 166:adsr.cpp      ****                 }
 2424              		.loc 13 166 25 is_stmt 0 view .LVU691
 2425 033e 234B     		ldr	r3, .L106+116
 2426 0340 1D70     		strb	r5, [r3]
 168:adsr.cpp      ****                     // Since we only care about note-on messages in this example
 2427              		.loc 13 168 17 is_stmt 1 view .LVU692
 2428 0342 49E7     		b	.L87
 2429              	.LVL182:
 2430              	.L105:
 168:adsr.cpp      ****                     // Since we only care about note-on messages in this example
 2431              		.loc 13 168 17 is_stmt 0 view .LVU693
 2432              	.LBE701:
 2433              	.LBE675:
 2434              	.LBE667:
 2435              	.LBB702:
 2436              	.LBB587:
 126:../../../libDaisy/src/hid/midi.h ****             StartReceive();
 2437              		.loc 11 126 31 view .LVU694
 2438 0344 1648     		ldr	r0, .L106+72
 125:../../../libDaisy/src/hid/midi.h ****             transport_.FlushRx();
 2439              		.loc 11 125 21 view .LVU695
 2440 0346 88F80430 		strb	r3, [r8, #4]
 126:../../../libDaisy/src/hid/midi.h ****             StartReceive();
 2441              		.loc 11 126 31 view .LVU696
 2442 034a FFF7FEFF 		bl	_ZN5daisy16MidiUsbTransport7FlushRxEv
 2443              	.LVL183:
 2444              	.LBB585:
 2445              	.LBI585:
 107:../../../libDaisy/src/hid/midi.h **** 
 2446              		.loc 11 107 10 is_stmt 1 view .LVU697
 2447              	.LBB586:
 107:../../../libDaisy/src/hid/midi.h **** 
 2448              		.loc 11 107 45 is_stmt 0 view .LVU698
 2449 034e 1448     		ldr	r0, .L106+72
 2450 0350 FFF7FEFF 		bl	_ZN5daisy16MidiUsbTransport7StartRxEv
 2451              	.LVL184:
 107:../../../libDaisy/src/hid/midi.h **** 
 2452              		.loc 11 107 49 view .LVU699
 2453 0354 40E7     		b	.L87
 2454              	.L107:
 2455 0356 00BF     		.align	2
 2456              	.L106:
ARM GAS  C:\Users\toesc\AppData\Local\Temp\ccOgcMME.s 			page 86


 2457 0358 00000000 		.word	.LANCHOR4
 2458 035c 00000000 		.word	.LANCHOR5
 2459 0360 00000000 		.word	.LANCHOR6
 2460 0364 00000000 		.word	.LANCHOR2
 2461 0368 0000C842 		.word	1120403456
 2462 036c 00000000 		.word	_ZL7primary
 2463 0370 00400000 		.word	_ZL7primary+16384
 2464 0374 0000DC43 		.word	1138491392
 2465 0378 0000A543 		.word	1134886912
 2466 037c 6666A63E 		.word	1051092582
 2467 0380 9A99193E 		.word	1041865114
 2468 0384 00005C44 		.word	1146880000
 2469 0388 3333333F 		.word	1060320051
 2470 038c 6666663F 		.word	1063675494
 2471 0390 00000000 		.word	_ZL13AudioCallbackPKfPfj
 2472 0394 00A08C46 		.word	1183621120
 2473 0398 18000000 		.word	.LANCHOR4+24
 2474 039c 00000000 		.word	_ZL4midi
 2475 03a0 A8900000 		.word	_ZL4midi+37032
 2476 03a4 00004842 		.word	1112014848
 2477 03a8 00C0F344 		.word	1156825088
 2478 03ac CDCCCC3D 		.word	1036831949
 2479 03b0 0000FA44 		.word	1157234688
 2480 03b4 00000000 		.word	0
 2481 03b8 3333733F 		.word	1064514355
 2482 03bc 3333F33F 		.word	1072902963
 2483 03c0 9A993940 		.word	1077516698
 2484 03c4 00000000 		.word	.LANCHOR1
 2485 03c8 00008A42 		.word	1116340224
 2486 03cc 00000000 		.word	.LANCHOR0
 2487 03d0 0000DC43 		.word	1138491392
 2488 03d4 00000000 		.word	.LANCHOR3
 2489 03d8 00000000 		.word	_ZL4verb
 2490              	.LBE586:
 2491              	.LBE585:
 2492              	.LBE587:
 2493              	.LBE702:
 2494              	.LBE711:
 2495              		.cfi_endproc
 2496              	.LFE4780:
 2498              		.section	.text.startup._GLOBAL__sub_I_mygate,"ax",%progbits
 2499              		.align	1
 2500              		.p2align 2,,3
 2501              		.syntax unified
 2502              		.thumb
 2503              		.thumb_func
 2504              		.fpu fpv5-d16
 2506              	_GLOBAL__sub_I_mygate:
 2507              	.LFB5362:
 199:adsr.cpp      **** }
 2508              		.loc 13 199 1 is_stmt 1 view -0
 2509              		.cfi_startproc
 2510              		@ args = 0, pretend = 0, frame = 0
 2511              		@ frame_needed = 0, uses_anonymous_args = 0
 2512              	.LBB752:
 2513              	.LBI752:
 2514              		.loc 13 199 1 view .LVU701
ARM GAS  C:\Users\toesc\AppData\Local\Temp\ccOgcMME.s 			page 87


 2515              	.LVL185:
 2516              	.LBB753:
 2517              	.LBB754:
 2518              	.LBI754:
  84:../../../libDaisy/src/hid/midi.h ****     ~MidiHandler() {}
 2519              		.loc 11 84 5 view .LVU702
 2520              	.LBB755:
 2521              	.LBB756:
 2522              	.LBB757:
 2523              	.LBI757:
 2524              		.file 18 "../../../libDaisy/src/per/uart.h"
   1:../../../libDaisy/src/per/uart.h **** /* 
   2:../../../libDaisy/src/per/uart.h **** TODO
   3:../../../libDaisy/src/per/uart.h **** - UART1 defaults to DMA, add flexible config for DMA on all periphs
   4:../../../libDaisy/src/per/uart.h **** - Transmit function improvements.
   5:../../../libDaisy/src/per/uart.h **** - Overflow handling, etc. for Rx Queue.
   6:../../../libDaisy/src/per/uart.h **** */
   7:../../../libDaisy/src/per/uart.h **** 
   8:../../../libDaisy/src/per/uart.h **** #pragma once
   9:../../../libDaisy/src/per/uart.h **** #ifndef DSY_UART_H
  10:../../../libDaisy/src/per/uart.h **** #define DSY_UART_H /**< macro */
  11:../../../libDaisy/src/per/uart.h **** #include "daisy_core.h"
  12:../../../libDaisy/src/per/uart.h **** 
  13:../../../libDaisy/src/per/uart.h **** 
  14:../../../libDaisy/src/per/uart.h **** namespace daisy
  15:../../../libDaisy/src/per/uart.h **** {
  16:../../../libDaisy/src/per/uart.h **** /** @addtogroup serial
  17:../../../libDaisy/src/per/uart.h ****     @{
  18:../../../libDaisy/src/per/uart.h ****     */
  19:../../../libDaisy/src/per/uart.h **** 
  20:../../../libDaisy/src/per/uart.h **** /** 
  21:../../../libDaisy/src/per/uart.h ****     Uart Peripheral
  22:../../../libDaisy/src/per/uart.h ****     @author shensley
  23:../../../libDaisy/src/per/uart.h ****     @date March 2020
  24:../../../libDaisy/src/per/uart.h ****     */
  25:../../../libDaisy/src/per/uart.h **** class UartHandler
  26:../../../libDaisy/src/per/uart.h **** {
  27:../../../libDaisy/src/per/uart.h ****   public:
  28:../../../libDaisy/src/per/uart.h ****     struct Config
  29:../../../libDaisy/src/per/uart.h ****     {
  30:../../../libDaisy/src/per/uart.h ****         enum class Peripheral
  31:../../../libDaisy/src/per/uart.h ****         {
  32:../../../libDaisy/src/per/uart.h ****             USART_1,
  33:../../../libDaisy/src/per/uart.h ****             USART_2,
  34:../../../libDaisy/src/per/uart.h ****             USART_3,
  35:../../../libDaisy/src/per/uart.h ****             UART_4,
  36:../../../libDaisy/src/per/uart.h ****             UART_5,
  37:../../../libDaisy/src/per/uart.h ****             USART_6,
  38:../../../libDaisy/src/per/uart.h ****             UART_7,
  39:../../../libDaisy/src/per/uart.h ****             UART_8,
  40:../../../libDaisy/src/per/uart.h ****             LPUART_1,
  41:../../../libDaisy/src/per/uart.h ****         };
  42:../../../libDaisy/src/per/uart.h **** 
  43:../../../libDaisy/src/per/uart.h ****         enum class StopBits
  44:../../../libDaisy/src/per/uart.h ****         {
  45:../../../libDaisy/src/per/uart.h ****             BITS_0_5,
  46:../../../libDaisy/src/per/uart.h ****             BITS_1,
ARM GAS  C:\Users\toesc\AppData\Local\Temp\ccOgcMME.s 			page 88


  47:../../../libDaisy/src/per/uart.h ****             BITS_1_5,
  48:../../../libDaisy/src/per/uart.h ****             BITS_2,
  49:../../../libDaisy/src/per/uart.h ****         };
  50:../../../libDaisy/src/per/uart.h **** 
  51:../../../libDaisy/src/per/uart.h ****         enum class Parity
  52:../../../libDaisy/src/per/uart.h ****         {
  53:../../../libDaisy/src/per/uart.h ****             NONE,
  54:../../../libDaisy/src/per/uart.h ****             EVEN,
  55:../../../libDaisy/src/per/uart.h ****             ODD,
  56:../../../libDaisy/src/per/uart.h ****         };
  57:../../../libDaisy/src/per/uart.h **** 
  58:../../../libDaisy/src/per/uart.h ****         enum class Mode
  59:../../../libDaisy/src/per/uart.h ****         {
  60:../../../libDaisy/src/per/uart.h ****             RX,
  61:../../../libDaisy/src/per/uart.h ****             TX,
  62:../../../libDaisy/src/per/uart.h ****             TX_RX,
  63:../../../libDaisy/src/per/uart.h ****         };
  64:../../../libDaisy/src/per/uart.h **** 
  65:../../../libDaisy/src/per/uart.h ****         enum class WordLength
  66:../../../libDaisy/src/per/uart.h ****         {
  67:../../../libDaisy/src/per/uart.h ****             BITS_7,
  68:../../../libDaisy/src/per/uart.h ****             BITS_8,
  69:../../../libDaisy/src/per/uart.h ****             BITS_9,
  70:../../../libDaisy/src/per/uart.h ****         };
  71:../../../libDaisy/src/per/uart.h **** 
  72:../../../libDaisy/src/per/uart.h ****         struct
  73:../../../libDaisy/src/per/uart.h ****         {
  74:../../../libDaisy/src/per/uart.h ****             dsy_gpio_pin tx; /**< & */
  75:../../../libDaisy/src/per/uart.h ****             dsy_gpio_pin rx; /**< & */
  76:../../../libDaisy/src/per/uart.h ****         } pin_config;        /**< & */
  77:../../../libDaisy/src/per/uart.h **** 
  78:../../../libDaisy/src/per/uart.h ****         Config()
  79:../../../libDaisy/src/per/uart.h ****         {
  80:../../../libDaisy/src/per/uart.h ****             // user must init periph, pin_config, and mode
  81:../../../libDaisy/src/per/uart.h ****             stopbits   = StopBits::BITS_1;
  82:../../../libDaisy/src/per/uart.h ****             parity     = Parity::NONE;
  83:../../../libDaisy/src/per/uart.h ****             wordlength = WordLength::BITS_8;
  84:../../../libDaisy/src/per/uart.h ****             baudrate   = 4800;
  85:../../../libDaisy/src/per/uart.h ****             // baudrate   = 31250;
  86:../../../libDaisy/src/per/uart.h ****         }
  87:../../../libDaisy/src/per/uart.h **** 
  88:../../../libDaisy/src/per/uart.h ****         Peripheral periph;
  89:../../../libDaisy/src/per/uart.h ****         StopBits   stopbits;
  90:../../../libDaisy/src/per/uart.h ****         Parity     parity;
  91:../../../libDaisy/src/per/uart.h ****         Mode       mode;
  92:../../../libDaisy/src/per/uart.h ****         WordLength wordlength;
  93:../../../libDaisy/src/per/uart.h ****         uint32_t   baudrate;
  94:../../../libDaisy/src/per/uart.h ****     };
  95:../../../libDaisy/src/per/uart.h **** 
  96:../../../libDaisy/src/per/uart.h **** 
  97:../../../libDaisy/src/per/uart.h ****     UartHandler() : pimpl_(nullptr) {}
 2525              		.loc 18 97 5 view .LVU703
 2526              		.loc 18 97 5 is_stmt 0 view .LVU704
 2527              	.LBE757:
 2528              	.LBB764:
 2529              	.LBI764:
  21:../../../libDaisy/src/util/ringbuffer.h **** 
ARM GAS  C:\Users\toesc\AppData\Local\Temp\ccOgcMME.s 			page 89


 2530              		.loc 14 21 5 is_stmt 1 view .LVU705
  21:../../../libDaisy/src/util/ringbuffer.h **** 
 2531              		.loc 14 21 5 is_stmt 0 view .LVU706
 2532              	.LBE764:
 2533              	.LBB765:
 2534              	.LBI765:
  19:../../../libDaisy/src/hid/usb_midi.h **** 
  20:../../../libDaisy/src/hid/usb_midi.h ****     struct Config
  21:../../../libDaisy/src/hid/usb_midi.h ****     {
  22:../../../libDaisy/src/hid/usb_midi.h ****         enum Periph
  23:../../../libDaisy/src/hid/usb_midi.h ****         {
  24:../../../libDaisy/src/hid/usb_midi.h ****             INTERNAL = 0,
  25:../../../libDaisy/src/hid/usb_midi.h ****             EXTERNAL
  26:../../../libDaisy/src/hid/usb_midi.h ****         };
  27:../../../libDaisy/src/hid/usb_midi.h **** 
  28:../../../libDaisy/src/hid/usb_midi.h ****         Periph periph;
  29:../../../libDaisy/src/hid/usb_midi.h ****     };
  30:../../../libDaisy/src/hid/usb_midi.h **** 
  31:../../../libDaisy/src/hid/usb_midi.h ****     void Init(Config config);
  32:../../../libDaisy/src/hid/usb_midi.h **** 
  33:../../../libDaisy/src/hid/usb_midi.h ****     void    StartRx();
  34:../../../libDaisy/src/hid/usb_midi.h ****     size_t  Readable();
  35:../../../libDaisy/src/hid/usb_midi.h ****     uint8_t Rx();
  36:../../../libDaisy/src/hid/usb_midi.h ****     bool    RxActive();
  37:../../../libDaisy/src/hid/usb_midi.h ****     void    FlushRx();
  38:../../../libDaisy/src/hid/usb_midi.h ****     void    Tx(uint8_t* buffer, size_t size);
  39:../../../libDaisy/src/hid/usb_midi.h **** 
  40:../../../libDaisy/src/hid/usb_midi.h ****     class Impl;
  41:../../../libDaisy/src/hid/usb_midi.h **** 
  42:../../../libDaisy/src/hid/usb_midi.h ****     MidiUsbTransport() : pimpl_(nullptr) {}
 2535              		.loc 12 42 5 is_stmt 1 view .LVU707
 2536              		.loc 12 42 5 is_stmt 0 view .LVU708
 2537              	.LBE765:
 2538              	.LBB768:
 2539              	.LBB758:
 2540              	.LBB759:
 2541              		.loc 18 97 35 view .LVU709
 2542 0000 2148     		ldr	r0, .L110
 2543              	.LBE759:
 2544              	.LBE758:
 2545              	.LBE768:
 2546              	.LBE756:
  84:../../../libDaisy/src/hid/midi.h ****     ~MidiHandler() {}
 2547              		.loc 11 84 5 view .LVU710
 2548 0002 2249     		ldr	r1, .L110+4
 2549              	.LBB772:
 2550              	.LBB769:
 2551              	.LBB766:
 2552              	.LBB767:
 2553              		.loc 12 42 40 view .LVU711
 2554 0004 00F51043 		add	r3, r0, #36864
 2555              	.LBE767:
 2556              	.LBE766:
 2557              	.LBE769:
 2558              	.LBE772:
 2559              	.LBE755:
 2560              	.LBE754:
ARM GAS  C:\Users\toesc\AppData\Local\Temp\ccOgcMME.s 			page 90


  18:adsr.cpp      **** static DaisySeed  hw;
 2561              		.loc 13 18 23 view .LVU712
 2562 0008 214A     		ldr	r2, .L110+8
 2563              	.LBE753:
 2564              	.LBE752:
 2565              		.loc 13 199 1 view .LVU713
 2566 000a 10B5     		push	{r4, lr}
 2567              		.cfi_def_cfa_offset 8
 2568              		.cfi_offset 4, -8
 2569              		.cfi_offset 14, -4
 2570              	.LBB810:
 2571              	.LBB808:
 2572              	.LBB777:
 2573              	.LBB776:
 2574              	.LBB773:
 2575              	.LBB770:
 2576              	.LBB762:
 2577              	.LBB760:
 2578              		.loc 18 97 35 view .LVU714
 2579 000c 0024     		movs	r4, #0
 2580              	.LBE760:
 2581              	.LBE762:
 2582              	.LBE770:
 2583              	.LBE773:
  84:../../../libDaisy/src/hid/midi.h ****     ~MidiHandler() {}
 2584              		.loc 11 84 5 view .LVU715
 2585 000e C3E92A41 		strd	r4, r1, [r3, #168]
 2586 0012 4FF60F01 		movw	r1, #63503
 2587              	.LBB774:
 2588              	.LBB771:
 2589              	.LBB763:
 2590              	.LBB761:
 2591              		.loc 18 97 35 view .LVU716
 2592 0016 0460     		str	r4, [r0]
 2593              	.LBE761:
 2594              	.LBE763:
 2595              	.LBE771:
 2596              	.LBE774:
  84:../../../libDaisy/src/hid/midi.h ****     ~MidiHandler() {}
 2597              		.loc 11 84 5 view .LVU717
 2598 0018 A3F8B010 		strh	r1, [r3, #176]	@ movhi
 2599              	.LBB775:
  84:../../../libDaisy/src/hid/midi.h ****     ~MidiHandler() {}
 2600              		.loc 11 84 19 view .LVU718
 2601 001c 0721     		movs	r1, #7
 2602 001e 83F8B210 		strb	r1, [r3, #178]
 2603              	.LVL186:
  84:../../../libDaisy/src/hid/midi.h ****     ~MidiHandler() {}
 2604              		.loc 11 84 19 view .LVU719
 2605              	.LBE775:
 2606              	.LBE776:
 2607              	.LBE777:
  18:adsr.cpp      **** static DaisySeed  hw;
 2608              		.loc 13 18 23 view .LVU720
 2609 0022 1C49     		ldr	r1, .L110+12
 2610 0024 FFF7FEFF 		bl	__aeabi_atexit
 2611              	.LVL187:
ARM GAS  C:\Users\toesc\AppData\Local\Temp\ccOgcMME.s 			page 91


 2612              	.LBB778:
 2613              	.LBI778:
  21:../../../libDaisy/src/daisy_seed.h ****     ~DaisySeed() {}
 2614              		.loc 6 21 5 is_stmt 1 view .LVU721
 2615              	.LBB779:
 2616              	.LBB780:
 2617              	.LBI780:
 2618              		.file 19 "../../../libDaisy/src/per/qspi.h"
   1:../../../libDaisy/src/per/qspi.h **** #ifndef DSY_QSPI
   2:../../../libDaisy/src/per/qspi.h **** #define DSY_QSPI /**< Macro */
   3:../../../libDaisy/src/per/qspi.h **** 
   4:../../../libDaisy/src/per/qspi.h **** #ifndef UNIT_TEST // for unit tests, a dummy implementation
   5:../../../libDaisy/src/per/qspi.h **** 
   6:../../../libDaisy/src/per/qspi.h **** #include <cstdint>
   7:../../../libDaisy/src/per/qspi.h **** #include "daisy_core.h" // Added for dsy_gpio_pin typedef
   8:../../../libDaisy/src/per/qspi.h **** 
   9:../../../libDaisy/src/per/qspi.h **** #define DSY_QSPI_TEXT       \
  10:../../../libDaisy/src/per/qspi.h ****     __attribute__((section( \
  11:../../../libDaisy/src/per/qspi.h ****         ".qspiflash_text"))) /**< used for reading memory in memory_mapped mode. */
  12:../../../libDaisy/src/per/qspi.h **** #define DSY_QSPI_DATA       \
  13:../../../libDaisy/src/per/qspi.h ****     __attribute__((section( \
  14:../../../libDaisy/src/per/qspi.h ****         ".qspiflash_data"))) /**< used for reading memory in memory_mapped mode. */
  15:../../../libDaisy/src/per/qspi.h **** #define DSY_QSPI_BSS        \
  16:../../../libDaisy/src/per/qspi.h ****     __attribute__((section( \
  17:../../../libDaisy/src/per/qspi.h ****         ".qspiflash_bss"))) /**< used for reading memory in memory_mapped mode. */
  18:../../../libDaisy/src/per/qspi.h **** 
  19:../../../libDaisy/src/per/qspi.h **** namespace daisy
  20:../../../libDaisy/src/per/qspi.h **** {
  21:../../../libDaisy/src/per/qspi.h **** /** @addtogroup serial
  22:../../../libDaisy/src/per/qspi.h **** @{
  23:../../../libDaisy/src/per/qspi.h **** */
  24:../../../libDaisy/src/per/qspi.h **** 
  25:../../../libDaisy/src/per/qspi.h **** /** 
  26:../../../libDaisy/src/per/qspi.h ****  Driver for QSPI peripheral to interface with external flash memory. \n 
  27:../../../libDaisy/src/per/qspi.h ****     Currently supported QSPI Devices: \n 
  28:../../../libDaisy/src/per/qspi.h ****     * IS25LP080D
  29:../../../libDaisy/src/per/qspi.h **** */
  30:../../../libDaisy/src/per/qspi.h **** class QSPIHandle
  31:../../../libDaisy/src/per/qspi.h **** {
  32:../../../libDaisy/src/per/qspi.h ****   public:
  33:../../../libDaisy/src/per/qspi.h ****     enum Result
  34:../../../libDaisy/src/per/qspi.h ****     {
  35:../../../libDaisy/src/per/qspi.h ****         OK = 0,
  36:../../../libDaisy/src/per/qspi.h ****         ERR
  37:../../../libDaisy/src/per/qspi.h ****     };
  38:../../../libDaisy/src/per/qspi.h **** 
  39:../../../libDaisy/src/per/qspi.h ****     /** Indicates the current status of the module. 
  40:../../../libDaisy/src/per/qspi.h ****          *  Warnings are indicated by a leading W.
  41:../../../libDaisy/src/per/qspi.h ****          *  Errors are indicated by a leading E and cause an immediate exit.
  42:../../../libDaisy/src/per/qspi.h ****          * 
  43:../../../libDaisy/src/per/qspi.h ****          *  \param GOOD - No errors have been reported.
  44:../../../libDaisy/src/per/qspi.h ****          *  \param E_HAL_ERROR - HAL code did not return HAL_OK.
  45:../../../libDaisy/src/per/qspi.h ****          *  \param E_SWITCHING_MODES - An error was encountered while switching QSPI peripheral mod
  46:../../../libDaisy/src/per/qspi.h ****          *  \param E_INVALID_MODE - QSPI should not be written to while the program is executing fr
  47:../../../libDaisy/src/per/qspi.h ****          */
  48:../../../libDaisy/src/per/qspi.h ****     enum Status
  49:../../../libDaisy/src/per/qspi.h ****     {
ARM GAS  C:\Users\toesc\AppData\Local\Temp\ccOgcMME.s 			page 92


  50:../../../libDaisy/src/per/qspi.h ****         GOOD = 0,
  51:../../../libDaisy/src/per/qspi.h ****         E_HAL_ERROR,
  52:../../../libDaisy/src/per/qspi.h ****         E_SWITCHING_MODES,
  53:../../../libDaisy/src/per/qspi.h ****         E_INVALID_MODE,
  54:../../../libDaisy/src/per/qspi.h ****     };
  55:../../../libDaisy/src/per/qspi.h **** 
  56:../../../libDaisy/src/per/qspi.h ****     /** Configuration structure for interfacing with QSPI Driver */
  57:../../../libDaisy/src/per/qspi.h ****     struct Config
  58:../../../libDaisy/src/per/qspi.h ****     {
  59:../../../libDaisy/src/per/qspi.h ****         /** Flash Devices supported. (Both of these are more-or-less the same, just different sizes
  60:../../../libDaisy/src/per/qspi.h ****         enum Device
  61:../../../libDaisy/src/per/qspi.h ****         {
  62:../../../libDaisy/src/per/qspi.h ****             IS25LP080D,  /**< & */
  63:../../../libDaisy/src/per/qspi.h ****             IS25LP064A,  /**< & */
  64:../../../libDaisy/src/per/qspi.h ****             DEVICE_LAST, /**< & */
  65:../../../libDaisy/src/per/qspi.h ****         };
  66:../../../libDaisy/src/per/qspi.h **** 
  67:../../../libDaisy/src/per/qspi.h ****         /** 
  68:../../../libDaisy/src/per/qspi.h ****         Modes of operation.
  69:../../../libDaisy/src/per/qspi.h ****         Memory Mapped mode: QSPI configured so that the QSPI can be
  70:../../../libDaisy/src/per/qspi.h ****         read from starting address 0x90000000. Writing is not
  71:../../../libDaisy/src/per/qspi.h ****         possible in this mode. \n 
  72:../../../libDaisy/src/per/qspi.h ****         Indirect Polling mode: Device driver enabled. 
  73:../../../libDaisy/src/per/qspi.h ****         */
  74:../../../libDaisy/src/per/qspi.h ****         enum Mode
  75:../../../libDaisy/src/per/qspi.h ****         {
  76:../../../libDaisy/src/per/qspi.h ****             MEMORY_MAPPED,    /**< & */
  77:../../../libDaisy/src/per/qspi.h ****             INDIRECT_POLLING, /**< & */
  78:../../../libDaisy/src/per/qspi.h ****             MODE_LAST,
  79:../../../libDaisy/src/per/qspi.h ****         };
  80:../../../libDaisy/src/per/qspi.h **** 
  81:../../../libDaisy/src/per/qspi.h ****         //SCK,  CE# (active low)
  82:../../../libDaisy/src/per/qspi.h ****         struct
  83:../../../libDaisy/src/per/qspi.h ****         {
  84:../../../libDaisy/src/per/qspi.h ****             dsy_gpio_pin io0; /**< & */
  85:../../../libDaisy/src/per/qspi.h ****             dsy_gpio_pin io1; /**< & */
  86:../../../libDaisy/src/per/qspi.h ****             dsy_gpio_pin io2; /**< & */
  87:../../../libDaisy/src/per/qspi.h ****             dsy_gpio_pin io3; /**< & */
  88:../../../libDaisy/src/per/qspi.h ****             dsy_gpio_pin clk; /**< & */
  89:../../../libDaisy/src/per/qspi.h ****             dsy_gpio_pin ncs; /**< & */
  90:../../../libDaisy/src/per/qspi.h ****         } pin_config;
  91:../../../libDaisy/src/per/qspi.h **** 
  92:../../../libDaisy/src/per/qspi.h ****         Device device;
  93:../../../libDaisy/src/per/qspi.h ****         Mode   mode;
  94:../../../libDaisy/src/per/qspi.h ****     };
  95:../../../libDaisy/src/per/qspi.h **** 
  96:../../../libDaisy/src/per/qspi.h ****     /** 
  97:../../../libDaisy/src/per/qspi.h ****         Initializes QSPI peripheral, and Resets, and prepares memory for access.
  98:../../../libDaisy/src/per/qspi.h ****         \param config should be populated with the mode, device and pin_config before calling this 
  99:../../../libDaisy/src/per/qspi.h ****         \return Result::OK or Result::ERR
 100:../../../libDaisy/src/per/qspi.h ****         */
 101:../../../libDaisy/src/per/qspi.h ****     Result Init(const Config& config);
 102:../../../libDaisy/src/per/qspi.h **** 
 103:../../../libDaisy/src/per/qspi.h ****     /** Returns the current config. */
 104:../../../libDaisy/src/per/qspi.h ****     const Config& GetConfig() const;
 105:../../../libDaisy/src/per/qspi.h **** 
 106:../../../libDaisy/src/per/qspi.h ****     // Couldn't this just be called before anything else in init? That
ARM GAS  C:\Users\toesc\AppData\Local\Temp\ccOgcMME.s 			page 93


 107:../../../libDaisy/src/per/qspi.h ****     // would make manually calling it unnecessary.
 108:../../../libDaisy/src/per/qspi.h ****     /** 
 109:../../../libDaisy/src/per/qspi.h ****         Deinitializes the peripheral
 110:../../../libDaisy/src/per/qspi.h ****         This should be called before reinitializing QSPI in a different mode.
 111:../../../libDaisy/src/per/qspi.h ****         \return Result::OK or Result::ERR
 112:../../../libDaisy/src/per/qspi.h ****         */
 113:../../../libDaisy/src/per/qspi.h ****     Result DeInit();
 114:../../../libDaisy/src/per/qspi.h **** 
 115:../../../libDaisy/src/per/qspi.h ****     /** 
 116:../../../libDaisy/src/per/qspi.h ****         Writes a single page to to the specified address on the QSPI chip.
 117:../../../libDaisy/src/per/qspi.h ****         For IS25LP*, page size is 256 bytes.
 118:../../../libDaisy/src/per/qspi.h ****         \param address Address to write to
 119:../../../libDaisy/src/per/qspi.h ****         \param size Buffer size
 120:../../../libDaisy/src/per/qspi.h ****         \param buffer Buffer to write
 121:../../../libDaisy/src/per/qspi.h ****         \return Result::OK or Result::ERR
 122:../../../libDaisy/src/per/qspi.h ****         */
 123:../../../libDaisy/src/per/qspi.h ****     Result WritePage(uint32_t address, uint32_t size, uint8_t* buffer);
 124:../../../libDaisy/src/per/qspi.h **** 
 125:../../../libDaisy/src/per/qspi.h ****     /** 
 126:../../../libDaisy/src/per/qspi.h ****         Writes data in buffer to to the QSPI. Starting at address to address+size 
 127:../../../libDaisy/src/per/qspi.h ****         \param address Address to write to
 128:../../../libDaisy/src/per/qspi.h ****         \param size Buffer size
 129:../../../libDaisy/src/per/qspi.h ****         \param buffer Buffer to write
 130:../../../libDaisy/src/per/qspi.h ****         \return Result::OK or Result::ERR
 131:../../../libDaisy/src/per/qspi.h ****         */
 132:../../../libDaisy/src/per/qspi.h ****     Result Write(uint32_t address, uint32_t size, uint8_t* buffer);
 133:../../../libDaisy/src/per/qspi.h **** 
 134:../../../libDaisy/src/per/qspi.h ****     /** 
 135:../../../libDaisy/src/per/qspi.h ****         Erases the area specified on the chip.
 136:../../../libDaisy/src/per/qspi.h ****         Erasures will happen by 4K, 32K or 64K increments.
 137:../../../libDaisy/src/per/qspi.h ****         Smallest erase possible is 4kB at a time. (on IS25LP*)
 138:../../../libDaisy/src/per/qspi.h ****         \param start_addr Address to begin erasing from
 139:../../../libDaisy/src/per/qspi.h ****         \param end_addr  Address to stop erasing at
 140:../../../libDaisy/src/per/qspi.h ****         \return Result::OK or Result::ERR
 141:../../../libDaisy/src/per/qspi.h ****         */
 142:../../../libDaisy/src/per/qspi.h ****     Result Erase(uint32_t start_addr, uint32_t end_addr);
 143:../../../libDaisy/src/per/qspi.h **** 
 144:../../../libDaisy/src/per/qspi.h ****     /**  
 145:../../../libDaisy/src/per/qspi.h ****          Erases a single sector of the chip.  
 146:../../../libDaisy/src/per/qspi.h ****         TODO: Document the size of this function. 
 147:../../../libDaisy/src/per/qspi.h ****         \param address Address of sector to erase
 148:../../../libDaisy/src/per/qspi.h ****         \return Result::OK or Result::ERR
 149:../../../libDaisy/src/per/qspi.h ****         */
 150:../../../libDaisy/src/per/qspi.h ****     Result EraseSector(uint32_t address);
 151:../../../libDaisy/src/per/qspi.h **** 
 152:../../../libDaisy/src/per/qspi.h ****     /** Returns the current class status. Useful for debugging.
 153:../../../libDaisy/src/per/qspi.h ****      *  \returns Status
 154:../../../libDaisy/src/per/qspi.h ****      */
 155:../../../libDaisy/src/per/qspi.h ****     Status GetStatus();
 156:../../../libDaisy/src/per/qspi.h **** 
 157:../../../libDaisy/src/per/qspi.h ****     /** Returns a pointer to the actual memory used 
 158:../../../libDaisy/src/per/qspi.h ****      *  The memory at this address is read-only
 159:../../../libDaisy/src/per/qspi.h ****      *  to write to it use the Write function.
 160:../../../libDaisy/src/per/qspi.h ****      * 
 161:../../../libDaisy/src/per/qspi.h ****      *  \param offset returns the pointer starting this 
 162:../../../libDaisy/src/per/qspi.h ****      *                many bytes into the memory
 163:../../../libDaisy/src/per/qspi.h ****     */
ARM GAS  C:\Users\toesc\AppData\Local\Temp\ccOgcMME.s 			page 94


 164:../../../libDaisy/src/per/qspi.h ****     void* GetData(uint32_t offset = 0);
 165:../../../libDaisy/src/per/qspi.h **** 
 166:../../../libDaisy/src/per/qspi.h ****     QSPIHandle() : pimpl_(nullptr) {}
 2619              		.loc 19 166 5 view .LVU722
 2620              	.LBB781:
 2621              	.LBB782:
 2622              		.loc 19 166 34 is_stmt 0 view .LVU723
 2623 0028 1B48     		ldr	r0, .L110+16
 2624              	.LBE782:
 2625              	.LBE781:
 2626              	.LBE780:
 2627              	.LBE779:
 2628              	.LBE778:
  19:adsr.cpp      **** static Adsr       env;
 2629              		.loc 13 19 19 view .LVU724
 2630 002a 194A     		ldr	r2, .L110+8
 2631 002c 1B49     		ldr	r1, .L110+20
 2632              	.LBB796:
 2633              	.LBB795:
 2634              	.LBB785:
 2635              	.LBB784:
 2636              	.LBB783:
 2637              		.loc 19 166 34 view .LVU725
 2638 002e 0460     		str	r4, [r0]
 2639              	.LVL188:
 2640              		.loc 19 166 34 view .LVU726
 2641              	.LBE783:
 2642              	.LBE784:
 2643              	.LBE785:
 2644              	.LBB786:
 2645              	.LBI786:
  95:../../../libDaisy/src/hid/audio.h ****     ~AudioHandle() {}
 2646              		.loc 10 95 5 is_stmt 1 view .LVU727
 2647              	.LBB787:
 2648              	.LBB788:
  95:../../../libDaisy/src/hid/audio.h ****     ~AudioHandle() {}
 2649              		.loc 10 95 35 is_stmt 0 view .LVU728
 2650 0030 4461     		str	r4, [r0, #20]
 2651              	.LVL189:
  95:../../../libDaisy/src/hid/audio.h ****     ~AudioHandle() {}
 2652              		.loc 10 95 35 view .LVU729
 2653              	.LBE788:
 2654              	.LBE787:
 2655              	.LBE786:
 2656              	.LBB789:
 2657              	.LBI789:
  92:../../../libDaisy/src/per/adc.h ****     ~AdcHandle() {}
 2658              		.loc 9 92 5 is_stmt 1 view .LVU730
  92:../../../libDaisy/src/per/adc.h ****     ~AdcHandle() {}
 2659              		.loc 9 92 5 is_stmt 0 view .LVU731
 2660              	.LBE789:
 2661              	.LBB790:
 2662              	.LBI790:
 2663              		.file 20 "../../../libDaisy/src/per/dac.h"
   1:../../../libDaisy/src/per/dac.h **** #pragma once
   2:../../../libDaisy/src/per/dac.h **** #ifndef DSY_DAC_H
   3:../../../libDaisy/src/per/dac.h **** #define DSY_DAC_H
ARM GAS  C:\Users\toesc\AppData\Local\Temp\ccOgcMME.s 			page 95


   4:../../../libDaisy/src/per/dac.h **** 
   5:../../../libDaisy/src/per/dac.h **** #include "daisy_core.h"
   6:../../../libDaisy/src/per/dac.h **** 
   7:../../../libDaisy/src/per/dac.h **** namespace daisy
   8:../../../libDaisy/src/per/dac.h **** {
   9:../../../libDaisy/src/per/dac.h **** /** @brief DAC handle for Built-in DAC Peripheral 
  10:../../../libDaisy/src/per/dac.h ****  *  @ingroup per_analog
  11:../../../libDaisy/src/per/dac.h ****  ** 
  12:../../../libDaisy/src/per/dac.h ****  ** For now only Normal Mode is supported,
  13:../../../libDaisy/src/per/dac.h ****  ** Sample and hold mode provides reduced power consumption, but requires a bit more setup.
  14:../../../libDaisy/src/per/dac.h ****  **
  15:../../../libDaisy/src/per/dac.h ****  ** For now connecting the DAC through other internal peripherals is also not supported.
  16:../../../libDaisy/src/per/dac.h ****  **
  17:../../../libDaisy/src/per/dac.h ****  ** Since the DAC channels have dedicated pins we don't need to pass in a pin config like with
  18:../../../libDaisy/src/per/dac.h ****  ** other modules. However, it is still important to not try to use the DAC pins for anything else.
  19:../../../libDaisy/src/per/dac.h ****  ** DAC Channel 1 is on PA4, and DAC Channel 2 is on PA5
  20:../../../libDaisy/src/per/dac.h ****  ***/
  21:../../../libDaisy/src/per/dac.h **** class DacHandle
  22:../../../libDaisy/src/per/dac.h **** {
  23:../../../libDaisy/src/per/dac.h ****   public:
  24:../../../libDaisy/src/per/dac.h ****     /** Return Values for the DacHandle class */
  25:../../../libDaisy/src/per/dac.h ****     enum class Result
  26:../../../libDaisy/src/per/dac.h ****     {
  27:../../../libDaisy/src/per/dac.h ****         OK,
  28:../../../libDaisy/src/per/dac.h ****         ERR,
  29:../../../libDaisy/src/per/dac.h ****     };
  30:../../../libDaisy/src/per/dac.h **** 
  31:../../../libDaisy/src/per/dac.h ****     /** Selects which channel(s) will be configured for use. */
  32:../../../libDaisy/src/per/dac.h ****     enum class Channel
  33:../../../libDaisy/src/per/dac.h ****     {
  34:../../../libDaisy/src/per/dac.h ****         ONE,
  35:../../../libDaisy/src/per/dac.h ****         TWO,
  36:../../../libDaisy/src/per/dac.h ****         BOTH,
  37:../../../libDaisy/src/per/dac.h ****     };
  38:../../../libDaisy/src/per/dac.h **** 
  39:../../../libDaisy/src/per/dac.h ****     /** Sets the Mode for the DAC channels.
  40:../../../libDaisy/src/per/dac.h ****      **
  41:../../../libDaisy/src/per/dac.h ****      ** Polling mode uses the blocking mode to transmit a single value at a time.
  42:../../../libDaisy/src/per/dac.h ****      **
  43:../../../libDaisy/src/per/dac.h ****      ** DMA mode uses a buffer, and periodically transmits it triggering a 
  44:../../../libDaisy/src/per/dac.h ****      ** callback to fill the buffer when it is ready for more samples.
  45:../../../libDaisy/src/per/dac.h ****      ***/
  46:../../../libDaisy/src/per/dac.h ****     enum class Mode
  47:../../../libDaisy/src/per/dac.h ****     {
  48:../../../libDaisy/src/per/dac.h ****         POLLING,
  49:../../../libDaisy/src/per/dac.h ****         DMA,
  50:../../../libDaisy/src/per/dac.h ****     };
  51:../../../libDaisy/src/per/dac.h **** 
  52:../../../libDaisy/src/per/dac.h ****     /** Sets the number of bits per sample transmitted out of the DAC.
  53:../../../libDaisy/src/per/dac.h ****      ** The output range will be: 0V - VDDA
  54:../../../libDaisy/src/per/dac.h ****      ** The resolution will be roughly: bitdepth / (VDDA - 0V) 
  55:../../../libDaisy/src/per/dac.h ****      ***/
  56:../../../libDaisy/src/per/dac.h ****     enum class BitDepth
  57:../../../libDaisy/src/per/dac.h ****     {
  58:../../../libDaisy/src/per/dac.h ****         BITS_8,
  59:../../../libDaisy/src/per/dac.h ****         BITS_12
  60:../../../libDaisy/src/per/dac.h ****     };
ARM GAS  C:\Users\toesc\AppData\Local\Temp\ccOgcMME.s 			page 96


  61:../../../libDaisy/src/per/dac.h **** 
  62:../../../libDaisy/src/per/dac.h ****     /** Sets whether the DAC output is buffered for higher drive ability. */
  63:../../../libDaisy/src/per/dac.h ****     enum class BufferState
  64:../../../libDaisy/src/per/dac.h ****     {
  65:../../../libDaisy/src/per/dac.h ****         ENABLED,
  66:../../../libDaisy/src/per/dac.h ****         DISABLED,
  67:../../../libDaisy/src/per/dac.h ****     };
  68:../../../libDaisy/src/per/dac.h **** 
  69:../../../libDaisy/src/per/dac.h ****     /** Configuration structure for initializing the DAC structure. */
  70:../../../libDaisy/src/per/dac.h ****     struct Config
  71:../../../libDaisy/src/per/dac.h ****     {
  72:../../../libDaisy/src/per/dac.h ****         /** Target Samplerate in Hz used to configure the internal 
  73:../../../libDaisy/src/per/dac.h ****          ** timebase for DMA mode. Does nothing in POLLING mode.
  74:../../../libDaisy/src/per/dac.h ****          ** If the value is 0 at Init time this will default to 48000Hz 
  75:../../../libDaisy/src/per/dac.h ****          ** otherwise the driver will attempt meet the target.*/
  76:../../../libDaisy/src/per/dac.h ****         uint32_t target_samplerate;
  77:../../../libDaisy/src/per/dac.h **** 
  78:../../../libDaisy/src/per/dac.h ****         Channel     chn;
  79:../../../libDaisy/src/per/dac.h ****         Mode        mode;
  80:../../../libDaisy/src/per/dac.h ****         BitDepth    bitdepth;
  81:../../../libDaisy/src/per/dac.h ****         BufferState buff_state;
  82:../../../libDaisy/src/per/dac.h ****     };
  83:../../../libDaisy/src/per/dac.h **** 
  84:../../../libDaisy/src/per/dac.h ****     DacHandle() : pimpl_(nullptr) {}
 2664              		.loc 20 84 5 is_stmt 1 view .LVU732
 2665              	.LBB791:
 2666              	.LBB792:
 2667              		.loc 20 84 33 is_stmt 0 view .LVU733
 2668 0032 0462     		str	r4, [r0, #32]
 2669              	.LVL190:
 2670              		.loc 20 84 33 view .LVU734
 2671              	.LBE792:
 2672              	.LBE791:
 2673              	.LBE790:
 2674              	.LBB793:
 2675              	.LBI793:
  40:../../../libDaisy/src/hid/usb.h **** 
 2676              		.loc 8 40 5 is_stmt 1 view .LVU735
  40:../../../libDaisy/src/hid/usb.h **** 
 2677              		.loc 8 40 5 is_stmt 0 view .LVU736
 2678              	.LBE793:
 2679              	.LBB794:
 2680              	.LBI794:
  77:../../../libDaisy/src/sys/system.h ****     ~System() {}
 2681              		.loc 7 77 5 is_stmt 1 view .LVU737
  77:../../../libDaisy/src/sys/system.h ****     ~System() {}
 2682              		.loc 7 77 5 is_stmt 0 view .LVU738
 2683              	.LBE794:
 2684              	.LBE795:
 2685              	.LBE796:
  19:adsr.cpp      **** static Adsr       env;
 2686              		.loc 13 19 19 view .LVU739
 2687 0034 FFF7FEFF 		bl	__aeabi_atexit
 2688              	.LVL191:
 2689              	.LBB797:
 2690              	.LBI797:
  36:../../../DaisySP/Source/Control/adsr.h ****     ~Adsr() {}
ARM GAS  C:\Users\toesc\AppData\Local\Temp\ccOgcMME.s 			page 97


 2691              		.loc 1 36 5 is_stmt 1 view .LVU740
 2692              	.LBB798:
 2693              	.LBB799:
  36:../../../DaisySP/Source/Control/adsr.h ****     ~Adsr() {}
 2694              		.loc 1 36 12 is_stmt 0 view .LVU741
 2695 0038 1948     		ldr	r0, .L110+24
 2696 003a 0023     		movs	r3, #0
 2697 003c 1949     		ldr	r1, .L110+28
 2698              	.LBE799:
 2699              	.LBE798:
 2700              	.LBE797:
  20:adsr.cpp      **** static Oscillator osc;
 2701              		.loc 13 20 19 view .LVU742
 2702 003e 144A     		ldr	r2, .L110+8
 2703              	.LBB803:
 2704              	.LBB802:
 2705              	.LBB800:
  36:../../../DaisySP/Source/Control/adsr.h ****     ~Adsr() {}
 2706              		.loc 1 36 12 view .LVU743
 2707 0040 0360     		str	r3, [r0]	@ float
 2708 0042 4360     		str	r3, [r0, #4]	@ float
 2709 0044 C360     		str	r3, [r0, #12]	@ float
 2710 0046 C361     		str	r3, [r0, #28]	@ float
 2711 0048 0362     		str	r3, [r0, #32]	@ float
 2712 004a 4362     		str	r3, [r0, #36]	@ float
 2713              	.LBE800:
 2714 004c 8485     		strh	r4, [r0, #44]	@ movhi
 2715              	.LVL192:
 2716              	.LBB801:
  36:../../../DaisySP/Source/Control/adsr.h ****     ~Adsr() {}
 2717              		.loc 1 36 12 view .LVU744
 2718 004e 8160     		str	r1, [r0, #8]	@ float
 2719 0050 0161     		str	r1, [r0, #16]	@ float
 2720 0052 4161     		str	r1, [r0, #20]	@ float
 2721 0054 8161     		str	r1, [r0, #24]	@ float
 2722              	.LBE801:
 2723              	.LBE802:
 2724              	.LBE803:
  20:adsr.cpp      **** static Oscillator osc;
 2725              		.loc 13 20 19 view .LVU745
 2726 0056 1449     		ldr	r1, .L110+32
 2727 0058 FFF7FEFF 		bl	__aeabi_atexit
 2728              	.LVL193:
 2729              	.LBB804:
 2730              	.LBI804:
  15:../../../DaisySP/Source/Synthesis/oscillator.h ****     ~Oscillator() {}
 2731              		.loc 2 15 5 is_stmt 1 view .LVU746
  15:../../../DaisySP/Source/Synthesis/oscillator.h ****     ~Oscillator() {}
 2732              		.loc 2 15 5 is_stmt 0 view .LVU747
 2733              	.LBE804:
  21:adsr.cpp      **** static MoogLadder filter;
 2734              		.loc 13 21 19 view .LVU748
 2735 005c 0C4A     		ldr	r2, .L110+8
 2736 005e 1349     		ldr	r1, .L110+36
 2737 0060 1348     		ldr	r0, .L110+40
 2738 0062 FFF7FEFF 		bl	__aeabi_atexit
 2739              	.LVL194:
ARM GAS  C:\Users\toesc\AppData\Local\Temp\ccOgcMME.s 			page 98


 2740              	.LBB805:
 2741              	.LBI805:
  20:../../../DaisySP/Source/Filters/moogladder.h ****     ~MoogLadder() {}
 2742              		.loc 4 20 5 is_stmt 1 view .LVU749
  20:../../../DaisySP/Source/Filters/moogladder.h ****     ~MoogLadder() {}
 2743              		.loc 4 20 5 is_stmt 0 view .LVU750
 2744              	.LBE805:
  22:adsr.cpp      **** static BlOsc primary;
 2745              		.loc 13 22 19 view .LVU751
 2746 0066 0A4A     		ldr	r2, .L110+8
 2747 0068 1249     		ldr	r1, .L110+44
 2748 006a 1348     		ldr	r0, .L110+48
 2749 006c FFF7FEFF 		bl	__aeabi_atexit
 2750              	.LVL195:
 2751              	.LBB806:
 2752              	.LBI806:
  21:../../../DaisySP/Source/Synthesis/blosc.h ****     ~BlOsc() {}
 2753              		.loc 5 21 5 is_stmt 1 view .LVU752
  21:../../../DaisySP/Source/Synthesis/blosc.h ****     ~BlOsc() {}
 2754              		.loc 5 21 5 is_stmt 0 view .LVU753
 2755              	.LBE806:
  23:adsr.cpp      **** bool              mygate;
 2756              		.loc 13 23 14 view .LVU754
 2757 0070 074A     		ldr	r2, .L110+8
 2758 0072 1249     		ldr	r1, .L110+52
 2759 0074 1248     		ldr	r0, .L110+56
 2760 0076 FFF7FEFF 		bl	__aeabi_atexit
 2761              	.LVL196:
 2762              	.LBB807:
 2763              	.LBI807:
  40:../../../DaisySP/Source/Effects/reverbsc.h ****     ~ReverbSc() {}
 2764              		.loc 3 40 5 is_stmt 1 view .LVU755
  40:../../../DaisySP/Source/Effects/reverbsc.h ****     ~ReverbSc() {}
 2765              		.loc 3 40 5 is_stmt 0 view .LVU756
 2766              	.LBE807:
  25:adsr.cpp      **** float myattack;
 2767              		.loc 13 25 19 view .LVU757
 2768 007a 054A     		ldr	r2, .L110+8
 2769 007c 1149     		ldr	r1, .L110+60
 2770 007e 1248     		ldr	r0, .L110+64
 2771              	.LBE808:
 2772              	.LBE810:
 2773              		.loc 13 199 1 view .LVU758
 2774 0080 BDE81040 		pop	{r4, lr}
 2775              		.cfi_restore 14
 2776              		.cfi_restore 4
 2777              		.cfi_def_cfa_offset 0
 2778              	.LBB811:
 2779              	.LBB809:
  25:adsr.cpp      **** float myattack;
 2780              		.loc 13 25 19 view .LVU759
 2781 0084 FFF7FEBF 		b	__aeabi_atexit
 2782              	.LVL197:
 2783              	.L111:
 2784              		.align	2
 2785              	.L110:
 2786 0088 00000000 		.word	_ZL4midi
ARM GAS  C:\Users\toesc\AppData\Local\Temp\ccOgcMME.s 			page 99


 2787 008c 80707FF0 		.word	-260083584
 2788 0090 00000000 		.word	__dso_handle
 2789 0094 00000000 		.word	_ZN5daisy11MidiHandlerINS_16MidiUsbTransportEED1Ev
 2790 0098 00000000 		.word	.LANCHOR4
 2791 009c 00000000 		.word	_ZN5daisy9DaisySeedD1Ev
 2792 00a0 00000000 		.word	.LANCHOR1
 2793 00a4 000080BF 		.word	-1082130432
 2794 00a8 00000000 		.word	_ZN7daisysp4AdsrD1Ev
 2795 00ac 00000000 		.word	_ZN7daisysp10OscillatorD1Ev
 2796 00b0 00000000 		.word	.LANCHOR2
 2797 00b4 00000000 		.word	_ZN7daisysp10MoogLadderD1Ev
 2798 00b8 00000000 		.word	.LANCHOR3
 2799 00bc 00000000 		.word	_ZN7daisysp5BlOscD1Ev
 2800 00c0 00000000 		.word	_ZL7primary
 2801 00c4 00000000 		.word	_ZN7daisysp8ReverbScD1Ev
 2802 00c8 00000000 		.word	_ZL4verb
 2803              	.LBE809:
 2804              	.LBE811:
 2805              		.cfi_endproc
 2806              	.LFE5362:
 2808              		.section	.init_array,"aw",%init_array
 2809              		.align	2
 2810 0000 00000000 		.word	_GLOBAL__sub_I_mygate(target1)
 2811              		.global	myrelease
 2812              		.global	myattack
 2813              		.global	mygate
 2814              		.section	.bss._ZL2hw,"aw",%nobits
 2815              		.align	2
 2816              		.set	.LANCHOR4,. + 0
 2819              	_ZL2hw:
 2820 0000 00000000 		.space	60
 2820      00000000 
 2820      00000000 
 2820      00000000 
 2820      00000000 
 2821              		.section	.bss._ZL3env,"aw",%nobits
 2822              		.align	2
 2823              		.set	.LANCHOR1,. + 0
 2826              	_ZL3env:
 2827 0000 00000000 		.space	48
 2827      00000000 
 2827      00000000 
 2827      00000000 
 2827      00000000 
 2828              		.section	.bss._ZL3osc,"aw",%nobits
 2829              		.align	2
 2830              		.set	.LANCHOR2,. + 0
 2833              	_ZL3osc:
 2834 0000 00000000 		.space	40
 2834      00000000 
 2834      00000000 
 2834      00000000 
 2834      00000000 
 2835              		.section	.bss._ZL4midi,"aw",%nobits
 2836              		.align	2
 2839              	_ZL4midi:
 2840 0000 00000000 		.space	37044
ARM GAS  C:\Users\toesc\AppData\Local\Temp\ccOgcMME.s 			page 100


 2840      00000000 
 2840      00000000 
 2840      00000000 
 2840      00000000 
 2841              		.section	.bss._ZL4verb,"aw",%nobits
 2842              		.align	2
 2845              	_ZL4verb:
 2846 0000 00000000 		.space	396100
 2846      00000000 
 2846      00000000 
 2846      00000000 
 2846      00000000 
 2847              		.section	.bss._ZL6filter,"aw",%nobits
 2848              		.align	2
 2849              		.set	.LANCHOR3,. + 0
 2852              	_ZL6filter:
 2853 0000 00000000 		.space	68
 2853      00000000 
 2853      00000000 
 2853      00000000 
 2853      00000000 
 2854              		.section	.bss._ZL7primary,"aw",%nobits
 2855              		.align	2
 2858              	_ZL7primary:
 2859 0000 00000000 		.space	16460
 2859      00000000 
 2859      00000000 
 2859      00000000 
 2859      00000000 
 2860              		.section	.bss.myattack,"aw",%nobits
 2861              		.align	2
 2862              		.set	.LANCHOR6,. + 0
 2865              	myattack:
 2866 0000 00000000 		.space	4
 2867              		.section	.bss.mygate,"aw",%nobits
 2868              		.set	.LANCHOR0,. + 0
 2871              	mygate:
 2872 0000 00       		.space	1
 2873              		.section	.bss.myrelease,"aw",%nobits
 2874              		.align	2
 2875              		.set	.LANCHOR5,. + 0
 2878              	myrelease:
 2879 0000 00000000 		.space	4
 2880              		.text
 2881              	.Letext0:
 2882              		.file 21 "c:\\users\\toesc\\documents\\daisytoolchain\\windows\\arm-none-eabi\\include\\machine\\_
 2883              		.file 22 "c:\\users\\toesc\\documents\\daisytoolchain\\windows\\arm-none-eabi\\include\\sys\\_stdi
 2884              		.file 23 "c:\\users\\toesc\\documents\\daisytoolchain\\windows\\arm-none-eabi\\include\\stdint.h"
 2885              		.file 24 "c:\\users\\toesc\\documents\\daisytoolchain\\windows\\lib\\gcc\\arm-none-eabi\\10.2.1\\i
 2886              		.file 25 "c:\\users\\toesc\\documents\\daisytoolchain\\windows\\arm-none-eabi\\include\\c++\\10.2.
 2887              		.file 26 "c:\\users\\toesc\\documents\\daisytoolchain\\windows\\arm-none-eabi\\include\\c++\\10.2.
 2888              		.file 27 "c:\\users\\toesc\\documents\\daisytoolchain\\windows\\arm-none-eabi\\include\\c++\\10.2.
 2889              		.file 28 "c:\\users\\toesc\\documents\\daisytoolchain\\windows\\arm-none-eabi\\include\\c++\\10.2.
 2890              		.file 29 "c:\\users\\toesc\\documents\\daisytoolchain\\windows\\arm-none-eabi\\include\\c++\\10.2.
 2891              		.file 30 "c:\\users\\toesc\\documents\\daisytoolchain\\windows\\arm-none-eabi\\include\\c++\\10.2.
 2892              		.file 31 "c:\\users\\toesc\\documents\\daisytoolchain\\windows\\arm-none-eabi\\include\\c++\\10.2.
 2893              		.file 32 "c:\\users\\toesc\\documents\\daisytoolchain\\windows\\arm-none-eabi\\include\\c++\\10.2.
ARM GAS  C:\Users\toesc\AppData\Local\Temp\ccOgcMME.s 			page 101


 2894              		.file 33 "c:\\users\\toesc\\documents\\daisytoolchain\\windows\\arm-none-eabi\\include\\c++\\10.2.
 2895              		.file 34 "c:\\users\\toesc\\documents\\daisytoolchain\\windows\\arm-none-eabi\\include\\c++\\10.2.
 2896              		.file 35 "c:\\users\\toesc\\documents\\daisytoolchain\\windows\\arm-none-eabi\\include\\c++\\10.2.
 2897              		.file 36 "c:\\users\\toesc\\documents\\daisytoolchain\\windows\\arm-none-eabi\\include\\c++\\10.2.
 2898              		.file 37 "c:\\users\\toesc\\documents\\daisytoolchain\\windows\\arm-none-eabi\\include\\c++\\10.2.
 2899              		.file 38 "c:\\users\\toesc\\documents\\daisytoolchain\\windows\\arm-none-eabi\\include\\c++\\10.2.
 2900              		.file 39 "c:\\users\\toesc\\documents\\daisytoolchain\\windows\\arm-none-eabi\\include\\c++\\10.2.
 2901              		.file 40 "c:\\users\\toesc\\documents\\daisytoolchain\\windows\\arm-none-eabi\\include\\c++\\10.2.
 2902              		.file 41 "c:\\users\\toesc\\documents\\daisytoolchain\\windows\\arm-none-eabi\\include\\c++\\10.2.
 2903              		.file 42 "c:\\users\\toesc\\documents\\daisytoolchain\\windows\\arm-none-eabi\\include\\c++\\10.2.
 2904              		.file 43 "c:\\users\\toesc\\documents\\daisytoolchain\\windows\\arm-none-eabi\\include\\sys\\_type
 2905              		.file 44 "c:\\users\\toesc\\documents\\daisytoolchain\\windows\\arm-none-eabi\\include\\sys\\reent
 2906              		.file 45 "c:\\users\\toesc\\documents\\daisytoolchain\\windows\\arm-none-eabi\\include\\sys\\lock.
 2907              		.file 46 "c:\\users\\toesc\\documents\\daisytoolchain\\windows\\arm-none-eabi\\include\\math.h"
 2908              		.file 47 "c:\\users\\toesc\\documents\\daisytoolchain\\windows\\arm-none-eabi\\include\\stdlib.h"
 2909              		.file 48 "c:\\users\\toesc\\documents\\daisytoolchain\\windows\\arm-none-eabi\\include\\c++\\10.2.
 2910              		.file 49 "../../../DaisySP/Source/Control/adenv.h"
 2911              		.file 50 "c:\\users\\toesc\\documents\\daisytoolchain\\windows\\lib\\gcc\\arm-none-eabi\\10.2.1\\i
 2912              		.file 51 "c:\\users\\toesc\\documents\\daisytoolchain\\windows\\arm-none-eabi\\include\\wchar.h"
 2913              		.file 52 "c:\\users\\toesc\\documents\\daisytoolchain\\windows\\arm-none-eabi\\include\\locale.h"
 2914              		.file 53 "c:\\users\\toesc\\documents\\daisytoolchain\\windows\\arm-none-eabi\\include\\stdio.h"
 2915              		.file 54 "c:\\users\\toesc\\documents\\daisytoolchain\\windows\\arm-none-eabi\\include\\c++\\10.2.
 2916              		.file 55 "c:\\users\\toesc\\documents\\daisytoolchain\\windows\\arm-none-eabi\\include\\string.h"
 2917              		.file 56 "../../../libDaisy/src/per/tim.h"
 2918              		.file 57 "../../../libDaisy/src/per/sai.h"
 2919              		.file 58 "../../../libDaisy/src/util/wav_format.h"
 2920              		.file 59 "../../../libDaisy/src/dev/max11300.h"
 2921              		.file 60 "../../../libDaisy/src/per/gpio.h"
 2922              		.file 61 "../../../libDaisy/src/dev/sdram.h"
 2923              		.file 62 "../../../libDaisy/src/dev/sr_595.h"
 2924              		.file 63 "<built-in>"
ARM GAS  C:\Users\toesc\AppData\Local\Temp\ccOgcMME.s 			page 102


DEFINED SYMBOLS
                            *ABS*:00000000 adsr.cpp
C:\Users\toesc\AppData\Local\Temp\ccOgcMME.s:17     .text._ZN7daisysp4AdsrD2Ev:00000000 $t
C:\Users\toesc\AppData\Local\Temp\ccOgcMME.s:26     .text._ZN7daisysp4AdsrD2Ev:00000000 _ZN7daisysp4AdsrD2Ev
C:\Users\toesc\AppData\Local\Temp\ccOgcMME.s:26     .text._ZN7daisysp4AdsrD2Ev:00000000 _ZN7daisysp4AdsrD1Ev
C:\Users\toesc\AppData\Local\Temp\ccOgcMME.s:43     .text._ZN7daisysp10OscillatorD2Ev:00000000 $t
C:\Users\toesc\AppData\Local\Temp\ccOgcMME.s:51     .text._ZN7daisysp10OscillatorD2Ev:00000000 _ZN7daisysp10OscillatorD2Ev
C:\Users\toesc\AppData\Local\Temp\ccOgcMME.s:51     .text._ZN7daisysp10OscillatorD2Ev:00000000 _ZN7daisysp10OscillatorD1Ev
C:\Users\toesc\AppData\Local\Temp\ccOgcMME.s:68     .text._ZN7daisysp8ReverbScD2Ev:00000000 $t
C:\Users\toesc\AppData\Local\Temp\ccOgcMME.s:76     .text._ZN7daisysp8ReverbScD2Ev:00000000 _ZN7daisysp8ReverbScD2Ev
C:\Users\toesc\AppData\Local\Temp\ccOgcMME.s:76     .text._ZN7daisysp8ReverbScD2Ev:00000000 _ZN7daisysp8ReverbScD1Ev
C:\Users\toesc\AppData\Local\Temp\ccOgcMME.s:93     .text._ZN7daisysp10MoogLadderD2Ev:00000000 $t
C:\Users\toesc\AppData\Local\Temp\ccOgcMME.s:101    .text._ZN7daisysp10MoogLadderD2Ev:00000000 _ZN7daisysp10MoogLadderD2Ev
C:\Users\toesc\AppData\Local\Temp\ccOgcMME.s:101    .text._ZN7daisysp10MoogLadderD2Ev:00000000 _ZN7daisysp10MoogLadderD1Ev
C:\Users\toesc\AppData\Local\Temp\ccOgcMME.s:118    .text._ZN7daisysp5BlOscD2Ev:00000000 $t
C:\Users\toesc\AppData\Local\Temp\ccOgcMME.s:126    .text._ZN7daisysp5BlOscD2Ev:00000000 _ZN7daisysp5BlOscD2Ev
C:\Users\toesc\AppData\Local\Temp\ccOgcMME.s:126    .text._ZN7daisysp5BlOscD2Ev:00000000 _ZN7daisysp5BlOscD1Ev
C:\Users\toesc\AppData\Local\Temp\ccOgcMME.s:143    .text._ZN5daisy9DaisySeedD2Ev:00000000 $t
C:\Users\toesc\AppData\Local\Temp\ccOgcMME.s:151    .text._ZN5daisy9DaisySeedD2Ev:00000000 _ZN5daisy9DaisySeedD2Ev
C:\Users\toesc\AppData\Local\Temp\ccOgcMME.s:151    .text._ZN5daisy9DaisySeedD2Ev:00000000 _ZN5daisy9DaisySeedD1Ev
C:\Users\toesc\AppData\Local\Temp\ccOgcMME.s:192    .text._ZN5daisy11MidiHandlerINS_16MidiUsbTransportEED2Ev:00000000 $t
C:\Users\toesc\AppData\Local\Temp\ccOgcMME.s:200    .text._ZN5daisy11MidiHandlerINS_16MidiUsbTransportEED2Ev:00000000 _ZN5daisy11MidiHandlerINS_16MidiUsbTransportEED2Ev
C:\Users\toesc\AppData\Local\Temp\ccOgcMME.s:200    .text._ZN5daisy11MidiHandlerINS_16MidiUsbTransportEED2Ev:00000000 _ZN5daisy11MidiHandlerINS_16MidiUsbTransportEED1Ev
C:\Users\toesc\AppData\Local\Temp\ccOgcMME.s:223    .text._ZL13AudioCallbackPKfPfj:00000000 $t
C:\Users\toesc\AppData\Local\Temp\ccOgcMME.s:230    .text._ZL13AudioCallbackPKfPfj:00000000 _ZL13AudioCallbackPKfPfj
C:\Users\toesc\AppData\Local\Temp\ccOgcMME.s:402    .text._ZL13AudioCallbackPKfPfj:00000090 $d
C:\Users\toesc\AppData\Local\Temp\ccOgcMME.s:2858   .bss._ZL7primary:00000000 _ZL7primary
C:\Users\toesc\AppData\Local\Temp\ccOgcMME.s:2845   .bss._ZL4verb:00000000 _ZL4verb
C:\Users\toesc\AppData\Local\Temp\ccOgcMME.s:415    .text._ZN5daisy11MidiHandlerINS_16MidiUsbTransportEE5ParseEh:00000000 $t
C:\Users\toesc\AppData\Local\Temp\ccOgcMME.s:423    .text._ZN5daisy11MidiHandlerINS_16MidiUsbTransportEE5ParseEh:00000000 _ZN5daisy11MidiHandlerINS_16MidiUsbTransportEE5ParseEh
C:\Users\toesc\AppData\Local\Temp\ccOgcMME.s:502    .text._ZN5daisy11MidiHandlerINS_16MidiUsbTransportEE5ParseEh:00000050 $d
C:\Users\toesc\AppData\Local\Temp\ccOgcMME.s:506    .text._ZN5daisy11MidiHandlerINS_16MidiUsbTransportEE5ParseEh:00000054 $t
C:\Users\toesc\AppData\Local\Temp\ccOgcMME.s:1083   .text.startup.main:00000000 $t
C:\Users\toesc\AppData\Local\Temp\ccOgcMME.s:1091   .text.startup.main:00000000 main
C:\Users\toesc\AppData\Local\Temp\ccOgcMME.s:2457   .text.startup.main:00000358 $d
C:\Users\toesc\AppData\Local\Temp\ccOgcMME.s:2839   .bss._ZL4midi:00000000 _ZL4midi
C:\Users\toesc\AppData\Local\Temp\ccOgcMME.s:2499   .text.startup._GLOBAL__sub_I_mygate:00000000 $t
C:\Users\toesc\AppData\Local\Temp\ccOgcMME.s:2506   .text.startup._GLOBAL__sub_I_mygate:00000000 _GLOBAL__sub_I_mygate
C:\Users\toesc\AppData\Local\Temp\ccOgcMME.s:2786   .text.startup._GLOBAL__sub_I_mygate:00000088 $d
C:\Users\toesc\AppData\Local\Temp\ccOgcMME.s:2809   .init_array:00000000 $d
C:\Users\toesc\AppData\Local\Temp\ccOgcMME.s:2878   .bss.myrelease:00000000 myrelease
C:\Users\toesc\AppData\Local\Temp\ccOgcMME.s:2865   .bss.myattack:00000000 myattack
C:\Users\toesc\AppData\Local\Temp\ccOgcMME.s:2871   .bss.mygate:00000000 mygate
C:\Users\toesc\AppData\Local\Temp\ccOgcMME.s:2815   .bss._ZL2hw:00000000 $d
C:\Users\toesc\AppData\Local\Temp\ccOgcMME.s:2819   .bss._ZL2hw:00000000 _ZL2hw
C:\Users\toesc\AppData\Local\Temp\ccOgcMME.s:2822   .bss._ZL3env:00000000 $d
C:\Users\toesc\AppData\Local\Temp\ccOgcMME.s:2826   .bss._ZL3env:00000000 _ZL3env
C:\Users\toesc\AppData\Local\Temp\ccOgcMME.s:2829   .bss._ZL3osc:00000000 $d
C:\Users\toesc\AppData\Local\Temp\ccOgcMME.s:2833   .bss._ZL3osc:00000000 _ZL3osc
C:\Users\toesc\AppData\Local\Temp\ccOgcMME.s:2836   .bss._ZL4midi:00000000 $d
C:\Users\toesc\AppData\Local\Temp\ccOgcMME.s:2842   .bss._ZL4verb:00000000 $d
C:\Users\toesc\AppData\Local\Temp\ccOgcMME.s:2848   .bss._ZL6filter:00000000 $d
C:\Users\toesc\AppData\Local\Temp\ccOgcMME.s:2852   .bss._ZL6filter:00000000 _ZL6filter
C:\Users\toesc\AppData\Local\Temp\ccOgcMME.s:2855   .bss._ZL7primary:00000000 $d
C:\Users\toesc\AppData\Local\Temp\ccOgcMME.s:2861   .bss.myattack:00000000 $d
C:\Users\toesc\AppData\Local\Temp\ccOgcMME.s:2872   .bss.mygate:00000000 $d
C:\Users\toesc\AppData\Local\Temp\ccOgcMME.s:2874   .bss.myrelease:00000000 $d
ARM GAS  C:\Users\toesc\AppData\Local\Temp\ccOgcMME.s 			page 103


                           .group:00000000 _ZN7daisysp4AdsrD5Ev
                           .group:00000000 _ZN7daisysp10OscillatorD5Ev
                           .group:00000000 _ZN7daisysp8ReverbScD5Ev
                           .group:00000000 _ZN7daisysp10MoogLadderD5Ev
                           .group:00000000 _ZN7daisysp5BlOscD5Ev
                           .group:00000000 _ZN5daisy9DaisySeedD5Ev
                           .group:00000000 _ZN5daisy11MidiHandlerINS_16MidiUsbTransportEED5Ev

UNDEFINED SYMBOLS
_ZN7daisysp4Adsr7ProcessEb
_ZN7daisysp10Oscillator7ProcessEv
_ZN7daisysp5BlOsc7ProcessEv
_ZN7daisysp10MoogLadder7ProcessEf
_ZN7daisysp8ReverbSc7ProcessERKfS2_PfS3_
memcpy
_ZN5daisy9DaisySeed9ConfigureEv
_ZN5daisy9DaisySeed4InitEb
_ZN5daisy9DaisySeed17SetAudioBlockSizeEj
_ZN5daisy9DaisySeed15AudioSampleRateEv
_ZN7daisysp4Adsr4InitEfi
_ZN7daisysp10Oscillator12CalcPhaseIncEf
_ZN5daisy16MidiUsbTransport4InitENS0_6ConfigE
_ZN7daisysp4Adsr7SetTimeEif
_ZN7daisysp5BlOsc4InitEf
_ZN7daisysp10MoogLadder4InitEf
_ZN7daisysp8ReverbSc4InitEf
_ZN5daisy9DaisySeed10StartAudioEPFvPKfPfjE
_ZN5daisy16AdcChannelConfig10InitSingleE12dsy_gpio_pin
_ZN5daisy9AdcHandle4InitEPNS_16AdcChannelConfigEjNS0_12OverSamplingE
_ZN5daisy9AdcHandle5StartEv
_ZN5daisy6System6GetNowEv
_ZN5daisy16MidiUsbTransport2RxEv
_ZN5daisy16MidiUsbTransport8ReadableEv
_ZN5daisy16MidiUsbTransport8RxActiveEv
_ZNK5daisy9AdcHandle8GetFloatEh
powf
_ZN5daisy9DaisySeed6SetLedEb
_ZN5daisy16MidiUsbTransport7FlushRxEv
_ZN5daisy16MidiUsbTransport7StartRxEv
__aeabi_atexit
__dso_handle
